

Microchip MPLAB XC8 Assembler V2.45 build 20230818022343 
                                                                                               Mon Mar 04 00:41:18 2024

Microchip MPLAB XC8 C Compiler v2.45 (Free license) build 20230818022343 Og1 
     1                           	processor	18F4620
     2                           	fnconf	rparam,??,?,0
     3                           	pagewidth 120
     4                           	opt	flic
     5                           	psect	idataCOMRAM,global,class=CODE,delta=1,noexec
     6                           	psect	idataBANK0,global,class=CODE,delta=1,noexec
     7                           	psect	mediumconst,global,reloc=2,class=MEDIUMCONST,delta=1,noexec
     8                           	psect	cinit,global,reloc=2,class=CODE,delta=1
     9                           	psect	bssCOMRAM,global,class=COMRAM,space=1,delta=1,lowdata,noexec
    10                           	psect	dataCOMRAM,global,class=COMRAM,space=1,delta=1,lowdata,noexec
    11                           	psect	bssBANK0,global,class=BANK0,space=1,delta=1,lowdata,noexec
    12                           	psect	dataBANK0,global,class=BANK0,space=1,delta=1,lowdata,noexec
    13                           	psect	cstackBANK1,global,class=BANK1,space=1,delta=1,lowdata,noexec
    14                           	psect	cstackBANK0,global,class=BANK0,space=1,delta=1,lowdata,noexec
    15                           	psect	cstackCOMRAM,global,class=COMRAM,space=1,delta=1,lowdata,noexec
    16                           	psect	text0,global,reloc=2,class=CODE,delta=1
    17                           	psect	text1,global,reloc=2,class=CODE,delta=1
    18                           	psect	text2,global,reloc=2,class=CODE,delta=1
    19                           	psect	text3,global,reloc=2,class=CODE,delta=1
    20                           	psect	text4,global,reloc=2,class=CODE,delta=1
    21                           	psect	text5,global,reloc=2,class=CODE,delta=1
    22                           	psect	text6,global,reloc=2,class=CODE,delta=1
    23                           	psect	text7,global,reloc=2,class=CODE,delta=1
    24                           	psect	text8,global,reloc=2,class=CODE,delta=1
    25                           	psect	text9,global,reloc=2,class=CODE,delta=1
    26                           	psect	text10,global,reloc=2,class=CODE,delta=1
    27                           	psect	text11,global,reloc=2,class=CODE,delta=1
    28                           	psect	text12,global,reloc=2,class=CODE,delta=1
    29                           	psect	text13,global,reloc=2,class=CODE,delta=1
    30                           	psect	text14,global,reloc=2,class=CODE,delta=1
    31                           	psect	text15,global,reloc=2,class=CODE,delta=1
    32                           	psect	text16,global,reloc=2,class=CODE,delta=1
    33                           	psect	text17,global,reloc=2,class=CODE,delta=1
    34                           	psect	text18,global,reloc=2,class=CODE,delta=1
    35                           	psect	text19,global,reloc=2,class=CODE,delta=1
    36                           	psect	text20,global,reloc=2,class=CODE,delta=1
    37                           	psect	text21,global,reloc=2,class=CODE,delta=1
    38                           	psect	text22,global,reloc=2,class=CODE,delta=1,group=2
    39                           	psect	text23,global,reloc=2,class=CODE,delta=1,group=2
    40                           	psect	text24,global,reloc=2,class=CODE,delta=1
    41                           	psect	text25,global,reloc=2,class=CODE,delta=1
    42                           	psect	text26,global,reloc=2,class=CODE,delta=1
    43                           	psect	text27,global,reloc=2,class=CODE,delta=1
    44                           	psect	text28,global,reloc=2,class=CODE,delta=1
    45                           	psect	text29,global,reloc=2,class=CODE,delta=1
    46                           	psect	text30,global,reloc=2,class=CODE,delta=1
    47                           	psect	text31,global,reloc=2,class=CODE,delta=1
    48                           	psect	text32,global,reloc=2,class=CODE,delta=1
    49                           	psect	text33,global,reloc=2,class=CODE,delta=1
    50                           	psect	text34,global,reloc=2,class=CODE,delta=1
    51                           	psect	text35,global,reloc=2,class=CODE,delta=1
    52                           	psect	text36,global,reloc=2,class=CODE,delta=1
    53                           	psect	text37,global,reloc=2,class=CODE,delta=1
    54                           	psect	text38,global,reloc=2,class=CODE,delta=1,group=2
    55                           	psect	text39,global,reloc=2,class=CODE,delta=1
    56                           	psect	text40,global,reloc=2,class=CODE,delta=1
    57                           	psect	text41,global,reloc=2,class=CODE,delta=1
    58                           	psect	text42,global,reloc=2,class=CODE,delta=1
    59                           	psect	text43,global,reloc=2,class=CODE,delta=1
    60                           	psect	text44,global,reloc=2,class=CODE,delta=1,group=3
    61                           	psect	text45,global,reloc=2,class=CODE,delta=1,group=1
    62                           	psect	text46,global,reloc=2,class=CODE,delta=1,group=1
    63                           	psect	text47,global,reloc=2,class=CODE,delta=1,group=3
    64                           	psect	text48,global,reloc=2,class=CODE,delta=1,group=3
    65                           	psect	text49,global,reloc=2,class=CODE,delta=1,group=3
    66                           	psect	text50,global,reloc=2,class=CODE,delta=1,group=2
    67                           	psect	text51,global,reloc=2,class=CODE,delta=1,group=2
    68                           	psect	text52,global,reloc=2,class=CODE,delta=1,group=3
    69                           	psect	intcode,global,reloc=2,class=CODE,delta=1
    70                           	psect	intcode_body,global,reloc=2,class=CODE,delta=1
    71                           	psect	text54,global,reloc=2,class=CODE,delta=1
    72                           	psect	text55,global,reloc=2,class=CODE,delta=1
    73                           	psect	text56,global,reloc=2,class=CODE,delta=1
    74                           	psect	text57,global,reloc=2,class=CODE,delta=1
    75                           	psect	text58,global,reloc=2,class=CODE,delta=1
    76                           	psect	text59,global,reloc=2,class=CODE,delta=1
    77                           	psect	text60,global,reloc=2,class=CODE,delta=1
    78                           	psect	text61,global,reloc=2,class=CODE,delta=1
    79                           	psect	text62,global,reloc=2,class=CODE,delta=1
    80                           	psect	text63,global,reloc=2,class=CODE,delta=1
    81                           	psect	text64,global,reloc=2,class=CODE,delta=1
    82                           	psect	text65,global,reloc=2,class=CODE,delta=1
    83                           	psect	text66,global,reloc=2,class=CODE,delta=1
    84                           	psect	text67,global,reloc=2,class=CODE,delta=1
    85                           	psect	text68,global,reloc=2,class=CODE,delta=1
    86                           	psect	intsave_regs,global,class=BIGRAM,space=1,delta=1,noexec
    87                           	psect	text69,global,reloc=2,class=CODE,delta=1
    88                           	psect	rparam,global,class=COMRAM,space=1,delta=1,noexec
    89                           	psect	temp,global,ovrld,common,class=COMRAM,space=1,delta=1
    90                           	psect	config,global,abs,ovrld,class=CONFIG,space=4,delta=1,noexec
    91   000000                     
    92                           ; Generated 23/03/2023 GMT
    93                           ; 
    94                           ; Copyright © 2023, Microchip Technology Inc. and its subsidiaries ("Microchip")
    95                           ; All rights reserved.
    96                           ; 
    97                           ; This software is developed by Microchip Technology Inc. and its subsidiaries ("Microch
      +                          ip").
    98                           ; 
    99                           ; Redistribution and use in source and binary forms, with or without modification, are
   100                           ; permitted provided that the following conditions are met:
   101                           ; 
   102                           ;     1. Redistributions of source code must retain the above copyright notice, this lis
      +                          t of
   103                           ;        conditions and the following disclaimer.
   104                           ; 
   105                           ;     2. Redistributions in binary form must reproduce the above copyright notice, this 
      +                          list
   106                           ;        of conditions and the following disclaimer in the documentation and/or other
   107                           ;        materials provided with the distribution. Publication is not required when
   108                           ;        this file is used in an embedded application.
   109                           ; 
   110                           ;     3. Microchip's name may not be used to endorse or promote products derived from th
      +                          is
   111                           ;        software without specific prior written permission.
   112                           ; 
   113                           ; THIS SOFTWARE IS PROVIDED BY MICROCHIP "AS IS" AND ANY EXPRESS OR IMPLIED WARRANTIES,
   114                           ; INCLUDING, BUT NOT LIMITED TO, THE IMPLIED WARRANTIES OF MERCHANTABILITY AND FITNESS F
      +                          OR
   115                           ; PURPOSE ARE DISCLAIMED.  IN NO EVENT SHALL MICROCHIP BE LIABLE FOR ANY DIRECT, INDIREC
      +                          T,
   116                           ; INCIDENTAL, SPECIAL, EXEMPLARY, OR CONSEQUENTIAL DAMAGES (INCLUDING BUT NOT LIMITED TO
   117                           ; PROCUREMENT OF SUBSTITUTE GOODS OR SERVICES; LOSS OF USE, DATA OR PROFITS; OR BUSINESS
   118                           ; INTERRUPTION) HOWSOEVER CAUSED AND ON ANY THEORY OF LIABILITY, WHETHER IN CONTRACT, ST
      +                          RICT
   119                           ; LIABILITY, OR TORT (INCLUDING NEGLIGENCE OR OTHERWISE) ARISING IN ANY WAY OUT OF THE U
      +                          SE OF
   120                           ; THIS SOFTWARE, EVEN IF ADVISED OF THE POSSIBILITY OF SUCH DAMAGE.
   121                           ; 
   122                           ; 
   123                           ; Code-generator required, PIC18F4620 Definitions
   124                           ; 
   125                           ; SFR Addresses
   126   000000                     
   127                           	psect	idataCOMRAM
   128   002680                     __pidataCOMRAM:
   129                           	callstack 0
   130                           
   131                           ;initializer for _lcd
   132   002680  02                 	db	2
   133   002681  0A                 	db	10
   134   002682  12                 	db	18
   135   002683  1A                 	db	26
   136   002684  22                 	db	34
   137   002685  2A                 	db	42
   138                           
   139                           ;initializer for _motor
   140   002686  00                 	db	0
   141   002687  08                 	db	8
   142                           
   143                           ;initializer for _red_led
   144   002688  62                 	db	98
   145                           
   146                           ;initializer for _green_led
   147   002689  72                 	db	114
   148                           
   149                           ;initializer for _buzzer
   150   00268A  10                 	db	16
   151                           
   152                           	psect	idataBANK0
   153   002544                     __pidataBANK0:
   154                           	callstack 0
   155                           
   156                           ;initializer for _port_registers
   157   002544  80                 	db	128
   158   002545  0F                 	db	15
   159   002546  81                 	db	129
   160   002547  0F                 	db	15
   161   002548  82                 	db	130
   162   002549  0F                 	db	15
   163   00254A  83                 	db	131
   164   00254B  0F                 	db	15
   165   00254C  84                 	db	132
   166   00254D  0F                 	db	15
   167                           
   168                           ;initializer for _lat_registers
   169   00254E  89                 	db	137
   170   00254F  0F                 	db	15
   171   002550  8A                 	db	138
   172   002551  0F                 	db	15
   173   002552  8B                 	db	139
   174   002553  0F                 	db	15
   175   002554  8C                 	db	140
   176   002555  0F                 	db	15
   177   002556  8D                 	db	141
   178   002557  0F                 	db	15
   179                           
   180                           ;initializer for _tris_registers
   181   002558  92                 	db	146
   182   002559  0F                 	db	15
   183   00255A  93                 	db	147
   184   00255B  0F                 	db	15
   185   00255C  94                 	db	148
   186   00255D  0F                 	db	15
   187   00255E  95                 	db	149
   188   00255F  0F                 	db	15
   189   002560  96                 	db	150
   190   002561  0F                 	db	15
   191                           
   192                           ;initializer for _keypad
   193   002562  03                 	db	3
   194   002563  0B                 	db	11
   195   002564  13                 	db	19
   196   002565  1B                 	db	27
   197   002566  63                 	db	99
   198   002567  6B                 	db	107
   199   002568  73                 	db	115
   200   002569  7B                 	db	123
   201                           
   202                           ;initializer for _int1_obj
   203   00256A  46                 	db	low _App_ISR
   204   00256B  19                 	db	high _App_ISR
   205   00256C  49                 	db	73
   206   00256D  01                 	db	1
   207   00256E  01                 	db	1
   208   00256F  01                 	db	1
   209                           
   210                           	psect	mediumconst
   211   00FE7E                     __pmediumconst:
   212                           	callstack 0
   213   00FE7E  00                 	db	0
   214   00FE7F                     _keypad_value@ecu_keypad$F125:
   215                           	callstack 0
   216   00FE7F  07                 	db	7
   217   00FE80  08                 	db	8
   218   00FE81  09                 	db	9
   219   00FE82  2F                 	db	47
   220   00FE83  04                 	db	4
   221   00FE84  05                 	db	5
   222   00FE85  06                 	db	6
   223   00FE86  2A                 	db	42
   224   00FE87  01                 	db	1
   225   00FE88  02                 	db	2
   226   00FE89  03                 	db	3
   227   00FE8A  2D                 	db	45
   228   00FE8B  23                 	db	35
   229   00FE8C  00                 	db	0
   230   00FE8D  3D                 	db	61
   231   00FE8E  2B                 	db	43
   232   00FE8F                     __end_of_keypad_value@ecu_keypad$F125:
   233                           	callstack 0
   234   00FE8F  FF                 	db	255
   235   00FE90                     __end_of_int_value:
   236                           	callstack 0
   237   000000                     _INTCON2bits	set	4081
   238   000000                     _EECON2	set	4007
   239   000000                     _PORTBbits	set	3969
   240   000000                     _EECON1bits	set	4006
   241   000000                     _EEDATA	set	4008
   242   000000                     _EEADR	set	4009
   243   000000                     _EEADRH	set	4010
   244   000000                     _INTCONbits	set	4082
   245   000000                     _PORTE	set	3972
   246   000000                     _PORTD	set	3971
   247   000000                     _PORTC	set	3970
   248   000000                     _PORTB	set	3969
   249   000000                     _PORTA	set	3968
   250   000000                     _LATA	set	3977
   251   000000                     _TRISA	set	3986
   252   000000                     _INTCON3bits	set	4080
   253   000000                     _TRISE	set	3990
   254   000000                     _TRISD	set	3989
   255   000000                     _TRISC	set	3988
   256   000000                     _TRISB	set	3987
   257   000000                     _LATE	set	3981
   258   000000                     _LATD	set	3980
   259   000000                     _LATC	set	3979
   260   000000                     _LATB	set	3978
   261   00FE90                     STR_4:
   262   00FE90  20                 	db	32
   263   00FE91  43                 	db	67	;'C'
   264   00FE92  68                 	db	104	;'h'
   265   00FE93  6F                 	db	111	;'o'
   266   00FE94  6F                 	db	111	;'o'
   267   00FE95  73                 	db	115	;'s'
   268   00FE96  65                 	db	101	;'e'
   269   00FE97  20                 	db	32
   270   00FE98  59                 	db	89	;'Y'
   271   00FE99  6F                 	db	111	;'o'
   272   00FE9A  75                 	db	117	;'u'
   273   00FE9B  72                 	db	114	;'r'
   274   00FE9C  20                 	db	32
   275   00FE9D  50                 	db	80	;'P'
   276   00FE9E  72                 	db	114	;'r'
   277   00FE9F  6F                 	db	111	;'o'
   278   00FEA0  63                 	db	99	;'c'
   279   00FEA1  65                 	db	101	;'e'
   280   00FEA2  73                 	db	115	;'s'
   281   00FEA3  73                 	db	115	;'s'
   282   00FEA4  2E                 	db	46
   283   00FEA5  00                 	db	0
   284   00FEA6                     STR_16:
   285   00FEA6  20                 	db	32
   286   00FEA7  45                 	db	69	;'E'
   287   00FEA8  6E                 	db	110	;'n'
   288   00FEA9  74                 	db	116	;'t'
   289   00FEAA  65                 	db	101	;'e'
   290   00FEAB  72                 	db	114	;'r'
   291   00FEAC  20                 	db	32
   292   00FEAD  6F                 	db	111	;'o'
   293   00FEAE  6C                 	db	108	;'l'
   294   00FEAF  64                 	db	100	;'d'
   295   00FEB0  20                 	db	32
   296   00FEB1  50                 	db	80	;'P'
   297   00FEB2  61                 	db	97	;'a'
   298   00FEB3  73                 	db	115	;'s'
   299   00FEB4  73                 	db	115	;'s'
   300   00FEB5  77                 	db	119	;'w'
   301   00FEB6  6F                 	db	111	;'o'
   302   00FEB7  72                 	db	114	;'r'
   303   00FEB8  64                 	db	100	;'d'
   304   00FEB9  00                 	db	0
   305   00FEBA                     STR_10:
   306   00FEBA  20                 	db	32
   307   00FEBB  45                 	db	69	;'E'
   308   00FEBC  6E                 	db	110	;'n'
   309   00FEBD  74                 	db	116	;'t'
   310   00FEBE  65                 	db	101	;'e'
   311   00FEBF  72                 	db	114	;'r'
   312   00FEC0  20                 	db	32
   313   00FEC1  4E                 	db	78	;'N'
   314   00FEC2  65                 	db	101	;'e'
   315   00FEC3  77                 	db	119	;'w'
   316   00FEC4  20                 	db	32
   317   00FEC5  50                 	db	80	;'P'
   318   00FEC6  61                 	db	97	;'a'
   319   00FEC7  73                 	db	115	;'s'
   320   00FEC8  73                 	db	115	;'s'
   321   00FEC9  77                 	db	119	;'w'
   322   00FECA  6F                 	db	111	;'o'
   323   00FECB  72                 	db	114	;'r'
   324   00FECC  64                 	db	100	;'d'
   325   00FECD  00                 	db	0
   326   00FECE                     STR_19:
   327   00FECE  20                 	db	32
   328   00FECF  45                 	db	69	;'E'
   329   00FED0  6E                 	db	110	;'n'
   330   00FED1  74                 	db	116	;'t'
   331   00FED2  65                 	db	101	;'e'
   332   00FED3  72                 	db	114	;'r'
   333   00FED4  20                 	db	32
   334   00FED5  6E                 	db	110	;'n'
   335   00FED6  65                 	db	101	;'e'
   336   00FED7  77                 	db	119	;'w'
   337   00FED8  20                 	db	32
   338   00FED9  50                 	db	80	;'P'
   339   00FEDA  61                 	db	97	;'a'
   340   00FEDB  73                 	db	115	;'s'
   341   00FEDC  73                 	db	115	;'s'
   342   00FEDD  77                 	db	119	;'w'
   343   00FEDE  6F                 	db	111	;'o'
   344   00FEDF  72                 	db	114	;'r'
   345   00FEE0  64                 	db	100	;'d'
   346   00FEE1  00                 	db	0
   347   00FEE2                     STR_6:
   348   00FEE2  32                 	db	50	;'2'
   349   00FEE3  2D                 	db	45
   350   00FEE4  53                 	db	83	;'S'
   351   00FEE5  65                 	db	101	;'e'
   352   00FEE6  74                 	db	116	;'t'
   353   00FEE7  20                 	db	32
   354   00FEE8  4E                 	db	78	;'N'
   355   00FEE9  65                 	db	101	;'e'
   356   00FEEA  77                 	db	119	;'w'
   357   00FEEB  20                 	db	32
   358   00FEEC  70                 	db	112	;'p'
   359   00FEED  61                 	db	97	;'a'
   360   00FEEE  73                 	db	115	;'s'
   361   00FEEF  73                 	db	115	;'s'
   362   00FEF0  77                 	db	119	;'w'
   363   00FEF1  6F                 	db	111	;'o'
   364   00FEF2  72                 	db	114	;'r'
   365   00FEF3  64                 	db	100	;'d'
   366   00FEF4  2E                 	db	46
   367   00FEF5  00                 	db	0
   368   00FEF6                     STR_32:
   369   00FEF6  20                 	db	32
   370   00FEF7  50                 	db	80	;'P'
   371   00FEF8  61                 	db	97	;'a'
   372   00FEF9  73                 	db	115	;'s'
   373   00FEFA  73                 	db	115	;'s'
   374   00FEFB  77                 	db	119	;'w'
   375   00FEFC  6F                 	db	111	;'o'
   376   00FEFD  72                 	db	114	;'r'
   377   00FEFE  64                 	db	100	;'d'
   378   00FEFF  20                 	db	32
   379   00FF00  57                 	db	87	;'W'
   380   00FF01  72                 	db	114	;'r'
   381   00FF02  6F                 	db	111	;'o'
   382   00FF03  6E                 	db	110	;'n'
   383   00FF04  67                 	db	103	;'g'
   384   00FF05  21                 	db	33
   385   00FF06  21                 	db	33
   386   00FF07  00                 	db	0
   387   00FF08                     STR_33:
   388   00FF08  20                 	db	32
   389   00FF09  50                 	db	80	;'P'
   390   00FF0A  61                 	db	97	;'a'
   391   00FF0B  73                 	db	115	;'s'
   392   00FF0C  73                 	db	115	;'s'
   393   00FF0D  77                 	db	119	;'w'
   394   00FF0E  6F                 	db	111	;'o'
   395   00FF0F  72                 	db	114	;'r'
   396   00FF10  64                 	db	100	;'d'
   397   00FF11  20                 	db	32
   398   00FF12  43                 	db	67	;'C'
   399   00FF13  68                 	db	104	;'h'
   400   00FF14  61                 	db	97	;'a'
   401   00FF15  6E                 	db	110	;'n'
   402   00FF16  67                 	db	103	;'g'
   403   00FF17  65                 	db	101	;'e'
   404   00FF18  64                 	db	100	;'d'
   405   00FF19  00                 	db	0
   406   00FF1A                     STR_13:
   407   00FF1A  20                 	db	32
   408   00FF1B  43                 	db	67	;'C'
   409   00FF1C  6F                 	db	111	;'o'
   410   00FF1D  6E                 	db	110	;'n'
   411   00FF1E  66                 	db	102	;'f'
   412   00FF1F  69                 	db	105	;'i'
   413   00FF20  72                 	db	114	;'r'
   414   00FF21  6D                 	db	109	;'m'
   415   00FF22  20                 	db	32
   416   00FF23  50                 	db	80	;'P'
   417   00FF24  61                 	db	97	;'a'
   418   00FF25  73                 	db	115	;'s'
   419   00FF26  73                 	db	115	;'s'
   420   00FF27  77                 	db	119	;'w'
   421   00FF28  6F                 	db	111	;'o'
   422   00FF29  72                 	db	114	;'r'
   423   00FF2A  64                 	db	100	;'d'
   424   00FF2B  00                 	db	0
   425   00FF2C                     STR_30:
   426   00FF2C  20                 	db	32
   427   00FF2D  50                 	db	80	;'P'
   428   00FF2E  6C                 	db	108	;'l'
   429   00FF2F  65                 	db	101	;'e'
   430   00FF30  61                 	db	97	;'a'
   431   00FF31  73                 	db	115	;'s'
   432   00FF32  65                 	db	101	;'e'
   433   00FF33  2C                 	db	44
   434   00FF34  54                 	db	84	;'T'
   435   00FF35  72                 	db	114	;'r'
   436   00FF36  79                 	db	121	;'y'
   437   00FF37  20                 	db	32
   438   00FF38  61                 	db	97	;'a'
   439   00FF39  67                 	db	103	;'g'
   440   00FF3A  61                 	db	97	;'a'
   441   00FF3B  69                 	db	105	;'i'
   442   00FF3C  6E                 	db	110	;'n'
   443   00FF3D  00                 	db	0
   444   00FF3E                     STR_31:
   445   00FF3E  20                 	db	32
   446   00FF3F  50                 	db	80	;'P'
   447   00FF40  61                 	db	97	;'a'
   448   00FF41  73                 	db	115	;'s'
   449   00FF42  73                 	db	115	;'s'
   450   00FF43  77                 	db	119	;'w'
   451   00FF44  6F                 	db	111	;'o'
   452   00FF45  72                 	db	114	;'r'
   453   00FF46  64                 	db	100	;'d'
   454   00FF47  20                 	db	32
   455   00FF48  43                 	db	67	;'C'
   456   00FF49  6F                 	db	111	;'o'
   457   00FF4A  72                 	db	114	;'r'
   458   00FF4B  72                 	db	114	;'r'
   459   00FF4C  65                 	db	101	;'e'
   460   00FF4D  63                 	db	99	;'c'
   461   00FF4E  74                 	db	116	;'t'
   462   00FF4F  00                 	db	0
   463   00FF50                     STR_5:
   464   00FF50  31                 	db	49	;'1'
   465   00FF51  2D                 	db	45
   466   00FF52  45                 	db	69	;'E'
   467   00FF53  6E                 	db	110	;'n'
   468   00FF54  74                 	db	116	;'t'
   469   00FF55  65                 	db	101	;'e'
   470   00FF56  72                 	db	114	;'r'
   471   00FF57  20                 	db	32
   472   00FF58  50                 	db	80	;'P'
   473   00FF59  61                 	db	97	;'a'
   474   00FF5A  73                 	db	115	;'s'
   475   00FF5B  73                 	db	115	;'s'
   476   00FF5C  77                 	db	119	;'w'
   477   00FF5D  6F                 	db	111	;'o'
   478   00FF5E  72                 	db	114	;'r'
   479   00FF5F  64                 	db	100	;'d'
   480   00FF60  2E                 	db	46
   481   00FF61  00                 	db	0
   482   00FF62                     STR_29:
   483   00FF62  20                 	db	32
   484   00FF63  45                 	db	69	;'E'
   485   00FF64  72                 	db	114	;'r'
   486   00FF65  72                 	db	114	;'r'
   487   00FF66  6F                 	db	111	;'o'
   488   00FF67  72                 	db	114	;'r'
   489   00FF68  2C                 	db	44
   490   00FF69  68                 	db	104	;'h'
   491   00FF6A  61                 	db	97	;'a'
   492   00FF6B  70                 	db	112	;'p'
   493   00FF6C  70                 	db	112	;'p'
   494   00FF6D  65                 	db	101	;'e'
   495   00FF6E  6E                 	db	110	;'n'
   496   00FF6F  65                 	db	101	;'e'
   497   00FF70  64                 	db	100	;'d'
   498   00FF71  00                 	db	0
   499   00FF72                     STR_25:
   500   00FF72  20                 	db	32
   501   00FF73  4C                 	db	76	;'L'
   502   00FF74  6F                 	db	111	;'o'
   503   00FF75  63                 	db	99	;'c'
   504   00FF76  6B                 	db	107	;'k'
   505   00FF77  65                 	db	101	;'e'
   506   00FF78  72                 	db	114	;'r'
   507   00FF79  20                 	db	32
   508   00FF7A  53                 	db	83	;'S'
   509   00FF7B  74                 	db	116	;'t'
   510   00FF7C  6F                 	db	111	;'o'
   511   00FF7D  70                 	db	112	;'p'
   512   00FF7E  70                 	db	112	;'p'
   513   00FF7F  65                 	db	101	;'e'
   514   00FF80  64                 	db	100	;'d'
   515   00FF81  00                 	db	0
   516   00FF82                     STR_22:
   517   00FF82  20                 	db	32
   518   00FF83  45                 	db	69	;'E'
   519   00FF84  6E                 	db	110	;'n'
   520   00FF85  74                 	db	116	;'t'
   521   00FF86  65                 	db	101	;'e'
   522   00FF87  72                 	db	114	;'r'
   523   00FF88  20                 	db	32
   524   00FF89  50                 	db	80	;'P'
   525   00FF8A  61                 	db	97	;'a'
   526   00FF8B  73                 	db	115	;'s'
   527   00FF8C  73                 	db	115	;'s'
   528   00FF8D  77                 	db	119	;'w'
   529   00FF8E  6F                 	db	111	;'o'
   530   00FF8F  72                 	db	114	;'r'
   531   00FF90  64                 	db	100	;'d'
   532   00FF91  00                 	db	0
   533   00FF92                     STR_35:
   534   00FF92  20                 	db	32
   535   00FF93  50                 	db	80	;'P'
   536   00FF94  61                 	db	97	;'a'
   537   00FF95  73                 	db	115	;'s'
   538   00FF96  73                 	db	115	;'s'
   539   00FF97  77                 	db	119	;'w'
   540   00FF98  6F                 	db	111	;'o'
   541   00FF99  72                 	db	114	;'r'
   542   00FF9A  64                 	db	100	;'d'
   543   00FF9B  20                 	db	32
   544   00FF9C  57                 	db	87	;'W'
   545   00FF9D  72                 	db	114	;'r'
   546   00FF9E  6F                 	db	111	;'o'
   547   00FF9F  6E                 	db	110	;'n'
   548   00FFA0  67                 	db	103	;'g'
   549   00FFA1  00                 	db	0
   550   00FFA2                     STR_26:
   551   00FFA2  54                 	db	84	;'T'
   552   00FFA3  72                 	db	114	;'r'
   553   00FFA4  79                 	db	121	;'y'
   554   00FFA5  20                 	db	32
   555   00FFA6  61                 	db	97	;'a'
   556   00FFA7  66                 	db	102	;'f'
   557   00FFA8  74                 	db	116	;'t'
   558   00FFA9  65                 	db	101	;'e'
   559   00FFAA  72                 	db	114	;'r'
   560   00FFAB  20                 	db	32
   561   00FFAC  31                 	db	49	;'1'
   562   00FFAD  20                 	db	32
   563   00FFAE  6D                 	db	109	;'m'
   564   00FFAF  69                 	db	105	;'i'
   565   00FFB0  6E                 	db	110	;'n'
   566   00FFB1  00                 	db	0
   567   00FFB2                     STR_8:
   568   00FFB2  20                 	db	32
   569   00FFB3  50                 	db	80	;'P'
   570   00FFB4  61                 	db	97	;'a'
   571   00FFB5  73                 	db	115	;'s'
   572   00FFB6  73                 	db	115	;'s'
   573   00FFB7  77                 	db	119	;'w'
   574   00FFB8  6F                 	db	111	;'o'
   575   00FFB9  72                 	db	114	;'r'
   576   00FFBA  64                 	db	100	;'d'
   577   00FFBB  20                 	db	32
   578   00FFBC  66                 	db	102	;'f'
   579   00FFBD  69                 	db	105	;'i'
   580   00FFBE  72                 	db	114	;'r'
   581   00FFBF  73                 	db	115	;'s'
   582   00FFC0  74                 	db	116	;'t'
   583   00FFC1  00                 	db	0
   584   00FFC2                     STR_27:
   585   00FFC2  20                 	db	32
   586   00FFC3  50                 	db	80	;'P'
   587   00FFC4  61                 	db	97	;'a'
   588   00FFC5  73                 	db	115	;'s'
   589   00FFC6  73                 	db	115	;'s'
   590   00FFC7  77                 	db	119	;'w'
   591   00FFC8  6F                 	db	111	;'o'
   592   00FFC9  72                 	db	114	;'r'
   593   00FFCA  64                 	db	100	;'d'
   594   00FFCB  20                 	db	32
   595   00FFCC  53                 	db	83	;'S'
   596   00FFCD  65                 	db	101	;'e'
   597   00FFCE  74                 	db	116	;'t'
   598   00FFCF  00                 	db	0
   599   00FFD0                     STR_28:
   600   00FFD0  20                 	db	32
   601   00FFD1  53                 	db	83	;'S'
   602   00FFD2  75                 	db	117	;'u'
   603   00FFD3  63                 	db	99	;'c'
   604   00FFD4  63                 	db	99	;'c'
   605   00FFD5  65                 	db	101	;'e'
   606   00FFD6  73                 	db	115	;'s'
   607   00FFD7  73                 	db	115	;'s'
   608   00FFD8  66                 	db	102	;'f'
   609   00FFD9  75                 	db	117	;'u'
   610   00FFDA  6C                 	db	108	;'l'
   611   00FFDB  6C                 	db	108	;'l'
   612   00FFDC  79                 	db	121	;'y'
   613   00FFDD  00                 	db	0
   614   00FFDE                     STR_7:
   615   00FFDE  20                 	db	32
   616   00FFDF  50                 	db	80	;'P'
   617   00FFE0  6C                 	db	108	;'l'
   618   00FFE1  65                 	db	101	;'e'
   619   00FFE2  61                 	db	97	;'a'
   620   00FFE3  73                 	db	115	;'s'
   621   00FFE4  65                 	db	101	;'e'
   622   00FFE5  2C                 	db	44
   623   00FFE6  45                 	db	69	;'E'
   624   00FFE7  6E                 	db	110	;'n'
   625   00FFE8  74                 	db	116	;'t'
   626   00FFE9  65                 	db	101	;'e'
   627   00FFEA  72                 	db	114	;'r'
   628   00FFEB  00                 	db	0
   629   00FFEC                     STR_9:
   630   00FFEC  57                 	db	87	;'W'
   631   00FFED  65                 	db	101	;'e'
   632   00FFEE  6C                 	db	108	;'l'
   633   00FFEF  63                 	db	99	;'c'
   634   00FFF0  6F                 	db	111	;'o'
   635   00FFF1  6D                 	db	109	;'m'
   636   00FFF2  65                 	db	101	;'e'
   637   00FFF3  00                 	db	0
   638   00FFF4                     STR_11:
   639   00FFF4  20                 	db	32
   640   00FFF5  5F                 	db	95	;'_'
   641   00FFF6  5F                 	db	95	;'_'
   642   00FFF7  5F                 	db	95	;'_'
   643   00FFF8  5F                 	db	95	;'_'
   644   00FFF9  00                 	db	0
   645   00FFFA                     STR_1:
   646   00FFFA  25                 	db	37
   647   00FFFB  69                 	db	105	;'i'
   648   00FFFC  00                 	db	0
   649   00FFFD                     STR_12:
   650   00FFFD  2A                 	db	42
   651   00FFFE  00                 	db	0
   652   00FFFF  00                 	db	0	; dummy byte at the end
   653   000000                     
   654                           ; #config settings
   655                           
   656                           	psect	cinit
   657   001E72                     __pcinit:
   658                           	callstack 0
   659   001E72                     start_initialization:
   660                           	callstack 0
   661   001E72                     __initialization:
   662                           	callstack 0
   663                           
   664                           ; Initialize objects allocated to BANK0 (44 bytes)
   665                           ; load TBLPTR registers with __pidataBANK0
   666   001E72  0E44               	movlw	low __pidataBANK0
   667   001E74  6EF6               	movwf	tblptrl,c
   668   001E76  0E25               	movlw	high __pidataBANK0
   669   001E78  6EF7               	movwf	tblptrh,c
   670   001E7A  0E00               	movlw	low (__pidataBANK0 shr (0+16))
   671   001E7C  6EF8               	movwf	tblptru,c
   672   001E7E  EE00  F0B6         	lfsr	0,__pdataBANK0
   673   001E82  EE10 F02C          	lfsr	1,44
   674   001E86                     copy_data0:
   675   001E86  0009               	tblrd		*+
   676   001E88  CFF5 FFEE          	movff	tablat,postinc0
   677   001E8C  50E5               	movf	postdec1,w,c
   678   001E8E  50E1               	movf	fsr1l,w,c
   679   001E90  E1FA               	bnz	copy_data0
   680                           
   681                           ; Initialize objects allocated to COMRAM (11 bytes)
   682                           ; load TBLPTR registers with __pidataCOMRAM
   683   001E92  0E80               	movlw	low __pidataCOMRAM
   684   001E94  6EF6               	movwf	tblptrl,c
   685   001E96  0E26               	movlw	high __pidataCOMRAM
   686   001E98  6EF7               	movwf	tblptrh,c
   687   001E9A  0E00               	movlw	low (__pidataCOMRAM shr (0+16))
   688   001E9C  6EF8               	movwf	tblptru,c
   689   001E9E  EE00  F051         	lfsr	0,__pdataCOMRAM
   690   001EA2  EE10 F00B          	lfsr	1,11
   691   001EA6                     copy_data1:
   692   001EA6  0009               	tblrd		*+
   693   001EA8  CFF5 FFEE          	movff	tablat,postinc0
   694   001EAC  50E5               	movf	postdec1,w,c
   695   001EAE  50E1               	movf	fsr1l,w,c
   696   001EB0  E1FA               	bnz	copy_data1
   697                           
   698                           ; Clear objects allocated to BANK0 (54 bytes)
   699   001EB2  EE00  F080         	lfsr	0,__pbssBANK0
   700   001EB6  0E36               	movlw	54
   701   001EB8                     clear_0:
   702   001EB8  6AEE               	clrf	postinc0,c
   703   001EBA  06E8               	decf	wreg,f,c
   704   001EBC  E1FD               	bnz	clear_0
   705                           
   706                           ; Clear objects allocated to COMRAM (24 bytes)
   707   001EBE  EE00  F039         	lfsr	0,__pbssCOMRAM
   708   001EC2  0E18               	movlw	24
   709   001EC4                     clear_1:
   710   001EC4  6AEE               	clrf	postinc0,c
   711   001EC6  06E8               	decf	wreg,f,c
   712   001EC8  E1FD               	bnz	clear_1
   713   001ECA                     end_of_initialization:
   714                           	callstack 0
   715   001ECA                     __end_of__initialization:
   716                           	callstack 0
   717   001ECA  905C               	bcf	int$flags,0,c	;clear compiler interrupt flag (level 1)
   718   001ECC  925C               	bcf	int$flags,1,c	;clear compiler interrupt flag (level 2)
   719   001ECE  0100               	movlb	0
   720   001ED0  EF16  F004         	goto	_main	;jump to C main() function
   721                           
   722                           	psect	bssCOMRAM
   723   000039                     __pbssCOMRAM:
   724                           	callstack 0
   725   000039                     _set_password2:
   726                           	callstack 0
   727   000039                     	ds	2
   728   00003B                     _set_password1:
   729                           	callstack 0
   730   00003B                     	ds	2
   731   00003D                     _INT1_InterruptHandler:
   732                           	callstack 0
   733   00003D                     	ds	2
   734   00003F                     _INT0_InterruptHandler:
   735                           	callstack 0
   736   00003F                     	ds	2
   737   000041                     _flags:
   738                           	callstack 0
   739   000041                     	ds	1
   740   000042                     _safe_flag:
   741                           	callstack 0
   742   000042                     	ds	1
   743   000043                     _wrongs_counter:
   744                           	callstack 0
   745   000043                     	ds	1
   746   000044                     _display_counter:
   747                           	callstack 0
   748   000044                     	ds	1
   749   000045                     _password_flag:
   750                           	callstack 0
   751   000045                     	ds	1
   752   000046                     _password_counter:
   753                           	callstack 0
   754   000046                     	ds	1
   755   000047                     led_toggle@F3075:
   756                           	callstack 0
   757   000047                     	ds	1
   758   000048                     led_turn_off@F3070:
   759                           	callstack 0
   760   000048                     	ds	1
   761   000049                     led_turn_on@F3065:
   762                           	callstack 0
   763   000049                     	ds	1
   764   00004A                     led_initialize@F3060:
   765                           	callstack 0
   766   00004A                     	ds	1
   767   00004B                     _lcd_counter:
   768                           	callstack 0
   769   00004B                     	ds	1
   770   00004C                     _low_pass:
   771                           	callstack 0
   772   00004C                     	ds	2
   773   00004E                     _high_pass:
   774                           	callstack 0
   775   00004E                     	ds	2
   776   000050                     _keypad_value:
   777                           	callstack 0
   778   000050                     	ds	1
   779                           
   780                           	psect	dataCOMRAM
   781   000051                     __pdataCOMRAM:
   782                           	callstack 0
   783   000051                     _lcd:
   784                           	callstack 0
   785   000051                     	ds	6
   786   000057                     _motor:
   787                           	callstack 0
   788   000057                     	ds	2
   789   000059                     _red_led:
   790                           	callstack 0
   791   000059                     	ds	1
   792   00005A                     _green_led:
   793                           	callstack 0
   794   00005A                     	ds	1
   795   00005B                     _buzzer:
   796                           	callstack 0
   797   00005B                     	ds	1
   798                           
   799                           	psect	bssBANK0
   800   000080                     __pbssBANK0:
   801                           	callstack 0
   802   000080                     _dbuf:
   803                           	callstack 0
   804   000080                     	ds	32
   805   0000A0                     _width:
   806                           	callstack 0
   807   0000A0                     	ds	2
   808   0000A2                     _prec:
   809                           	callstack 0
   810   0000A2                     	ds	2
   811   0000A4                     _memory_value:
   812                           	callstack 0
   813   0000A4                     	ds	2
   814   0000A6                     _entered_value:
   815                           	callstack 0
   816   0000A6                     	ds	2
   817   0000A8                     _RB7_InterruptHandler:
   818                           	callstack 0
   819   0000A8                     	ds	2
   820   0000AA                     _RB6_InterruptHandler:
   821                           	callstack 0
   822   0000AA                     	ds	2
   823   0000AC                     _RB5_InterruptHandler:
   824                           	callstack 0
   825   0000AC                     	ds	2
   826   0000AE                     _RB4_InterruptHandler:
   827                           	callstack 0
   828   0000AE                     	ds	2
   829   0000B0                     _INT2_InterruptHandler:
   830                           	callstack 0
   831   0000B0                     	ds	2
   832   0000B2                     _display_value:
   833                           	callstack 0
   834   0000B2                     	ds	4
   835                           
   836                           	psect	dataBANK0
   837   0000B6                     __pdataBANK0:
   838                           	callstack 0
   839   0000B6                     _port_registers:
   840                           	callstack 0
   841   0000B6                     	ds	10
   842   0000C0                     _lat_registers:
   843                           	callstack 0
   844   0000C0                     	ds	10
   845   0000CA                     _tris_registers:
   846                           	callstack 0
   847   0000CA                     	ds	10
   848   0000D4                     _keypad:
   849                           	callstack 0
   850   0000D4                     	ds	8
   851   0000DC                     _int1_obj:
   852                           	callstack 0
   853   0000DC                     	ds	6
   854                           
   855                           	psect	cstackBANK1
   856   000100                     __pcstackBANK1:
   857                           	callstack 0
   858   000100                     
   859                           ; 2 bytes @ 0x0
   860   000100                     	ds	2
   861   000102                     
   862                           ; 3 bytes @ 0x2
   863   000102                     	ds	3
   864   000105                     ??_main:
   865                           
   866                           ; 1 bytes @ 0x5
   867   000105                     	ds	2
   868                           
   869                           	psect	cstackBANK0
   870   0000E2                     __pcstackBANK0:
   871                           	callstack 0
   872   0000E2                     lcd_4bit_send_string_pos@lcd:
   873                           	callstack 0
   874   0000E2                     vfpfcnvrt@done:
   875                           	callstack 0
   876                           
   877                           ; 1 bytes @ 0x0
   878   0000E2                     	ds	1
   879   0000E3                     lcd_4bit_send_string_pos@row:
   880                           	callstack 0
   881   0000E3                     vfpfcnvrt@cp:
   882                           	callstack 0
   883                           
   884                           ; 2 bytes @ 0x1
   885   0000E3                     	ds	1
   886   0000E4                     lcd_4bit_send_string_pos@column:
   887                           	callstack 0
   888                           
   889                           ; 1 bytes @ 0x2
   890   0000E4                     	ds	1
   891   0000E5                     lcd_4bit_send_string_pos@str:
   892                           	callstack 0
   893   0000E5                     vfpfcnvrt@convarg:
   894                           	callstack 0
   895                           
   896                           ; 4 bytes @ 0x3
   897   0000E5                     	ds	4
   898   0000E9                     vfpfcnvrt@c:
   899                           	callstack 0
   900                           
   901                           ; 1 bytes @ 0x7
   902   0000E9                     	ds	1
   903   0000EA                     ?_sprintf:
   904                           	callstack 0
   905   0000EA                     sprintf@s:
   906                           	callstack 0
   907                           
   908                           ; 1 bytes @ 0x8
   909   0000EA                     	ds	1
   910   0000EB                     sprintf@fmt:
   911                           	callstack 0
   912                           
   913                           ; 2 bytes @ 0x9
   914   0000EB                     	ds	4
   915   0000EF                     sprintf@ap:
   916                           	callstack 0
   917                           
   918                           ; 1 bytes @ 0xD
   919   0000EF                     	ds	1
   920   0000F0                     sprintf@f:
   921                           	callstack 0
   922                           
   923                           ; 12 bytes @ 0xE
   924   0000F0                     	ds	12
   925   0000FC                     convert_byte_to_string@str:
   926                           	callstack 0
   927                           
   928                           ; 1 bytes @ 0x1A
   929   0000FC                     	ds	1
   930   0000FD                     convert_byte_to_string@value:
   931                           	callstack 0
   932                           
   933                           ; 1 bytes @ 0x1B
   934   0000FD                     	ds	1
   935   0000FE                     ??_Enter_password:
   936   0000FE                     ??_Set_password:
   937                           
   938                           ; 1 bytes @ 0x1C
   939   0000FE                     	ds	2
   940                           
   941                           	psect	cstackCOMRAM
   942   000001                     __pcstackCOMRAM:
   943                           	callstack 0
   944   000001                     i2gpio_pin_Write_logic@_pin_config:
   945                           	callstack 0
   946                           
   947                           ; 1 bytes @ 0x0
   948   000001                     	ds	1
   949   000002                     i2gpio_pin_Write_logic@logic:
   950                           	callstack 0
   951                           
   952                           ; 1 bytes @ 0x1
   953   000002                     	ds	1
   954   000003                     ??i2_gpio_pin_Write_logic:
   955                           
   956                           ; 1 bytes @ 0x2
   957   000003                     	ds	5
   958   000008                     i2motor_stop@motor:
   959                           	callstack 0
   960   000008                     i2send_4bit@lcd:
   961                           	callstack 0
   962   000008                     i2send_4bit_enable_signal@lcd:
   963                           	callstack 0
   964   000008                     i2led_turn_off@led:
   965                           	callstack 0
   966                           
   967                           ; 1 bytes @ 0x7
   968   000008                     	ds	1
   969   000009                     ??i2_led_turn_off:
   970   000009                     i2send_4bit@_data_command:
   971                           	callstack 0
   972                           
   973                           ; 1 bytes @ 0x8
   974   000009                     	ds	1
   975   00000A                     i2lcd_4bit_send_command@lcd:
   976                           	callstack 0
   977   00000A                     i2lcd_4bit_send_data@lcd:
   978                           	callstack 0
   979   00000A                     i2led_turn_off@pin_obj:
   980                           	callstack 0
   981                           
   982                           ; 1 bytes @ 0x9
   983   00000A                     	ds	1
   984   00000B                     i2lcd_4bit_send_command@command:
   985                           	callstack 0
   986   00000B                     i2lcd_4bit_send_data@data:
   987                           	callstack 0
   988                           
   989                           ; 1 bytes @ 0xA
   990   00000B                     	ds	1
   991   00000C                     i2lcd_4bit_send_string@lcd:
   992                           	callstack 0
   993   00000C                     i2set_cursor_4bit@lcd:
   994                           	callstack 0
   995                           
   996                           ; 1 bytes @ 0xB
   997   00000C                     	ds	1
   998   00000D                     i2set_cursor_4bit@row:
   999                           	callstack 0
  1000   00000D                     i2lcd_4bit_send_string@str:
  1001                           	callstack 0
  1002                           
  1003                           ; 2 bytes @ 0xC
  1004   00000D                     	ds	1
  1005   00000E                     i2set_cursor_4bit@column:
  1006                           	callstack 0
  1007                           
  1008                           ; 1 bytes @ 0xD
  1009   00000E                     	ds	1
  1010   00000F                     ??i2_set_cursor_4bit:
  1011                           
  1012                           ; 1 bytes @ 0xE
  1013   00000F                     	ds	2
  1014   000011                     i2lcd_4bit_send_string_pos@lcd:
  1015                           	callstack 0
  1016                           
  1017                           ; 1 bytes @ 0x10
  1018   000011                     	ds	1
  1019   000012                     i2lcd_4bit_send_string_pos@row:
  1020                           	callstack 0
  1021                           
  1022                           ; 1 bytes @ 0x11
  1023   000012                     	ds	1
  1024   000013                     i2lcd_4bit_send_string_pos@column:
  1025                           	callstack 0
  1026                           
  1027                           ; 1 bytes @ 0x12
  1028   000013                     	ds	1
  1029   000014                     i2lcd_4bit_send_string_pos@str:
  1030                           	callstack 0
  1031                           
  1032                           ; 2 bytes @ 0x13
  1033   000014                     	ds	2
  1034   000016                     ??_App_ISR:
  1035   000016                     
  1036                           ; 1 bytes @ 0x15
  1037   000016                     	ds	2
  1038   000018                     ??_InterruptManger:
  1039                           
  1040                           ; 1 bytes @ 0x17
  1041   000018                     	ds	12
  1042   000024                     ?___wmul:
  1043                           	callstack 0
  1044   000024                     ?___awdiv:
  1045                           	callstack 0
  1046   000024                     ?___awmod:
  1047                           	callstack 0
  1048   000024                     ?___lwdiv:
  1049                           	callstack 0
  1050   000024                     ?___lwmod:
  1051                           	callstack 0
  1052   000024                     gpio_pin_Read_logic@_pin_config:
  1053                           	callstack 0
  1054   000024                     gpio_pin_Write_logic@_pin_config:
  1055                           	callstack 0
  1056   000024                     gpio_pin_direction_intialize@_pin_config:
  1057                           	callstack 0
  1058   000024                     Interrupt_INTx_Enable@int_obj:
  1059                           	callstack 0
  1060   000024                     Interrupt_INTx_Disable@int_obj:
  1061                           	callstack 0
  1062   000024                     Interrupt_INTx_Edge_Init@int_obj:
  1063                           	callstack 0
  1064   000024                     Interrupt_INTx_ClearFlag@int_obj:
  1065                           	callstack 0
  1066   000024                     memset@dest:
  1067                           	callstack 0
  1068   000024                     Data_EEPROM_WriteByte@bAdd:
  1069                           	callstack 0
  1070   000024                     Data_EEPROM_ReadByte@bAdd:
  1071                           	callstack 0
  1072   000024                     INT0_SetInterruptHandler@INTx_InterruptHandeler:
  1073                           	callstack 0
  1074   000024                     INT1_SetInterruptHandler@INTx_InterruptHandeler:
  1075                           	callstack 0
  1076   000024                     INT2_SetInterruptHandler@INTx_InterruptHandeler:
  1077                           	callstack 0
  1078   000024                     ___wmul@multiplier:
  1079                           	callstack 0
  1080   000024                     ___awdiv@dividend:
  1081                           	callstack 0
  1082   000024                     ___awmod@dividend:
  1083                           	callstack 0
  1084   000024                     ___lwdiv@dividend:
  1085                           	callstack 0
  1086   000024                     ___lwmod@dividend:
  1087                           	callstack 0
  1088   000024                     fputc@c:
  1089                           	callstack 0
  1090                           
  1091                           ; 2 bytes @ 0x23
  1092   000024                     	ds	1
  1093   000025                     ??_gpio_pin_direction_intialize:
  1094   000025                     ??_Interrupt_INTx_Disable:
  1095   000025                     ??_Interrupt_INTx_ClearFlag:
  1096   000025                     ??_Interrupt_INTx_Edge_Init:
  1097   000025                     ??_Interrupt_INTx_Enable:
  1098   000025                     gpio_pin_Read_logic@logic:
  1099                           	callstack 0
  1100   000025                     gpio_pin_Write_logic@logic:
  1101                           	callstack 0
  1102   000025                     memset@c:
  1103                           	callstack 0
  1104                           
  1105                           ; 2 bytes @ 0x24
  1106   000025                     	ds	1
  1107   000026                     ??_gpio_pin_Read_logic:
  1108   000026                     ??_gpio_pin_Write_logic:
  1109   000026                     Data_EEPROM_ReadByte@bData:
  1110                           	callstack 0
  1111   000026                     SetInterruptHandler@int_obj:
  1112                           	callstack 0
  1113   000026                     fputc@fp:
  1114                           	callstack 0
  1115   000026                     Data_EEPROM_WriteByte@bData:
  1116                           	callstack 0
  1117   000026                     ___wmul@multiplicand:
  1118                           	callstack 0
  1119   000026                     ___awdiv@divisor:
  1120                           	callstack 0
  1121   000026                     ___awmod@divisor:
  1122                           	callstack 0
  1123   000026                     ___lwdiv@divisor:
  1124                           	callstack 0
  1125   000026                     ___lwmod@divisor:
  1126                           	callstack 0
  1127                           
  1128                           ; 2 bytes @ 0x25
  1129   000026                     	ds	1
  1130   000027                     ??_SetInterruptHandler:
  1131   000027                     ??_fputc:
  1132   000027                     ??_Data_EEPROM_ReadByte:
  1133   000027                     memset@n:
  1134                           	callstack 0
  1135                           
  1136                           ; 2 bytes @ 0x26
  1137   000027                     	ds	1
  1138   000028                     Data_EEPROM_WriteByte@Global_Interrupt_Status:
  1139                           	callstack 0
  1140   000028                     ___awdiv@counter:
  1141                           	callstack 0
  1142   000028                     ___awmod@counter:
  1143                           	callstack 0
  1144   000028                     ___lwmod@counter:
  1145                           	callstack 0
  1146   000028                     ___wmul@product:
  1147                           	callstack 0
  1148   000028                     ___lwdiv@quotient:
  1149                           	callstack 0
  1150                           
  1151                           ; 2 bytes @ 0x27
  1152   000028                     	ds	1
  1153   000029                     ___awdiv@sign:
  1154                           	callstack 0
  1155   000029                     ___awmod@sign:
  1156                           	callstack 0
  1157   000029                     memset@p:
  1158                           	callstack 0
  1159                           
  1160                           ; 1 bytes @ 0x28
  1161   000029                     	ds	1
  1162   00002A                     ?_abs:
  1163                           	callstack 0
  1164   00002A                     gpio_pin_Read_logic@ret:
  1165                           	callstack 0
  1166   00002A                     gpio_pin_direction_intialize@ret:
  1167                           	callstack 0
  1168   00002A                     ___lwdiv@counter:
  1169                           	callstack 0
  1170   00002A                     ___awdiv@quotient:
  1171                           	callstack 0
  1172   00002A                     abs@a:
  1173                           	callstack 0
  1174                           
  1175                           ; 2 bytes @ 0x29
  1176   00002A                     	ds	1
  1177   00002B                     motor_intialize@motor:
  1178                           	callstack 0
  1179   00002B                     keypad_intialize@keypad_obj:
  1180                           	callstack 0
  1181   00002B                     led_initialize@led:
  1182                           	callstack 0
  1183   00002B                     gpio_pin_Write_logic@ret:
  1184                           	callstack 0
  1185   00002B                     Interrupt_INTx_Pin_Init@int_obj:
  1186                           	callstack 0
  1187                           
  1188                           ; 1 bytes @ 0x2A
  1189   00002B                     	ds	1
  1190   00002C                     ??_abs:
  1191   00002C                     ??_led_initialize:
  1192   00002C                     motor_move_right@motor:
  1193                           	callstack 0
  1194   00002C                     motor_stop@motor:
  1195                           	callstack 0
  1196   00002C                     keypad_intialize@ret:
  1197                           	callstack 0
  1198   00002C                     keypad_get_value@keypad_obj:
  1199                           	callstack 0
  1200   00002C                     send_4bit@lcd:
  1201                           	callstack 0
  1202   00002C                     send_4bit_enable_signal@lcd:
  1203                           	callstack 0
  1204   00002C                     led_turn_on@led:
  1205                           	callstack 0
  1206   00002C                     led_turn_off@led:
  1207                           	callstack 0
  1208   00002C                     gpio_pin_intialize@_pin_config:
  1209                           	callstack 0
  1210   00002C                     Interrupt_INTx_Init@int_obj:
  1211                           	callstack 0
  1212                           
  1213                           ; 1 bytes @ 0x2B
  1214   00002C                     	ds	1
  1215   00002D                     ??_gpio_pin_intialize:
  1216   00002D                     ??_led_turn_on:
  1217   00002D                     ??_led_turn_off:
  1218   00002D                     keypad_intialize@rows_counter:
  1219                           	callstack 0
  1220   00002D                     keypad_get_value@value:
  1221                           	callstack 0
  1222   00002D                     send_4bit@_data_command:
  1223                           	callstack 0
  1224   00002D                     led_initialize@pin_obj:
  1225                           	callstack 0
  1226                           
  1227                           ; 1 bytes @ 0x2C
  1228   00002D                     	ds	1
  1229   00002E                     ??_keypad_get_value:
  1230   00002E                     keypad_intialize@columns_counter:
  1231                           	callstack 0
  1232   00002E                     lcd_4bit_send_command@lcd:
  1233                           	callstack 0
  1234   00002E                     lcd_4bit_send_data@lcd:
  1235                           	callstack 0
  1236   00002E                     led_turn_on@pin_obj:
  1237                           	callstack 0
  1238   00002E                     led_turn_off@pin_obj:
  1239                           	callstack 0
  1240   00002E                     gpio_pin_intialize@ret:
  1241                           	callstack 0
  1242   00002E                     vfpfcnvrt@fp:
  1243                           	callstack 0
  1244                           
  1245                           ; 1 bytes @ 0x2D
  1246   00002E                     	ds	1
  1247   00002F                     lcd_4bit_send_command@command:
  1248                           	callstack 0
  1249   00002F                     lcd_4bit_send_data@data:
  1250                           	callstack 0
  1251   00002F                     vfpfcnvrt@fmt:
  1252                           	callstack 0
  1253                           
  1254                           ; 1 bytes @ 0x2E
  1255   00002F                     	ds	1
  1256   000030                     keypad_get_value@col_val:
  1257                           	callstack 0
  1258   000030                     lcd_4bit_intialize@lcd:
  1259                           	callstack 0
  1260   000030                     lcd_4bit_send_string@lcd:
  1261                           	callstack 0
  1262   000030                     set_cursor_4bit@lcd:
  1263                           	callstack 0
  1264   000030                     vfpfcnvrt@ap:
  1265                           	callstack 0
  1266                           
  1267                           ; 1 bytes @ 0x2F
  1268   000030                     	ds	1
  1269   000031                     ??_lcd_4bit_intialize:
  1270   000031                     ??_vfpfcnvrt:
  1271   000031                     keypad_get_value@rows_counter2:
  1272                           	callstack 0
  1273   000031                     set_cursor_4bit@row:
  1274                           	callstack 0
  1275   000031                     lcd_4bit_send_string@str:
  1276                           	callstack 0
  1277                           
  1278                           ; 2 bytes @ 0x30
  1279   000031                     	ds	1
  1280   000032                     keypad_get_value@rows_counter:
  1281                           	callstack 0
  1282   000032                     lcd_4bit_intialize@ret:
  1283                           	callstack 0
  1284   000032                     set_cursor_4bit@column:
  1285                           	callstack 0
  1286                           
  1287                           ; 1 bytes @ 0x31
  1288   000032                     	ds	1
  1289   000033                     ??_set_cursor_4bit:
  1290   000033                     ?_vfprintf:
  1291                           	callstack 0
  1292   000033                     keypad_get_value@columns_counter:
  1293                           	callstack 0
  1294   000033                     vfprintf@fp:
  1295                           	callstack 0
  1296                           
  1297                           ; 1 bytes @ 0x32
  1298   000033                     	ds	1
  1299   000034                     vfprintf@fmt:
  1300                           	callstack 0
  1301                           
  1302                           ; 2 bytes @ 0x33
  1303   000034                     	ds	1
  1304   000035                     ??_welcome_message:
  1305   000035                     ??_password_handler:
  1306   000035                     ??_password_reset:
  1307   000035                     ??_password:
  1308   000035                     
  1309                           ; 1 bytes @ 0x34
  1310   000035                     	ds	1
  1311   000036                     vfprintf@ap:
  1312                           	callstack 0
  1313                           
  1314                           ; 1 bytes @ 0x35
  1315   000036                     	ds	1
  1316   000037                     vfprintf@cfmt:
  1317                           	callstack 0
  1318                           
  1319                           ; 2 bytes @ 0x36
  1320   000037                     	ds	2
  1321   000039                     
  1322                           ; 1 bytes @ 0x38
  1323 ;;
  1324 ;;Main: autosize = 0, tempsize = 2, incstack = 0, save=0
  1325 ;;
  1326 ;; *************** function _main *****************
  1327 ;; Defined at:
  1328 ;;		line 12 in file "application.c"
  1329 ;; Parameters:    Size  Location     Type
  1330 ;;  argc            2    0[BANK1 ] int 
  1331 ;;  argv            3    2[BANK1 ] PTR PTR unsigned char 
  1332 ;; Auto vars:     Size  Location     Type
  1333 ;;		None
  1334 ;; Return value:  Size  Location     Type
  1335 ;;                  2    0[BANK1 ] int 
  1336 ;; Registers used:
  1337 ;;		wreg, fsr0l, fsr0h, fsr1l, fsr1h, fsr2l, fsr2h, status,2, status,0, tblptrl, tblptrh, tblptru, prodl, prodh, cstack
  1338 ;; Tracked objects:
  1339 ;;		On entry : 0/0
  1340 ;;		On exit  : 0/0
  1341 ;;		Unchanged: 0/0
  1342 ;; Data sizes:     COMRAM   BANK0   BANK1   BANK2   BANK3   BANK4   BANK5   BANK6   BANK7   BANK8   BANK9  BANK10  BANK1
      +1  BANK12  BANK13  BANK14  BANK15
  1343 ;;      Params:         0       0       5       0       0       0       0       0       0       0       0       0       
      +0       0       0       0       0
  1344 ;;      Locals:         0       0       0       0       0       0       0       0       0       0       0       0       
      +0       0       0       0       0
  1345 ;;      Temps:          0       0       2       0       0       0       0       0       0       0       0       0       
      +0       0       0       0       0
  1346 ;;      Totals:         0       0       7       0       0       0       0       0       0       0       0       0       
      +0       0       0       0       0
  1347 ;;Total ram usage:        7 bytes
  1348 ;; Hardware stack levels required when called: 15
  1349 ;; This function calls:
  1350 ;;		_Enter_password
  1351 ;;		_Set_password
  1352 ;;		_intialization
  1353 ;;		_keypad_get_value
  1354 ;;		_lcd_4bit_send_command
  1355 ;;		_lcd_4bit_send_string_pos
  1356 ;;		_welcome_message
  1357 ;; This function is called by:
  1358 ;;		Startup code after reset
  1359 ;; This function uses a non-reentrant model
  1360 ;;
  1361                           
  1362                           	psect	text0
  1363   00082C                     __ptext0:
  1364                           	callstack 0
  1365   00082C                     _main:
  1366                           	callstack 16
  1367   00082C                     
  1368                           ;application.c: 15:     intialization();
  1369   00082C  EC91  F011         	call	_intialization	;wreg free
  1370   000830                     
  1371                           ;application.c: 16:     welcome_message();
  1372   000830  EC35  F011         	call	_welcome_message	;wreg free
  1373   000834                     l5800:
  1374                           
  1375                           ;application.c: 20:        lcd_4bit_send_string_pos(&lcd,1,1," Choose Your Process.");
  1376   000834  0E51               	movlw	low _lcd
  1377   000836  0100               	movlb	0	; () banked
  1378   000838  6FE2               	movwf	lcd_4bit_send_string_pos@lcd& (0+255),b
  1379   00083A  0E01               	movlw	1
  1380   00083C  6FE3               	movwf	lcd_4bit_send_string_pos@row& (0+255),b
  1381   00083E  0E01               	movlw	1
  1382   000840  6FE4               	movwf	lcd_4bit_send_string_pos@column& (0+255),b
  1383   000842  0E90               	movlw	low STR_4
  1384   000844  6FE5               	movwf	lcd_4bit_send_string_pos@str& (0+255),b
  1385   000846  0EFE               	movlw	high STR_4
  1386   000848  6FE6               	movwf	(lcd_4bit_send_string_pos@str+1)& (0+255),b
  1387   00084A  ECAE  F011         	call	_lcd_4bit_send_string_pos	;wreg free
  1388   00084E                     
  1389                           ;application.c: 21:         lcd_4bit_send_string_pos(&lcd,3,1,"1-Enter Password.");
  1390   00084E  0E51               	movlw	low _lcd
  1391   000850  0100               	movlb	0	; () banked
  1392   000852  6FE2               	movwf	lcd_4bit_send_string_pos@lcd& (0+255),b
  1393   000854  0E03               	movlw	3
  1394   000856  6FE3               	movwf	lcd_4bit_send_string_pos@row& (0+255),b
  1395   000858  0E01               	movlw	1
  1396   00085A  6FE4               	movwf	lcd_4bit_send_string_pos@column& (0+255),b
  1397   00085C  0E50               	movlw	low STR_5
  1398   00085E  6FE5               	movwf	lcd_4bit_send_string_pos@str& (0+255),b
  1399   000860  0EFF               	movlw	high STR_5
  1400   000862  6FE6               	movwf	(lcd_4bit_send_string_pos@str+1)& (0+255),b
  1401   000864  ECAE  F011         	call	_lcd_4bit_send_string_pos	;wreg free
  1402   000868                     
  1403                           ;application.c: 22:         lcd_4bit_send_string_pos(&lcd,4,1,"2-Set New password.");
  1404   000868  0E51               	movlw	low _lcd
  1405   00086A  0100               	movlb	0	; () banked
  1406   00086C  6FE2               	movwf	lcd_4bit_send_string_pos@lcd& (0+255),b
  1407   00086E  0E04               	movlw	4
  1408   000870  6FE3               	movwf	lcd_4bit_send_string_pos@row& (0+255),b
  1409   000872  0E01               	movlw	1
  1410   000874  6FE4               	movwf	lcd_4bit_send_string_pos@column& (0+255),b
  1411   000876  0EE2               	movlw	low STR_6
  1412   000878  6FE5               	movwf	lcd_4bit_send_string_pos@str& (0+255),b
  1413   00087A  0EFE               	movlw	high STR_6
  1414   00087C  6FE6               	movwf	(lcd_4bit_send_string_pos@str+1)& (0+255),b
  1415   00087E  ECAE  F011         	call	_lcd_4bit_send_string_pos	;wreg free
  1416   000882                     
  1417                           ;application.c: 23:         keypad_get_value(&keypad,&keypad_value);
  1418   000882  0ED4               	movlw	low _keypad
  1419   000884  6E2C               	movwf	keypad_get_value@keypad_obj^0,c
  1420   000886  0E50               	movlw	low _keypad_value
  1421   000888  6E2D               	movwf	keypad_get_value@value^0,c
  1422   00088A  EC63  F009         	call	_keypad_get_value	;wreg free
  1423   00088E                     
  1424                           ;application.c: 25:        if(keypad_value != (0xff)){
  1425   00088E  2850               	incf	_keypad_value^0,w,c
  1426   000890  B4D8               	btfsc	status,2,c
  1427   000892  EF4D  F004         	goto	u4331
  1428   000896  EF4F  F004         	goto	u4330
  1429   00089A                     u4331:
  1430   00089A  EFB4  F004         	goto	l5834
  1431   00089E                     u4330:
  1432   00089E  EF9E  F004         	goto	l5832
  1433   0008A2                     l5812:
  1434                           
  1435                           ; BSR set to: 1
  1436                           ;application.c: 28:                  if(password_flag==1&&safe_flag==1){
  1437   0008A2  0445               	decf	_password_flag^0,w,c
  1438   0008A4  A4D8               	btfss	status,2,c
  1439   0008A6  EF57  F004         	goto	u4341
  1440   0008AA  EF59  F004         	goto	u4340
  1441   0008AE                     u4341:
  1442   0008AE  EF65  F004         	goto	l5818
  1443   0008B2                     u4340:
  1444   0008B2                     
  1445                           ; BSR set to: 1
  1446   0008B2  0442               	decf	_safe_flag^0,w,c
  1447   0008B4  A4D8               	btfss	status,2,c
  1448   0008B6  EF5F  F004         	goto	u4351
  1449   0008BA  EF61  F004         	goto	u4350
  1450   0008BE                     u4351:
  1451   0008BE  EF65  F004         	goto	l5818
  1452   0008C2                     u4350:
  1453   0008C2                     
  1454                           ; BSR set to: 1
  1455                           ;application.c: 29:                      Enter_password();
  1456   0008C2  EC11  F006         	call	_Enter_password	;wreg free
  1457                           
  1458                           ;application.c: 30:                  }
  1459   0008C6  EFB4  F004         	goto	l5834
  1460   0008CA                     l5818:
  1461                           
  1462                           ; BSR set to: 1
  1463                           ;application.c: 32:                  {;application.c: 33:                      lcd_4bit_
      +                          send_command(&lcd,0X01);
  1464   0008CA  0E51               	movlw	low _lcd
  1465   0008CC  6E2E               	movwf	lcd_4bit_send_command@lcd^0,c
  1466   0008CE  0E01               	movlw	1
  1467   0008D0  6E2F               	movwf	lcd_4bit_send_command@command^0,c
  1468   0008D2  ECC4  F00F         	call	_lcd_4bit_send_command	;wreg free
  1469   0008D6                     
  1470                           ;application.c: 34:                      lcd_4bit_send_string_pos(&lcd,1,5," Please,Ente
      +                          r");
  1471   0008D6  0E51               	movlw	low _lcd
  1472   0008D8  0100               	movlb	0	; () banked
  1473   0008DA  6FE2               	movwf	lcd_4bit_send_string_pos@lcd& (0+255),b
  1474   0008DC  0E01               	movlw	1
  1475   0008DE  6FE3               	movwf	lcd_4bit_send_string_pos@row& (0+255),b
  1476   0008E0  0E05               	movlw	5
  1477   0008E2  6FE4               	movwf	lcd_4bit_send_string_pos@column& (0+255),b
  1478   0008E4  0EDE               	movlw	low STR_7
  1479   0008E6  6FE5               	movwf	lcd_4bit_send_string_pos@str& (0+255),b
  1480   0008E8  0EFF               	movlw	high STR_7
  1481   0008EA  6FE6               	movwf	(lcd_4bit_send_string_pos@str+1)& (0+255),b
  1482   0008EC  ECAE  F011         	call	_lcd_4bit_send_string_pos	;wreg free
  1483   0008F0                     
  1484                           ;application.c: 35:                      lcd_4bit_send_string_pos(&lcd,2,1," Password fi
      +                          rst");
  1485   0008F0  0E51               	movlw	low _lcd
  1486   0008F2  0100               	movlb	0	; () banked
  1487   0008F4  6FE2               	movwf	lcd_4bit_send_string_pos@lcd& (0+255),b
  1488   0008F6  0E02               	movlw	2
  1489   0008F8  6FE3               	movwf	lcd_4bit_send_string_pos@row& (0+255),b
  1490   0008FA  0E01               	movlw	1
  1491   0008FC  6FE4               	movwf	lcd_4bit_send_string_pos@column& (0+255),b
  1492   0008FE  0EB2               	movlw	low STR_8
  1493   000900  6FE5               	movwf	lcd_4bit_send_string_pos@str& (0+255),b
  1494   000902  0EFF               	movlw	high STR_8
  1495   000904  6FE6               	movwf	(lcd_4bit_send_string_pos@str+1)& (0+255),b
  1496   000906  ECAE  F011         	call	_lcd_4bit_send_string_pos	;wreg free
  1497   00090A                     
  1498                           ;application.c: 36:                       _delay((unsigned long)((2000)*(8000000UL/4000.
      +                          0)));
  1499   00090A  0E15               	movlw	21
  1500   00090C  0101               	movlb	1	; () banked
  1501   00090E  6F06               	movwf	(??_main+1)& (0+255),b
  1502   000910  0E4B               	movlw	75
  1503   000912  6F05               	movwf	??_main& (0+255),b
  1504   000914  0EBE               	movlw	190
  1505   000916                     u4367:
  1506   000916  2EE8               	decfsz	wreg,f,c
  1507   000918  D7FE               	bra	u4367
  1508   00091A  2F05               	decfsz	??_main& (0+255),f,b
  1509   00091C  D7FC               	bra	u4367
  1510   00091E  2F06               	decfsz	(??_main+1)& (0+255),f,b
  1511   000920  D7FA               	bra	u4367
  1512   000922  0000               	nop	
  1513   000924                     
  1514                           ;application.c: 37:                       lcd_4bit_send_command(&lcd,0X01);
  1515   000924  0E51               	movlw	low _lcd
  1516   000926  6E2E               	movwf	lcd_4bit_send_command@lcd^0,c
  1517   000928  0E01               	movlw	1
  1518   00092A  6E2F               	movwf	lcd_4bit_send_command@command^0,c
  1519   00092C  ECC4  F00F         	call	_lcd_4bit_send_command	;wreg free
  1520   000930  EFB4  F004         	goto	l5834
  1521   000934                     l5828:
  1522                           
  1523                           ; BSR set to: 1
  1524                           ;application.c: 41:                     Set_password();
  1525   000934  EC09  F000         	call	_Set_password	;wreg free
  1526                           
  1527                           ;application.c: 42:                     break;
  1528   000938  EFB4  F004         	goto	l5834
  1529   00093C                     l5832:
  1530   00093C  5050               	movf	_keypad_value^0,w,c
  1531   00093E  0101               	movlb	1	; () banked
  1532   000940  6F05               	movwf	??_main& (0+255),b
  1533   000942  6B06               	clrf	(??_main+1)& (0+255),b
  1534                           
  1535                           ; Switch on 2 bytes has been partitioned into a top level switch of size 1, and 1 sub-sw
      +                          itches
  1536                           ; Switch size 1, requested type "simple"
  1537                           ; Number of cases is 1, Range of values is 0 to 0
  1538                           ; switch strategies available:
  1539                           ; Name         Instructions Cycles
  1540                           ; simple_byte            4     3 (average)
  1541                           ;	Chosen strategy is simple_byte
  1542   000944  5106               	movf	(??_main+1)& (0+255),w,b
  1543   000946  0A00               	xorlw	0	; case 0
  1544   000948  B4D8               	btfsc	status,2,c
  1545   00094A  EFA9  F004         	goto	l6072
  1546   00094E  EFB4  F004         	goto	l5834
  1547   000952                     l6072:
  1548                           
  1549                           ; BSR set to: 1
  1550                           ; Switch size 1, requested type "simple"
  1551                           ; Number of cases is 2, Range of values is 1 to 2
  1552                           ; switch strategies available:
  1553                           ; Name         Instructions Cycles
  1554                           ; simple_byte            7     4 (average)
  1555                           ;	Chosen strategy is simple_byte
  1556   000952  5105               	movf	??_main& (0+255),w,b
  1557   000954  0A01               	xorlw	1	; case 1
  1558   000956  B4D8               	btfsc	status,2,c
  1559   000958  EF51  F004         	goto	l5812
  1560   00095C  0A03               	xorlw	3	; case 2
  1561   00095E  B4D8               	btfsc	status,2,c
  1562   000960  EF9A  F004         	goto	l5828
  1563   000964  EFB4  F004         	goto	l5834
  1564   000968                     l5834:
  1565                           
  1566                           ;application.c: 48:          _delay((unsigned long)((215)*(8000000UL/4000.0)));
  1567   000968  0E03               	movlw	3
  1568   00096A  0101               	movlb	1	; () banked
  1569   00096C  6F06               	movwf	(??_main+1)& (0+255),b
  1570   00096E  0E2F               	movlw	47
  1571   000970  6F05               	movwf	??_main& (0+255),b
  1572   000972  0E6D               	movlw	109
  1573   000974                     u4377:
  1574   000974  2EE8               	decfsz	wreg,f,c
  1575   000976  D7FE               	bra	u4377
  1576   000978  2F05               	decfsz	??_main& (0+255),f,b
  1577   00097A  D7FC               	bra	u4377
  1578   00097C  2F06               	decfsz	(??_main+1)& (0+255),f,b
  1579   00097E  D7FA               	bra	u4377
  1580   000980  EF1A  F004         	goto	l5800
  1581   000984  EF07  F000         	goto	start
  1582   000988                     __end_of_main:
  1583                           	callstack 0
  1584                           
  1585 ;; *************** function _welcome_message *****************
  1586 ;; Defined at:
  1587 ;;		line 25 in file "function.c"
  1588 ;; Parameters:    Size  Location     Type
  1589 ;;		None
  1590 ;; Auto vars:     Size  Location     Type
  1591 ;;		None
  1592 ;; Return value:  Size  Location     Type
  1593 ;;                  1    wreg      void 
  1594 ;; Registers used:
  1595 ;;		wreg, fsr0l, fsr0h, fsr2l, fsr2h, status,2, status,0, tblptrl, tblptrh, tblptru, prodl, prodh, cstack
  1596 ;; Tracked objects:
  1597 ;;		On entry : 0/0
  1598 ;;		On exit  : 0/0
  1599 ;;		Unchanged: 0/0
  1600 ;; Data sizes:     COMRAM   BANK0   BANK1   BANK2   BANK3   BANK4   BANK5   BANK6   BANK7   BANK8   BANK9  BANK10  BANK1
      +1  BANK12  BANK13  BANK14  BANK15
  1601 ;;      Params:         0       0       0       0       0       0       0       0       0       0       0       0       
      +0       0       0       0       0
  1602 ;;      Locals:         0       0       0       0       0       0       0       0       0       0       0       0       
      +0       0       0       0       0
  1603 ;;      Temps:          2       0       0       0       0       0       0       0       0       0       0       0       
      +0       0       0       0       0
  1604 ;;      Totals:         2       0       0       0       0       0       0       0       0       0       0       0       
      +0       0       0       0       0
  1605 ;;Total ram usage:        2 bytes
  1606 ;; Hardware stack levels used: 1
  1607 ;; Hardware stack levels required when called: 13
  1608 ;; This function calls:
  1609 ;;		_lcd_4bit_send_command
  1610 ;;		_lcd_4bit_send_string_pos
  1611 ;; This function is called by:
  1612 ;;		_main
  1613 ;; This function uses a non-reentrant model
  1614 ;;
  1615                           
  1616                           	psect	text1
  1617   00226A                     __ptext1:
  1618                           	callstack 0
  1619   00226A                     _welcome_message:
  1620                           	callstack 17
  1621   00226A                     
  1622                           ;function.c: 27:      lcd_4bit_send_string_pos(&lcd,2,7,"Welcome");
  1623   00226A  0E51               	movlw	low _lcd
  1624   00226C  0100               	movlb	0	; () banked
  1625   00226E  6FE2               	movwf	lcd_4bit_send_string_pos@lcd& (0+255),b
  1626   002270  0E02               	movlw	2
  1627   002272  6FE3               	movwf	lcd_4bit_send_string_pos@row& (0+255),b
  1628   002274  0E07               	movlw	7
  1629   002276  6FE4               	movwf	lcd_4bit_send_string_pos@column& (0+255),b
  1630   002278  0EEC               	movlw	low STR_9
  1631   00227A  6FE5               	movwf	lcd_4bit_send_string_pos@str& (0+255),b
  1632   00227C  0EFF               	movlw	high STR_9
  1633   00227E  6FE6               	movwf	(lcd_4bit_send_string_pos@str+1)& (0+255),b
  1634   002280  ECAE  F011         	call	_lcd_4bit_send_string_pos	;wreg free
  1635   002284                     
  1636                           ;function.c: 28:     _delay((unsigned long)((1000)*(8000000UL/4000.0)));
  1637   002284  0E0B               	movlw	11
  1638   002286  6E36               	movwf	(??_welcome_message+1)^0,c
  1639   002288  0E26               	movlw	38
  1640   00228A  6E35               	movwf	??_welcome_message^0,c
  1641   00228C  0E5E               	movlw	94
  1642   00228E                     u4387:
  1643   00228E  2EE8               	decfsz	wreg,f,c
  1644   002290  D7FE               	bra	u4387
  1645   002292  2E35               	decfsz	??_welcome_message^0,f,c
  1646   002294  D7FC               	bra	u4387
  1647   002296  2E36               	decfsz	(??_welcome_message+1)^0,f,c
  1648   002298  D7FA               	bra	u4387
  1649   00229A                     
  1650                           ;function.c: 29:     lcd_4bit_send_command(&lcd,0X01);
  1651   00229A  0E51               	movlw	low _lcd
  1652   00229C  6E2E               	movwf	lcd_4bit_send_command@lcd^0,c
  1653   00229E  0E01               	movlw	1
  1654   0022A0  6E2F               	movwf	lcd_4bit_send_command@command^0,c
  1655   0022A2  ECC4  F00F         	call	_lcd_4bit_send_command	;wreg free
  1656   0022A6  0012               	return		;funcret
  1657   0022A8                     __end_of_welcome_message:
  1658                           	callstack 0
  1659                           
  1660 ;; *************** function _intialization *****************
  1661 ;; Defined at:
  1662 ;;		line 14 in file "function.c"
  1663 ;; Parameters:    Size  Location     Type
  1664 ;;		None
  1665 ;; Auto vars:     Size  Location     Type
  1666 ;;		None
  1667 ;; Return value:  Size  Location     Type
  1668 ;;                  1    wreg      void 
  1669 ;; Registers used:
  1670 ;;		wreg, fsr2l, fsr2h, status,2, status,0, prodl, prodh, cstack
  1671 ;; Tracked objects:
  1672 ;;		On entry : 0/0
  1673 ;;		On exit  : 0/0
  1674 ;;		Unchanged: 0/0
  1675 ;; Data sizes:     COMRAM   BANK0   BANK1   BANK2   BANK3   BANK4   BANK5   BANK6   BANK7   BANK8   BANK9  BANK10  BANK1
      +1  BANK12  BANK13  BANK14  BANK15
  1676 ;;      Params:         0       0       0       0       0       0       0       0       0       0       0       0       
      +0       0       0       0       0
  1677 ;;      Locals:         0       0       0       0       0       0       0       0       0       0       0       0       
      +0       0       0       0       0
  1678 ;;      Temps:          0       0       0       0       0       0       0       0       0       0       0       0       
      +0       0       0       0       0
  1679 ;;      Totals:         0       0       0       0       0       0       0       0       0       0       0       0       
      +0       0       0       0       0
  1680 ;;Total ram usage:        0 bytes
  1681 ;; Hardware stack levels used: 1
  1682 ;; Hardware stack levels required when called: 12
  1683 ;; This function calls:
  1684 ;;		_Interrupt_INTx_Init
  1685 ;;		_gpio_pin_direction_intialize
  1686 ;;		_keypad_intialize
  1687 ;;		_lcd_4bit_intialize
  1688 ;;		_led_initialize
  1689 ;;		_motor_intialize
  1690 ;; This function is called by:
  1691 ;;		_main
  1692 ;; This function uses a non-reentrant model
  1693 ;;
  1694                           
  1695                           	psect	text2
  1696   002322                     __ptext2:
  1697                           	callstack 0
  1698   002322                     _intialization:
  1699                           	callstack 18
  1700   002322                     
  1701                           ;function.c: 16:     motor_intialize(&motor);
  1702   002322  0E57               	movlw	low _motor
  1703   002324  6E2B               	movwf	motor_intialize@motor^0,c
  1704   002326  ECB8  F012         	call	_motor_intialize	;wreg free
  1705                           
  1706                           ;function.c: 17:     led_initialize(&green_led);
  1707   00232A  0E5A               	movlw	low _green_led
  1708   00232C  6E2B               	movwf	led_initialize@led^0,c
  1709   00232E  EC70  F00E         	call	_led_initialize	;wreg free
  1710                           
  1711                           ;function.c: 18:     led_initialize(&red_led);
  1712   002332  0E59               	movlw	low _red_led
  1713   002334  6E2B               	movwf	led_initialize@led^0,c
  1714   002336  EC70  F00E         	call	_led_initialize	;wreg free
  1715                           
  1716                           ;function.c: 19:     lcd_4bit_intialize(&lcd);
  1717   00233A  0E51               	movlw	low _lcd
  1718   00233C  6E30               	movwf	lcd_4bit_intialize@lcd^0,c
  1719   00233E  EC4F  F00A         	call	_lcd_4bit_intialize	;wreg free
  1720                           
  1721                           ;function.c: 20:     keypad_intialize(&keypad);
  1722   002342  0ED4               	movlw	low _keypad
  1723   002344  6E2B               	movwf	keypad_intialize@keypad_obj^0,c
  1724   002346  EC6A  F00F         	call	_keypad_intialize	;wreg free
  1725                           
  1726                           ;function.c: 21:     gpio_pin_direction_intialize(&buzzer);
  1727   00234A  0E5B               	movlw	low _buzzer
  1728   00234C  6E24               	movwf	gpio_pin_direction_intialize@_pin_config^0,c
  1729   00234E  ECAB  F006         	call	_gpio_pin_direction_intialize	;wreg free
  1730                           
  1731                           ;function.c: 22:     Interrupt_INTx_Init(&int1_obj);
  1732   002352  0EDC               	movlw	low _int1_obj
  1733   002354  6E2C               	movwf	Interrupt_INTx_Init@int_obj^0,c
  1734   002356  ECCE  F010         	call	_Interrupt_INTx_Init	;wreg free
  1735   00235A  0012               	return		;funcret
  1736   00235C                     __end_of_intialization:
  1737                           	callstack 0
  1738                           
  1739 ;; *************** function _motor_intialize *****************
  1740 ;; Defined at:
  1741 ;;		line 12 in file "ECU_LAYER/DC_MOTOR/ecu_dc_motor.c"
  1742 ;; Parameters:    Size  Location     Type
  1743 ;;  motor           1   42[COMRAM] PTR const struct .
  1744 ;;		 -> motor(2), 
  1745 ;; Auto vars:     Size  Location     Type
  1746 ;;  ret             1    0        unsigned char 
  1747 ;; Return value:  Size  Location     Type
  1748 ;;                  1    wreg      unsigned char 
  1749 ;; Registers used:
  1750 ;;		wreg, fsr2l, fsr2h, status,2, status,0, prodl, prodh, cstack
  1751 ;; Tracked objects:
  1752 ;;		On entry : 0/0
  1753 ;;		On exit  : 0/0
  1754 ;;		Unchanged: 0/0
  1755 ;; Data sizes:     COMRAM   BANK0   BANK1   BANK2   BANK3   BANK4   BANK5   BANK6   BANK7   BANK8   BANK9  BANK10  BANK1
      +1  BANK12  BANK13  BANK14  BANK15
  1756 ;;      Params:         1       0       0       0       0       0       0       0       0       0       0       0       
      +0       0       0       0       0
  1757 ;;      Locals:         0       0       0       0       0       0       0       0       0       0       0       0       
      +0       0       0       0       0
  1758 ;;      Temps:          0       0       0       0       0       0       0       0       0       0       0       0       
      +0       0       0       0       0
  1759 ;;      Totals:         1       0       0       0       0       0       0       0       0       0       0       0       
      +0       0       0       0       0
  1760 ;;Total ram usage:        1 bytes
  1761 ;; Hardware stack levels used: 1
  1762 ;; Hardware stack levels required when called: 9
  1763 ;; This function calls:
  1764 ;;		_gpio_pin_direction_intialize
  1765 ;; This function is called by:
  1766 ;;		_intialization
  1767 ;; This function uses a non-reentrant model
  1768 ;;
  1769                           
  1770                           	psect	text3
  1771   002570                     __ptext3:
  1772                           	callstack 0
  1773   002570                     _motor_intialize:
  1774                           	callstack 20
  1775   002570                     
  1776                           ;ECU_LAYER/DC_MOTOR/ecu_dc_motor.c: 16:     if (((void*)0) == motor){
  1777   002570  502B               	movf	motor_intialize@motor^0,w,c
  1778   002572  A4D8               	btfss	status,2,c
  1779   002574  EFBE  F012         	goto	u2901
  1780   002578  EFC0  F012         	goto	u2900
  1781   00257C                     u2901:
  1782   00257C  EFC2  F012         	goto	l4040
  1783   002580                     u2900:
  1784   002580                     
  1785                           ;ECU_LAYER/DC_MOTOR/ecu_dc_motor.c: 18:     }
  1786   002580  EFCA  F012         	goto	l33
  1787   002584                     l4040:
  1788                           
  1789                           ;ECU_LAYER/DC_MOTOR/ecu_dc_motor.c: 21:         gpio_pin_direction_intialize(&(motor->mo
      +                          tor_config[0]));
  1790   002584  C02B  F024         	movff	motor_intialize@motor,gpio_pin_direction_intialize@_pin_config
  1791   002588  ECAB  F006         	call	_gpio_pin_direction_intialize	;wreg free
  1792                           
  1793                           ;ECU_LAYER/DC_MOTOR/ecu_dc_motor.c: 22:         gpio_pin_direction_intialize(&(motor->mo
      +                          tor_config[1]));
  1794   00258C  282B               	incf	motor_intialize@motor^0,w,c
  1795   00258E  6E24               	movwf	gpio_pin_direction_intialize@_pin_config^0,c
  1796   002590  ECAB  F006         	call	_gpio_pin_direction_intialize	;wreg free
  1797   002594                     l33:
  1798   002594  0012               	return		;funcret
  1799   002596                     __end_of_motor_intialize:
  1800                           	callstack 0
  1801                           
  1802 ;; *************** function _led_initialize *****************
  1803 ;; Defined at:
  1804 ;;		line 10 in file "ECU_LAYER/LED/ecu_led.c"
  1805 ;; Parameters:    Size  Location     Type
  1806 ;;  led             1   42[COMRAM] PTR const struct .
  1807 ;;		 -> red_led(1), green_led(1), 
  1808 ;; Auto vars:     Size  Location     Type
  1809 ;;  pin_obj         1   44[COMRAM] struct .
  1810 ;;  ret             1    0        unsigned char 
  1811 ;; Return value:  Size  Location     Type
  1812 ;;                  1    wreg      unsigned char 
  1813 ;; Registers used:
  1814 ;;		wreg, fsr2l, fsr2h, status,2, status,0, prodl, prodh, cstack
  1815 ;; Tracked objects:
  1816 ;;		On entry : 0/0
  1817 ;;		On exit  : 0/0
  1818 ;;		Unchanged: 0/0
  1819 ;; Data sizes:     COMRAM   BANK0   BANK1   BANK2   BANK3   BANK4   BANK5   BANK6   BANK7   BANK8   BANK9  BANK10  BANK1
      +1  BANK12  BANK13  BANK14  BANK15
  1820 ;;      Params:         1       0       0       0       0       0       0       0       0       0       0       0       
      +0       0       0       0       0
  1821 ;;      Locals:         1       0       0       0       0       0       0       0       0       0       0       0       
      +0       0       0       0       0
  1822 ;;      Temps:          1       0       0       0       0       0       0       0       0       0       0       0       
      +0       0       0       0       0
  1823 ;;      Totals:         3       0       0       0       0       0       0       0       0       0       0       0       
      +0       0       0       0       0
  1824 ;;Total ram usage:        3 bytes
  1825 ;; Hardware stack levels used: 1
  1826 ;; Hardware stack levels required when called: 9
  1827 ;; This function calls:
  1828 ;;		_gpio_pin_direction_intialize
  1829 ;; This function is called by:
  1830 ;;		_intialization
  1831 ;; This function uses a non-reentrant model
  1832 ;;
  1833                           
  1834                           	psect	text4
  1835   001CE0                     __ptext4:
  1836                           	callstack 0
  1837   001CE0                     _led_initialize:
  1838                           	callstack 20
  1839   001CE0                     
  1840                           ;ECU_LAYER/LED/ecu_led.c: 13:     if (((void*)0) == led){
  1841   001CE0  502B               	movf	led_initialize@led^0,w,c
  1842   001CE2  A4D8               	btfss	status,2,c
  1843   001CE4  EF76  F00E         	goto	u3061
  1844   001CE8  EF78  F00E         	goto	u3060
  1845   001CEC                     u3061:
  1846   001CEC  EF7A  F00E         	goto	l247
  1847   001CF0                     u3060:
  1848   001CF0                     
  1849                           ;ECU_LAYER/LED/ecu_led.c: 15:     }
  1850   001CF0  EFA2  F00E         	goto	l251
  1851   001CF4                     l247:
  1852                           
  1853                           ;ECU_LAYER/LED/ecu_led.c: 18:         pin_config_t pin_obj={
  1854   001CF4  C04A  F02D         	movff	led_initialize@F3060,led_initialize@pin_obj
  1855   001CF8  502B               	movf	led_initialize@led^0,w,c
  1856   001CFA  6ED9               	movwf	fsr2l,c
  1857   001CFC  6ADA               	clrf	fsr2h,c
  1858   001CFE  50DF               	movf	223,w,c
  1859   001D00  0B0F               	andlw	15
  1860   001D02  6E2C               	movwf	??_led_initialize^0,c
  1861   001D04  502D               	movf	led_initialize@pin_obj^0,w,c
  1862   001D06  182C               	xorwf	??_led_initialize^0,w,c
  1863   001D08  0BF8               	andlw	-8
  1864   001D0A  182C               	xorwf	??_led_initialize^0,w,c
  1865   001D0C  6E2D               	movwf	led_initialize@pin_obj^0,c
  1866   001D0E  502B               	movf	led_initialize@led^0,w,c
  1867   001D10  6ED9               	movwf	fsr2l,c
  1868   001D12  6ADA               	clrf	fsr2h,c
  1869   001D14  38DF               	swapf	223,w,c
  1870   001D16  0B07               	andlw	7
  1871   001D18  6E2C               	movwf	??_led_initialize^0,c
  1872   001D1A  462C               	rlncf	??_led_initialize^0,f,c
  1873   001D1C  462C               	rlncf	??_led_initialize^0,f,c
  1874   001D1E  462C               	rlncf	??_led_initialize^0,f,c
  1875   001D20  502D               	movf	led_initialize@pin_obj^0,w,c
  1876   001D22  182C               	xorwf	??_led_initialize^0,w,c
  1877   001D24  0BC7               	andlw	-57
  1878   001D26  182C               	xorwf	??_led_initialize^0,w,c
  1879   001D28  6E2D               	movwf	led_initialize@pin_obj^0,c
  1880   001D2A  9C2D               	bcf	led_initialize@pin_obj^0,6,c
  1881   001D2C  502B               	movf	led_initialize@led^0,w,c
  1882   001D2E  6ED9               	movwf	fsr2l,c
  1883   001D30  6ADA               	clrf	fsr2h,c
  1884   001D32  AEDF               	btfss	indf2,7,c
  1885   001D34  D002               	bra	u3075
  1886   001D36  8E2D               	bsf	led_initialize@pin_obj^0,7,c
  1887   001D38  D001               	bra	u3077
  1888   001D3A                     u3075:
  1889   001D3A  9E2D               	bcf	led_initialize@pin_obj^0,7,c
  1890   001D3C                     u3077:
  1891   001D3C                     
  1892                           ;ECU_LAYER/LED/ecu_led.c: 26:         gpio_pin_direction_intialize(&pin_obj);
  1893   001D3C  0E2D               	movlw	low led_initialize@pin_obj
  1894   001D3E  6E24               	movwf	gpio_pin_direction_intialize@_pin_config^0,c
  1895   001D40  ECAB  F006         	call	_gpio_pin_direction_intialize	;wreg free
  1896   001D44                     l251:
  1897   001D44  0012               	return		;funcret
  1898   001D46                     __end_of_led_initialize:
  1899                           	callstack 0
  1900                           
  1901 ;; *************** function _lcd_4bit_intialize *****************
  1902 ;; Defined at:
  1903 ;;		line 18 in file "ECU_LAYER/LCD/ecu_lcd.c"
  1904 ;; Parameters:    Size  Location     Type
  1905 ;;  lcd             1   47[COMRAM] PTR const struct .
  1906 ;;		 -> lcd(6), 
  1907 ;; Auto vars:     Size  Location     Type
  1908 ;;  ret             1   49[COMRAM] unsigned char 
  1909 ;; Return value:  Size  Location     Type
  1910 ;;                  1    wreg      unsigned char 
  1911 ;; Registers used:
  1912 ;;		wreg, fsr2l, fsr2h, status,2, status,0, prodl, prodh, cstack
  1913 ;; Tracked objects:
  1914 ;;		On entry : 0/0
  1915 ;;		On exit  : 0/0
  1916 ;;		Unchanged: 0/0
  1917 ;; Data sizes:     COMRAM   BANK0   BANK1   BANK2   BANK3   BANK4   BANK5   BANK6   BANK7   BANK8   BANK9  BANK10  BANK1
      +1  BANK12  BANK13  BANK14  BANK15
  1918 ;;      Params:         1       0       0       0       0       0       0       0       0       0       0       0       
      +0       0       0       0       0
  1919 ;;      Locals:         1       0       0       0       0       0       0       0       0       0       0       0       
      +0       0       0       0       0
  1920 ;;      Temps:          1       0       0       0       0       0       0       0       0       0       0       0       
      +0       0       0       0       0
  1921 ;;      Totals:         3       0       0       0       0       0       0       0       0       0       0       0       
      +0       0       0       0       0
  1922 ;;Total ram usage:        3 bytes
  1923 ;; Hardware stack levels used: 1
  1924 ;; Hardware stack levels required when called: 11
  1925 ;; This function calls:
  1926 ;;		_gpio_pin_intialize
  1927 ;;		_lcd_4bit_send_command
  1928 ;; This function is called by:
  1929 ;;		_intialization
  1930 ;; This function uses a non-reentrant model
  1931 ;;
  1932                           
  1933                           	psect	text5
  1934   00149E                     __ptext5:
  1935                           	callstack 0
  1936   00149E                     _lcd_4bit_intialize:
  1937                           	callstack 18
  1938   00149E                     
  1939                           ;ECU_LAYER/LCD/ecu_lcd.c: 22:     if (((void*)0) == lcd ){
  1940   00149E  5030               	movf	lcd_4bit_intialize@lcd^0,w,c
  1941   0014A0  A4D8               	btfss	status,2,c
  1942   0014A2  EF55  F00A         	goto	u3001
  1943   0014A6  EF57  F00A         	goto	u3000
  1944   0014AA                     u3001:
  1945   0014AA  EF59  F00A         	goto	l4128
  1946   0014AE                     u3000:
  1947   0014AE                     
  1948                           ;ECU_LAYER/LCD/ecu_lcd.c: 24:     }
  1949   0014AE  EFBF  F00A         	goto	l113
  1950   0014B2                     l4128:
  1951                           
  1952                           ;ECU_LAYER/LCD/ecu_lcd.c: 27:         ret=gpio_pin_intialize(&(lcd->lcd_rs));
  1953   0014B2  C030  F02C         	movff	lcd_4bit_intialize@lcd,gpio_pin_intialize@_pin_config
  1954   0014B6  EC9A  F00F         	call	_gpio_pin_intialize	;wreg free
  1955   0014BA  6E32               	movwf	lcd_4bit_intialize@ret^0,c
  1956                           
  1957                           ;ECU_LAYER/LCD/ecu_lcd.c: 28:         ret=gpio_pin_intialize(&(lcd->lcd_en));
  1958   0014BC  2830               	incf	lcd_4bit_intialize@lcd^0,w,c
  1959   0014BE  6E2C               	movwf	gpio_pin_intialize@_pin_config^0,c
  1960   0014C0  EC9A  F00F         	call	_gpio_pin_intialize	;wreg free
  1961   0014C4  6E32               	movwf	lcd_4bit_intialize@ret^0,c
  1962   0014C6                     
  1963                           ;ECU_LAYER/LCD/ecu_lcd.c: 29:         for(lcd_counter=0;lcd_counter<4;lcd_counter++){
  1964   0014C6  0E00               	movlw	0
  1965   0014C8  6E4B               	movwf	_lcd_counter^0,c
  1966   0014CA                     l4132:
  1967   0014CA  0E03               	movlw	3
  1968   0014CC  644B               	cpfsgt	_lcd_counter^0,c
  1969   0014CE  EF6B  F00A         	goto	u3011
  1970   0014D2  EF6D  F00A         	goto	u3010
  1971   0014D6                     u3011:
  1972   0014D6  EF6F  F00A         	goto	l4136
  1973   0014DA                     u3010:
  1974   0014DA  EF78  F00A         	goto	l4142
  1975   0014DE                     l4136:
  1976   0014DE  5030               	movf	lcd_4bit_intialize@lcd^0,w,c
  1977   0014E0  244B               	addwf	_lcd_counter^0,w,c
  1978   0014E2  0F02               	addlw	2
  1979   0014E4  6E2C               	movwf	gpio_pin_intialize@_pin_config^0,c
  1980   0014E6  EC9A  F00F         	call	_gpio_pin_intialize	;wreg free
  1981   0014EA                     
  1982                           ;ECU_LAYER/LCD/ecu_lcd.c: 31:         }
  1983   0014EA  2A4B               	incf	_lcd_counter^0,f,c
  1984   0014EC  EF65  F00A         	goto	l4132
  1985   0014F0                     l4142:
  1986                           
  1987                           ;ECU_LAYER/LCD/ecu_lcd.c: 33:          _delay((unsigned long)((20)*(8000000UL/4000.0)));
  1988   0014F0  0E34               	movlw	52
  1989   0014F2  6E31               	movwf	??_lcd_4bit_intialize^0,c
  1990   0014F4  0EF2               	movlw	242
  1991   0014F6                     u4397:
  1992   0014F6  2EE8               	decfsz	wreg,f,c
  1993   0014F8  D7FE               	bra	u4397
  1994   0014FA  2E31               	decfsz	??_lcd_4bit_intialize^0,f,c
  1995   0014FC  D7FC               	bra	u4397
  1996   0014FE                     
  1997                           ;ECU_LAYER/LCD/ecu_lcd.c: 34:         lcd_4bit_send_command(lcd,0X38);
  1998   0014FE  C030  F02E         	movff	lcd_4bit_intialize@lcd,lcd_4bit_send_command@lcd
  1999   001502  0E38               	movlw	56
  2000   001504  6E2F               	movwf	lcd_4bit_send_command@command^0,c
  2001   001506  ECC4  F00F         	call	_lcd_4bit_send_command	;wreg free
  2002   00150A                     
  2003                           ;ECU_LAYER/LCD/ecu_lcd.c: 35:          _delay((unsigned long)((5)*(8000000UL/4000.0)));
  2004   00150A  0E0D               	movlw	13
  2005   00150C  6E31               	movwf	??_lcd_4bit_intialize^0,c
  2006   00150E  0EFC               	movlw	252
  2007   001510                     u4407:
  2008   001510  2EE8               	decfsz	wreg,f,c
  2009   001512  D7FE               	bra	u4407
  2010   001514  2E31               	decfsz	??_lcd_4bit_intialize^0,f,c
  2011   001516  D7FC               	bra	u4407
  2012                           
  2013                           ;ECU_LAYER/LCD/ecu_lcd.c: 36:         lcd_4bit_send_command(lcd,0X38);
  2014   001518  C030  F02E         	movff	lcd_4bit_intialize@lcd,lcd_4bit_send_command@lcd
  2015   00151C  0E38               	movlw	56
  2016   00151E  6E2F               	movwf	lcd_4bit_send_command@command^0,c
  2017   001520  ECC4  F00F         	call	_lcd_4bit_send_command	;wreg free
  2018   001524                     
  2019                           ;ECU_LAYER/LCD/ecu_lcd.c: 37:          _delay((unsigned long)((150)*(8000000UL/4000000.0
      +                          )));
  2020   001524  0E64               	movlw	100
  2021   001526                     u4417:
  2022   001526  2EE8               	decfsz	wreg,f,c
  2023   001528  D7FE               	bra	u4417
  2024   00152A                     
  2025                           ;ECU_LAYER/LCD/ecu_lcd.c: 38:         lcd_4bit_send_command(lcd,0X38);
  2026   00152A  C030  F02E         	movff	lcd_4bit_intialize@lcd,lcd_4bit_send_command@lcd
  2027   00152E  0E38               	movlw	56
  2028   001530  6E2F               	movwf	lcd_4bit_send_command@command^0,c
  2029   001532  ECC4  F00F         	call	_lcd_4bit_send_command	;wreg free
  2030   001536                     
  2031                           ;ECU_LAYER/LCD/ecu_lcd.c: 40:          lcd_4bit_send_command(lcd,0X01);
  2032   001536  C030  F02E         	movff	lcd_4bit_intialize@lcd,lcd_4bit_send_command@lcd
  2033   00153A  0E01               	movlw	1
  2034   00153C  6E2F               	movwf	lcd_4bit_send_command@command^0,c
  2035   00153E  ECC4  F00F         	call	_lcd_4bit_send_command	;wreg free
  2036   001542                     
  2037                           ;ECU_LAYER/LCD/ecu_lcd.c: 41:          lcd_4bit_send_command(lcd,0X02);
  2038   001542  C030  F02E         	movff	lcd_4bit_intialize@lcd,lcd_4bit_send_command@lcd
  2039   001546  0E02               	movlw	2
  2040   001548  6E2F               	movwf	lcd_4bit_send_command@command^0,c
  2041   00154A  ECC4  F00F         	call	_lcd_4bit_send_command	;wreg free
  2042   00154E                     
  2043                           ;ECU_LAYER/LCD/ecu_lcd.c: 42:          lcd_4bit_send_command(lcd,0X06);
  2044   00154E  C030  F02E         	movff	lcd_4bit_intialize@lcd,lcd_4bit_send_command@lcd
  2045   001552  0E06               	movlw	6
  2046   001554  6E2F               	movwf	lcd_4bit_send_command@command^0,c
  2047   001556  ECC4  F00F         	call	_lcd_4bit_send_command	;wreg free
  2048   00155A                     
  2049                           ;ECU_LAYER/LCD/ecu_lcd.c: 43:          lcd_4bit_send_command(lcd,0X0C);
  2050   00155A  C030  F02E         	movff	lcd_4bit_intialize@lcd,lcd_4bit_send_command@lcd
  2051   00155E  0E0C               	movlw	12
  2052   001560  6E2F               	movwf	lcd_4bit_send_command@command^0,c
  2053   001562  ECC4  F00F         	call	_lcd_4bit_send_command	;wreg free
  2054   001566                     
  2055                           ;ECU_LAYER/LCD/ecu_lcd.c: 45:          lcd_4bit_send_command(lcd,0X28);
  2056   001566  C030  F02E         	movff	lcd_4bit_intialize@lcd,lcd_4bit_send_command@lcd
  2057   00156A  0E28               	movlw	40
  2058   00156C  6E2F               	movwf	lcd_4bit_send_command@command^0,c
  2059   00156E  ECC4  F00F         	call	_lcd_4bit_send_command	;wreg free
  2060   001572                     
  2061                           ;ECU_LAYER/LCD/ecu_lcd.c: 46:          lcd_4bit_send_command(lcd,0X80);
  2062   001572  C030  F02E         	movff	lcd_4bit_intialize@lcd,lcd_4bit_send_command@lcd
  2063   001576  0E80               	movlw	128
  2064   001578  6E2F               	movwf	lcd_4bit_send_command@command^0,c
  2065   00157A  ECC4  F00F         	call	_lcd_4bit_send_command	;wreg free
  2066   00157E                     l113:
  2067   00157E  0012               	return		;funcret
  2068   001580                     __end_of_lcd_4bit_intialize:
  2069                           	callstack 0
  2070                           
  2071 ;; *************** function _gpio_pin_intialize *****************
  2072 ;; Defined at:
  2073 ;;		line 197 in file "MCAL_LAYER/GPIO/hal_gpio.c"
  2074 ;; Parameters:    Size  Location     Type
  2075 ;;  _pin_config     1   43[COMRAM] PTR const struct .
  2076 ;;		 -> lcd$lcd_data(4), lcd(6), 
  2077 ;; Auto vars:     Size  Location     Type
  2078 ;;  ret             1   45[COMRAM] unsigned char 
  2079 ;; Return value:  Size  Location     Type
  2080 ;;                  1    wreg      unsigned char 
  2081 ;; Registers used:
  2082 ;;		wreg, fsr2l, fsr2h, status,2, status,0, prodl, prodh, cstack
  2083 ;; Tracked objects:
  2084 ;;		On entry : 0/0
  2085 ;;		On exit  : 0/0
  2086 ;;		Unchanged: 0/0
  2087 ;; Data sizes:     COMRAM   BANK0   BANK1   BANK2   BANK3   BANK4   BANK5   BANK6   BANK7   BANK8   BANK9  BANK10  BANK1
      +1  BANK12  BANK13  BANK14  BANK15
  2088 ;;      Params:         1       0       0       0       0       0       0       0       0       0       0       0       
      +0       0       0       0       0
  2089 ;;      Locals:         1       0       0       0       0       0       0       0       0       0       0       0       
      +0       0       0       0       0
  2090 ;;      Temps:          1       0       0       0       0       0       0       0       0       0       0       0       
      +0       0       0       0       0
  2091 ;;      Totals:         3       0       0       0       0       0       0       0       0       0       0       0       
      +0       0       0       0       0
  2092 ;;Total ram usage:        3 bytes
  2093 ;; Hardware stack levels used: 1
  2094 ;; Hardware stack levels required when called: 9
  2095 ;; This function calls:
  2096 ;;		_gpio_pin_Write_logic
  2097 ;;		_gpio_pin_direction_intialize
  2098 ;; This function is called by:
  2099 ;;		_lcd_4bit_intialize
  2100 ;;		_lcd_8bit_intialize
  2101 ;; This function uses a non-reentrant model
  2102 ;;
  2103                           
  2104                           	psect	text6
  2105   001F34                     __ptext6:
  2106                           	callstack 0
  2107   001F34                     _gpio_pin_intialize:
  2108                           	callstack 19
  2109   001F34                     
  2110                           ;MCAL_LAYER/GPIO/hal_gpio.c: 199:     Std_ReturnType ret = (Std_ReturnType) 0x01;
  2111   001F34  0E01               	movlw	1
  2112   001F36  6E2E               	movwf	gpio_pin_intialize@ret^0,c
  2113                           
  2114                           ;MCAL_LAYER/GPIO/hal_gpio.c: 200:     if (((void*)0) == _pin_config || _pin_config->pin 
      +                          > (8 -1)){
  2115   001F38  502C               	movf	gpio_pin_intialize@_pin_config^0,w,c
  2116   001F3A  B4D8               	btfsc	status,2,c
  2117   001F3C  EFA2  F00F         	goto	u2571
  2118   001F40  EFA4  F00F         	goto	u2570
  2119   001F44                     u2571:
  2120   001F44  EFB4  F00F         	goto	l3718
  2121   001F48                     u2570:
  2122   001F48  502C               	movf	gpio_pin_intialize@_pin_config^0,w,c
  2123   001F4A  6ED9               	movwf	fsr2l,c
  2124   001F4C  6ADA               	clrf	fsr2h,c
  2125   001F4E  30DF               	rrcf	223,w,c
  2126   001F50  32E8               	rrcf	wreg,f,c
  2127   001F52  32E8               	rrcf	wreg,f,c
  2128   001F54  0B07               	andlw	7
  2129   001F56  6E2D               	movwf	??_gpio_pin_intialize^0,c
  2130   001F58  0E07               	movlw	7
  2131   001F5A  642D               	cpfsgt	??_gpio_pin_intialize^0,c
  2132   001F5C  EFB2  F00F         	goto	u2581
  2133   001F60  EFB4  F00F         	goto	u2580
  2134   001F64                     u2581:
  2135   001F64  EFB8  F00F         	goto	l3720
  2136   001F68                     u2580:
  2137   001F68                     l3718:
  2138                           
  2139                           ;MCAL_LAYER/GPIO/hal_gpio.c: 201:         ret=(Std_ReturnType) 0x00;
  2140   001F68  0E00               	movlw	0
  2141   001F6A  6E2E               	movwf	gpio_pin_intialize@ret^0,c
  2142                           
  2143                           ;MCAL_LAYER/GPIO/hal_gpio.c: 202:     }
  2144   001F6C  EFC2  F00F         	goto	l3722
  2145   001F70                     l3720:
  2146                           
  2147                           ;MCAL_LAYER/GPIO/hal_gpio.c: 204:         gpio_pin_direction_intialize(_pin_config);
  2148   001F70  C02C  F024         	movff	gpio_pin_intialize@_pin_config,gpio_pin_direction_intialize@_pin_config
  2149   001F74  ECAB  F006         	call	_gpio_pin_direction_intialize	;wreg free
  2150                           
  2151                           ;MCAL_LAYER/GPIO/hal_gpio.c: 205:         gpio_pin_Write_logic(_pin_config,LOW);
  2152   001F78  C02C  F024         	movff	gpio_pin_intialize@_pin_config,gpio_pin_Write_logic@_pin_config
  2153   001F7C  0E00               	movlw	0
  2154   001F7E  6E25               	movwf	gpio_pin_Write_logic@logic^0,c
  2155   001F80  EC58  F008         	call	_gpio_pin_Write_logic	;wreg free
  2156   001F84                     l3722:
  2157                           
  2158                           ;MCAL_LAYER/GPIO/hal_gpio.c: 208:     return ret;
  2159   001F84  502E               	movf	gpio_pin_intialize@ret^0,w,c
  2160   001F86  0012               	return		;funcret
  2161   001F88                     __end_of_gpio_pin_intialize:
  2162                           	callstack 0
  2163                           
  2164 ;; *************** function _keypad_intialize *****************
  2165 ;; Defined at:
  2166 ;;		line 15 in file "ECU_LAYER/KEYPAD/ecu_keypad.c"
  2167 ;; Parameters:    Size  Location     Type
  2168 ;;  keypad_obj      1   42[COMRAM] PTR const struct .
  2169 ;;		 -> keypad(8), 
  2170 ;; Auto vars:     Size  Location     Type
  2171 ;;  columns_coun    1   45[COMRAM] unsigned char 
  2172 ;;  rows_counter    1   44[COMRAM] unsigned char 
  2173 ;;  ret             1   43[COMRAM] unsigned char 
  2174 ;; Return value:  Size  Location     Type
  2175 ;;                  1    wreg      unsigned char 
  2176 ;; Registers used:
  2177 ;;		wreg, fsr2l, fsr2h, status,2, status,0, prodl, prodh, cstack
  2178 ;; Tracked objects:
  2179 ;;		On entry : 0/0
  2180 ;;		On exit  : 0/0
  2181 ;;		Unchanged: 0/0
  2182 ;; Data sizes:     COMRAM   BANK0   BANK1   BANK2   BANK3   BANK4   BANK5   BANK6   BANK7   BANK8   BANK9  BANK10  BANK1
      +1  BANK12  BANK13  BANK14  BANK15
  2183 ;;      Params:         1       0       0       0       0       0       0       0       0       0       0       0       
      +0       0       0       0       0
  2184 ;;      Locals:         3       0       0       0       0       0       0       0       0       0       0       0       
      +0       0       0       0       0
  2185 ;;      Temps:          0       0       0       0       0       0       0       0       0       0       0       0       
      +0       0       0       0       0
  2186 ;;      Totals:         4       0       0       0       0       0       0       0       0       0       0       0       
      +0       0       0       0       0
  2187 ;;Total ram usage:        4 bytes
  2188 ;; Hardware stack levels used: 1
  2189 ;; Hardware stack levels required when called: 9
  2190 ;; This function calls:
  2191 ;;		_gpio_pin_direction_intialize
  2192 ;; This function is called by:
  2193 ;;		_intialization
  2194 ;; This function uses a non-reentrant model
  2195 ;;
  2196                           
  2197                           	psect	text7
  2198   001ED4                     __ptext7:
  2199                           	callstack 0
  2200   001ED4                     _keypad_intialize:
  2201                           	callstack 20
  2202   001ED4  0E00               	movlw	0
  2203   001ED6  6E2E               	movwf	keypad_intialize@columns_counter^0,c
  2204                           
  2205                           ;ECU_LAYER/KEYPAD/ecu_keypad.c: 17:     Std_ReturnType ret = (Std_ReturnType) 0x01;
  2206   001ED8  0E01               	movlw	1
  2207   001EDA  6E2C               	movwf	keypad_intialize@ret^0,c
  2208                           
  2209                           ;ECU_LAYER/KEYPAD/ecu_keypad.c: 18:     if (((void*)0) == keypad_obj ){
  2210   001EDC  502B               	movf	keypad_intialize@keypad_obj^0,w,c
  2211   001EDE  A4D8               	btfss	status,2,c
  2212   001EE0  EF74  F00F         	goto	u2911
  2213   001EE4  EF76  F00F         	goto	u2910
  2214   001EE8                     u2911:
  2215   001EE8  EF78  F00F         	goto	l4048
  2216   001EEC                     u2910:
  2217   001EEC                     
  2218                           ;ECU_LAYER/KEYPAD/ecu_keypad.c: 20:     }
  2219   001EEC  EF99  F00F         	goto	l67
  2220   001EF0                     l4048:
  2221                           
  2222                           ;ECU_LAYER/KEYPAD/ecu_keypad.c: 22:         for(rows_counter=0;rows_counter<4;rows_count
      +                          er++){
  2223   001EF0  0E00               	movlw	0
  2224   001EF2  6E2D               	movwf	keypad_intialize@rows_counter^0,c
  2225   001EF4                     l4054:
  2226   001EF4  502B               	movf	keypad_intialize@keypad_obj^0,w,c
  2227   001EF6  242D               	addwf	keypad_intialize@rows_counter^0,w,c
  2228   001EF8  6E24               	movwf	gpio_pin_direction_intialize@_pin_config^0,c
  2229   001EFA  ECAB  F006         	call	_gpio_pin_direction_intialize	;wreg free
  2230   001EFE                     
  2231                           ;ECU_LAYER/KEYPAD/ecu_keypad.c: 24:         }
  2232   001EFE  2A2D               	incf	keypad_intialize@rows_counter^0,f,c
  2233   001F00  0E03               	movlw	3
  2234   001F02  642D               	cpfsgt	keypad_intialize@rows_counter^0,c
  2235   001F04  EF86  F00F         	goto	u2921
  2236   001F08  EF88  F00F         	goto	u2920
  2237   001F0C                     u2921:
  2238   001F0C  EF7A  F00F         	goto	l4054
  2239   001F10                     u2920:
  2240   001F10                     
  2241                           ;ECU_LAYER/KEYPAD/ecu_keypad.c: 25:         for(columns_counter=0;columns_counter<4;colu
      +                          mns_counter++){
  2242   001F10  0E00               	movlw	0
  2243   001F12  6E2E               	movwf	keypad_intialize@columns_counter^0,c
  2244   001F14                     l4066:
  2245   001F14  502B               	movf	keypad_intialize@keypad_obj^0,w,c
  2246   001F16  242E               	addwf	keypad_intialize@columns_counter^0,w,c
  2247   001F18  0F04               	addlw	4
  2248   001F1A  6E24               	movwf	gpio_pin_direction_intialize@_pin_config^0,c
  2249   001F1C  ECAB  F006         	call	_gpio_pin_direction_intialize	;wreg free
  2250   001F20                     
  2251                           ;ECU_LAYER/KEYPAD/ecu_keypad.c: 27:         }
  2252   001F20  2A2E               	incf	keypad_intialize@columns_counter^0,f,c
  2253   001F22  0E03               	movlw	3
  2254   001F24  642E               	cpfsgt	keypad_intialize@columns_counter^0,c
  2255   001F26  EF97  F00F         	goto	u2931
  2256   001F2A  EF99  F00F         	goto	u2930
  2257   001F2E                     u2931:
  2258   001F2E  EF8A  F00F         	goto	l4066
  2259   001F32                     u2930:
  2260   001F32                     l67:
  2261   001F32  0012               	return		;funcret
  2262   001F34                     __end_of_keypad_intialize:
  2263                           	callstack 0
  2264                           
  2265 ;; *************** function _Interrupt_INTx_Init *****************
  2266 ;; Defined at:
  2267 ;;		line 39 in file "MCAL_LAYER/interrupt/mcal_external_interrupt.c"
  2268 ;; Parameters:    Size  Location     Type
  2269 ;;  int_obj         1   43[COMRAM] PTR const struct .
  2270 ;;		 -> int1_obj(6), 
  2271 ;; Auto vars:     Size  Location     Type
  2272 ;;  ret             1    0        unsigned char 
  2273 ;; Return value:  Size  Location     Type
  2274 ;;                  1    wreg      unsigned char 
  2275 ;; Registers used:
  2276 ;;		wreg, fsr2l, fsr2h, status,2, status,0, prodl, prodh, cstack
  2277 ;; Tracked objects:
  2278 ;;		On entry : 0/0
  2279 ;;		On exit  : 0/0
  2280 ;;		Unchanged: 0/0
  2281 ;; Data sizes:     COMRAM   BANK0   BANK1   BANK2   BANK3   BANK4   BANK5   BANK6   BANK7   BANK8   BANK9  BANK10  BANK1
      +1  BANK12  BANK13  BANK14  BANK15
  2282 ;;      Params:         1       0       0       0       0       0       0       0       0       0       0       0       
      +0       0       0       0       0
  2283 ;;      Locals:         0       0       0       0       0       0       0       0       0       0       0       0       
      +0       0       0       0       0
  2284 ;;      Temps:          0       0       0       0       0       0       0       0       0       0       0       0       
      +0       0       0       0       0
  2285 ;;      Totals:         1       0       0       0       0       0       0       0       0       0       0       0       
      +0       0       0       0       0
  2286 ;;Total ram usage:        1 bytes
  2287 ;; Hardware stack levels used: 1
  2288 ;; Hardware stack levels required when called: 10
  2289 ;; This function calls:
  2290 ;;		_Interrupt_INTx_ClearFlag
  2291 ;;		_Interrupt_INTx_Disable
  2292 ;;		_Interrupt_INTx_Edge_Init
  2293 ;;		_Interrupt_INTx_Enable
  2294 ;;		_Interrupt_INTx_Pin_Init
  2295 ;;		_SetInterruptHandler
  2296 ;; This function is called by:
  2297 ;;		_intialization
  2298 ;; This function uses a non-reentrant model
  2299 ;;
  2300                           
  2301                           	psect	text8
  2302   00219C                     __ptext8:
  2303                           	callstack 0
  2304   00219C                     _Interrupt_INTx_Init:
  2305                           	callstack 19
  2306   00219C                     
  2307                           ;MCAL_LAYER/interrupt/mcal_external_interrupt.c: 43:     if (((void*)0) == int_obj ){
  2308   00219C  502C               	movf	Interrupt_INTx_Init@int_obj^0,w,c
  2309   00219E  A4D8               	btfss	status,2,c
  2310   0021A0  EFD4  F010         	goto	u3081
  2311   0021A4  EFD6  F010         	goto	u3080
  2312   0021A8                     u3081:
  2313   0021A8  EFD8  F010         	goto	l4224
  2314   0021AC                     u3080:
  2315   0021AC                     
  2316                           ;MCAL_LAYER/interrupt/mcal_external_interrupt.c: 45:     }
  2317   0021AC  EFF0  F010         	goto	l451
  2318   0021B0                     l4224:
  2319                           
  2320                           ;MCAL_LAYER/interrupt/mcal_external_interrupt.c: 48:         Interrupt_INTx_Disable(int_
      +                          obj);
  2321   0021B0  C02C  F024         	movff	Interrupt_INTx_Init@int_obj,Interrupt_INTx_Disable@int_obj
  2322   0021B4  ECA3  F00E         	call	_Interrupt_INTx_Disable	;wreg free
  2323                           
  2324                           ;MCAL_LAYER/interrupt/mcal_external_interrupt.c: 49:         Interrupt_INTx_ClearFlag(in
      +                          t_obj);
  2325   0021B8  C02C  F024         	movff	Interrupt_INTx_Init@int_obj,Interrupt_INTx_ClearFlag@int_obj
  2326   0021BC  ECD5  F00E         	call	_Interrupt_INTx_ClearFlag	;wreg free
  2327                           
  2328                           ;MCAL_LAYER/interrupt/mcal_external_interrupt.c: 50:         Interrupt_INTx_Edge_Init(in
      +                          t_obj);
  2329   0021C0  C02C  F024         	movff	Interrupt_INTx_Init@int_obj,Interrupt_INTx_Edge_Init@int_obj
  2330   0021C4  ECCF  F007         	call	_Interrupt_INTx_Edge_Init	;wreg free
  2331   0021C8                     
  2332                           ;MCAL_LAYER/interrupt/mcal_external_interrupt.c: 54:         Interrupt_INTx_Pin_Init(int
      +                          _obj);
  2333   0021C8  C02C  F02B         	movff	Interrupt_INTx_Init@int_obj,Interrupt_INTx_Pin_Init@int_obj
  2334   0021CC  EC30  F013         	call	_Interrupt_INTx_Pin_Init	;wreg free
  2335   0021D0                     
  2336                           ;MCAL_LAYER/interrupt/mcal_external_interrupt.c: 55:         SetInterruptHandler(int_obj
      +                          );
  2337   0021D0  C02C  F026         	movff	Interrupt_INTx_Init@int_obj,SetInterruptHandler@int_obj
  2338   0021D4  ECCF  F00B         	call	_SetInterruptHandler	;wreg free
  2339   0021D8                     
  2340                           ;MCAL_LAYER/interrupt/mcal_external_interrupt.c: 56:         Interrupt_INTx_Enable(int_o
      +                          bj);
  2341   0021D8  C02C  F024         	movff	Interrupt_INTx_Init@int_obj,Interrupt_INTx_Enable@int_obj
  2342   0021DC  EC99  F00D         	call	_Interrupt_INTx_Enable	;wreg free
  2343   0021E0                     l451:
  2344   0021E0  0012               	return		;funcret
  2345   0021E2                     __end_of_Interrupt_INTx_Init:
  2346                           	callstack 0
  2347                           
  2348 ;; *************** function _SetInterruptHandler *****************
  2349 ;; Defined at:
  2350 ;;		line 454 in file "MCAL_LAYER/interrupt/mcal_external_interrupt.c"
  2351 ;; Parameters:    Size  Location     Type
  2352 ;;  int_obj         1   37[COMRAM] PTR const struct .
  2353 ;;		 -> int1_obj(6), 
  2354 ;; Auto vars:     Size  Location     Type
  2355 ;;  ret             1    0        unsigned char 
  2356 ;; Return value:  Size  Location     Type
  2357 ;;                  1    wreg      unsigned char 
  2358 ;; Registers used:
  2359 ;;		wreg, fsr2l, fsr2h, status,2, status,0, cstack
  2360 ;; Tracked objects:
  2361 ;;		On entry : 0/0
  2362 ;;		On exit  : 0/0
  2363 ;;		Unchanged: 0/0
  2364 ;; Data sizes:     COMRAM   BANK0   BANK1   BANK2   BANK3   BANK4   BANK5   BANK6   BANK7   BANK8   BANK9  BANK10  BANK1
      +1  BANK12  BANK13  BANK14  BANK15
  2365 ;;      Params:         1       0       0       0       0       0       0       0       0       0       0       0       
      +0       0       0       0       0
  2366 ;;      Locals:         0       0       0       0       0       0       0       0       0       0       0       0       
      +0       0       0       0       0
  2367 ;;      Temps:          2       0       0       0       0       0       0       0       0       0       0       0       
      +0       0       0       0       0
  2368 ;;      Totals:         3       0       0       0       0       0       0       0       0       0       0       0       
      +0       0       0       0       0
  2369 ;;Total ram usage:        3 bytes
  2370 ;; Hardware stack levels used: 1
  2371 ;; Hardware stack levels required when called: 9
  2372 ;; This function calls:
  2373 ;;		_INT0_SetInterruptHandler
  2374 ;;		_INT1_SetInterruptHandler
  2375 ;;		_INT2_SetInterruptHandler
  2376 ;; This function is called by:
  2377 ;;		_Interrupt_INTx_Init
  2378 ;; This function uses a non-reentrant model
  2379 ;;
  2380                           
  2381                           	psect	text9
  2382   00179E                     __ptext9:
  2383                           	callstack 0
  2384   00179E                     _SetInterruptHandler:
  2385                           	callstack 19
  2386   00179E                     
  2387                           ;MCAL_LAYER/interrupt/mcal_external_interrupt.c: 458:     if (((void*)0) == int_obj ){
  2388   00179E  5026               	movf	SetInterruptHandler@int_obj^0,w,c
  2389   0017A0  A4D8               	btfss	status,2,c
  2390   0017A2  EFD5  F00B         	goto	u2781
  2391   0017A6  EFD7  F00B         	goto	u2780
  2392   0017AA                     u2781:
  2393   0017AA  EFFA  F00B         	goto	l3936
  2394   0017AE                     u2780:
  2395   0017AE                     l3920:
  2396                           
  2397                           ;MCAL_LAYER/interrupt/mcal_external_interrupt.c: 460:     }
  2398   0017AE  EF18  F00C         	goto	l575
  2399   0017B2                     l3922:
  2400   0017B2  5026               	movf	SetInterruptHandler@int_obj^0,w,c
  2401   0017B4  6ED9               	movwf	fsr2l,c
  2402   0017B6  6ADA               	clrf	fsr2h,c
  2403   0017B8  CFDE F024          	movff	postinc2,INT0_SetInterruptHandler@INTx_InterruptHandeler
  2404   0017BC  CFDD F025          	movff	postdec2,INT0_SetInterruptHandler@INTx_InterruptHandeler+1
  2405   0017C0  EC20  F013         	call	_INT0_SetInterruptHandler	;wreg free
  2406   0017C4                     l3924:
  2407   0017C4  EF18  F00C         	goto	l575
  2408   0017C8                     l3926:
  2409   0017C8  5026               	movf	SetInterruptHandler@int_obj^0,w,c
  2410   0017CA  6ED9               	movwf	fsr2l,c
  2411   0017CC  6ADA               	clrf	fsr2h,c
  2412   0017CE  CFDE F024          	movff	postinc2,INT1_SetInterruptHandler@INTx_InterruptHandeler
  2413   0017D2  CFDD F025          	movff	postdec2,INT1_SetInterruptHandler@INTx_InterruptHandeler+1
  2414   0017D6  EC10  F013         	call	_INT1_SetInterruptHandler	;wreg free
  2415   0017DA  EFE2  F00B         	goto	l3924
  2416   0017DE                     l3930:
  2417   0017DE  5026               	movf	SetInterruptHandler@int_obj^0,w,c
  2418   0017E0  6ED9               	movwf	fsr2l,c
  2419   0017E2  6ADA               	clrf	fsr2h,c
  2420   0017E4  CFDE F024          	movff	postinc2,INT2_SetInterruptHandler@INTx_InterruptHandeler
  2421   0017E8  CFDD F025          	movff	postdec2,INT2_SetInterruptHandler@INTx_InterruptHandeler+1
  2422   0017EC  EC00  F013         	call	_INT2_SetInterruptHandler	;wreg free
  2423   0017F0  EFE2  F00B         	goto	l3924
  2424   0017F4                     l3936:
  2425   0017F4  5026               	movf	SetInterruptHandler@int_obj^0,w,c
  2426   0017F6  6ED9               	movwf	fsr2l,c
  2427   0017F8  6ADA               	clrf	fsr2h,c
  2428   0017FA  0E04               	movlw	4
  2429   0017FC  26D9               	addwf	fsr2l,f,c
  2430   0017FE  50DF               	movf	indf2,w,c
  2431   001800  6E27               	movwf	??_SetInterruptHandler^0,c
  2432   001802  6A28               	clrf	(??_SetInterruptHandler+1)^0,c
  2433                           
  2434                           ; Switch on 2 bytes has been partitioned into a top level switch of size 1, and 1 sub-sw
      +                          itches
  2435                           ; Switch size 1, requested type "simple"
  2436                           ; Number of cases is 1, Range of values is 0 to 0
  2437                           ; switch strategies available:
  2438                           ; Name         Instructions Cycles
  2439                           ; simple_byte            4     3 (average)
  2440                           ;	Chosen strategy is simple_byte
  2441   001804  5028               	movf	(??_SetInterruptHandler+1)^0,w,c
  2442   001806  0A00               	xorlw	0	; case 0
  2443   001808  B4D8               	btfsc	status,2,c
  2444   00180A  EF09  F00C         	goto	l6074
  2445   00180E  EFD7  F00B         	goto	l3920
  2446   001812                     l6074:
  2447                           
  2448                           ; Switch size 1, requested type "simple"
  2449                           ; Number of cases is 3, Range of values is 0 to 2
  2450                           ; switch strategies available:
  2451                           ; Name         Instructions Cycles
  2452                           ; simple_byte           10     6 (average)
  2453                           ;	Chosen strategy is simple_byte
  2454   001812  5027               	movf	??_SetInterruptHandler^0,w,c
  2455   001814  0A00               	xorlw	0	; case 0
  2456   001816  B4D8               	btfsc	status,2,c
  2457   001818  EFD9  F00B         	goto	l3922
  2458   00181C  0A01               	xorlw	1	; case 1
  2459   00181E  B4D8               	btfsc	status,2,c
  2460   001820  EFE4  F00B         	goto	l3926
  2461   001824  0A03               	xorlw	3	; case 2
  2462   001826  B4D8               	btfsc	status,2,c
  2463   001828  EFEF  F00B         	goto	l3930
  2464   00182C  EFD7  F00B         	goto	l3920
  2465   001830                     l575:
  2466   001830  0012               	return		;funcret
  2467   001832                     __end_of_SetInterruptHandler:
  2468                           	callstack 0
  2469                           
  2470 ;; *************** function _INT2_SetInterruptHandler *****************
  2471 ;; Defined at:
  2472 ;;		line 439 in file "MCAL_LAYER/interrupt/mcal_external_interrupt.c"
  2473 ;; Parameters:    Size  Location     Type
  2474 ;;  INTx_Interru    2   35[COMRAM] PTR FTN()void 
  2475 ;;		 -> App_ISR(1), 
  2476 ;; Auto vars:     Size  Location     Type
  2477 ;;  ret             1    0        unsigned char 
  2478 ;; Return value:  Size  Location     Type
  2479 ;;                  1    wreg      unsigned char 
  2480 ;; Registers used:
  2481 ;;		wreg, status,2, status,0
  2482 ;; Tracked objects:
  2483 ;;		On entry : 0/0
  2484 ;;		On exit  : 0/0
  2485 ;;		Unchanged: 0/0
  2486 ;; Data sizes:     COMRAM   BANK0   BANK1   BANK2   BANK3   BANK4   BANK5   BANK6   BANK7   BANK8   BANK9  BANK10  BANK1
      +1  BANK12  BANK13  BANK14  BANK15
  2487 ;;      Params:         2       0       0       0       0       0       0       0       0       0       0       0       
      +0       0       0       0       0
  2488 ;;      Locals:         0       0       0       0       0       0       0       0       0       0       0       0       
      +0       0       0       0       0
  2489 ;;      Temps:          0       0       0       0       0       0       0       0       0       0       0       0       
      +0       0       0       0       0
  2490 ;;      Totals:         2       0       0       0       0       0       0       0       0       0       0       0       
      +0       0       0       0       0
  2491 ;;Total ram usage:        2 bytes
  2492 ;; Hardware stack levels used: 1
  2493 ;; Hardware stack levels required when called: 8
  2494 ;; This function calls:
  2495 ;;		Nothing
  2496 ;; This function is called by:
  2497 ;;		_SetInterruptHandler
  2498 ;; This function uses a non-reentrant model
  2499 ;;
  2500                           
  2501                           	psect	text10
  2502   002600                     __ptext10:
  2503                           	callstack 0
  2504   002600                     _INT2_SetInterruptHandler:
  2505                           	callstack 19
  2506   002600                     
  2507                           ;MCAL_LAYER/interrupt/mcal_external_interrupt.c: 442:     if (((void*)0) == INTx_Interru
      +                          ptHandeler ){
  2508   002600  5024               	movf	INT2_SetInterruptHandler@INTx_InterruptHandeler^0,w,c
  2509   002602  1025               	iorwf	(INT2_SetInterruptHandler@INTx_InterruptHandeler+1)^0,w,c
  2510   002604  A4D8               	btfss	status,2,c
  2511   002606  EF07  F013         	goto	u2451
  2512   00260A  EF09  F013         	goto	u2450
  2513   00260E                     u2451:
  2514   00260E  EF0B  F013         	goto	l3644
  2515   002612                     u2450:
  2516   002612                     
  2517                           ;MCAL_LAYER/interrupt/mcal_external_interrupt.c: 444:     }
  2518   002612  EF0F  F013         	goto	l564
  2519   002616                     l3644:
  2520                           
  2521                           ;MCAL_LAYER/interrupt/mcal_external_interrupt.c: 446:       INT2_InterruptHandler=INTx_I
      +                          nterruptHandeler;
  2522   002616  C024  F0B0         	movff	INT2_SetInterruptHandler@INTx_InterruptHandeler,_INT2_InterruptHandler
  2523   00261A  C025  F0B1         	movff	INT2_SetInterruptHandler@INTx_InterruptHandeler+1,_INT2_InterruptHandler+1
  2524   00261E                     l564:
  2525   00261E  0012               	return		;funcret
  2526   002620                     __end_of_INT2_SetInterruptHandler:
  2527                           	callstack 0
  2528                           
  2529 ;; *************** function _INT1_SetInterruptHandler *****************
  2530 ;; Defined at:
  2531 ;;		line 425 in file "MCAL_LAYER/interrupt/mcal_external_interrupt.c"
  2532 ;; Parameters:    Size  Location     Type
  2533 ;;  INTx_Interru    2   35[COMRAM] PTR FTN()void 
  2534 ;;		 -> App_ISR(1), 
  2535 ;; Auto vars:     Size  Location     Type
  2536 ;;  ret             1    0        unsigned char 
  2537 ;; Return value:  Size  Location     Type
  2538 ;;                  1    wreg      unsigned char 
  2539 ;; Registers used:
  2540 ;;		wreg, status,2, status,0
  2541 ;; Tracked objects:
  2542 ;;		On entry : 0/0
  2543 ;;		On exit  : 0/0
  2544 ;;		Unchanged: 0/0
  2545 ;; Data sizes:     COMRAM   BANK0   BANK1   BANK2   BANK3   BANK4   BANK5   BANK6   BANK7   BANK8   BANK9  BANK10  BANK1
      +1  BANK12  BANK13  BANK14  BANK15
  2546 ;;      Params:         2       0       0       0       0       0       0       0       0       0       0       0       
      +0       0       0       0       0
  2547 ;;      Locals:         0       0       0       0       0       0       0       0       0       0       0       0       
      +0       0       0       0       0
  2548 ;;      Temps:          0       0       0       0       0       0       0       0       0       0       0       0       
      +0       0       0       0       0
  2549 ;;      Totals:         2       0       0       0       0       0       0       0       0       0       0       0       
      +0       0       0       0       0
  2550 ;;Total ram usage:        2 bytes
  2551 ;; Hardware stack levels used: 1
  2552 ;; Hardware stack levels required when called: 8
  2553 ;; This function calls:
  2554 ;;		Nothing
  2555 ;; This function is called by:
  2556 ;;		_SetInterruptHandler
  2557 ;; This function uses a non-reentrant model
  2558 ;;
  2559                           
  2560                           	psect	text11
  2561   002620                     __ptext11:
  2562                           	callstack 0
  2563   002620                     _INT1_SetInterruptHandler:
  2564                           	callstack 19
  2565   002620                     
  2566                           ;MCAL_LAYER/interrupt/mcal_external_interrupt.c: 428:     if (((void*)0) == INTx_Interru
      +                          ptHandeler ){
  2567   002620  5024               	movf	INT1_SetInterruptHandler@INTx_InterruptHandeler^0,w,c
  2568   002622  1025               	iorwf	(INT1_SetInterruptHandler@INTx_InterruptHandeler+1)^0,w,c
  2569   002624  A4D8               	btfss	status,2,c
  2570   002626  EF17  F013         	goto	u2441
  2571   00262A  EF19  F013         	goto	u2440
  2572   00262E                     u2441:
  2573   00262E  EF1B  F013         	goto	l3632
  2574   002632                     u2440:
  2575   002632                     
  2576                           ;MCAL_LAYER/interrupt/mcal_external_interrupt.c: 430:     }
  2577   002632  EF1F  F013         	goto	l559
  2578   002636                     l3632:
  2579                           
  2580                           ;MCAL_LAYER/interrupt/mcal_external_interrupt.c: 432:       INT1_InterruptHandler=INTx_I
      +                          nterruptHandeler;
  2581   002636  C024  F03D         	movff	INT1_SetInterruptHandler@INTx_InterruptHandeler,_INT1_InterruptHandler
  2582   00263A  C025  F03E         	movff	INT1_SetInterruptHandler@INTx_InterruptHandeler+1,_INT1_InterruptHandler+1
  2583   00263E                     l559:
  2584   00263E  0012               	return		;funcret
  2585   002640                     __end_of_INT1_SetInterruptHandler:
  2586                           	callstack 0
  2587                           
  2588 ;; *************** function _INT0_SetInterruptHandler *****************
  2589 ;; Defined at:
  2590 ;;		line 408 in file "MCAL_LAYER/interrupt/mcal_external_interrupt.c"
  2591 ;; Parameters:    Size  Location     Type
  2592 ;;  INTx_Interru    2   35[COMRAM] PTR FTN()void 
  2593 ;;		 -> App_ISR(1), 
  2594 ;; Auto vars:     Size  Location     Type
  2595 ;;  ret             1    0        unsigned char 
  2596 ;; Return value:  Size  Location     Type
  2597 ;;                  1    wreg      unsigned char 
  2598 ;; Registers used:
  2599 ;;		wreg, status,2, status,0
  2600 ;; Tracked objects:
  2601 ;;		On entry : 0/0
  2602 ;;		On exit  : 0/0
  2603 ;;		Unchanged: 0/0
  2604 ;; Data sizes:     COMRAM   BANK0   BANK1   BANK2   BANK3   BANK4   BANK5   BANK6   BANK7   BANK8   BANK9  BANK10  BANK1
      +1  BANK12  BANK13  BANK14  BANK15
  2605 ;;      Params:         2       0       0       0       0       0       0       0       0       0       0       0       
      +0       0       0       0       0
  2606 ;;      Locals:         0       0       0       0       0       0       0       0       0       0       0       0       
      +0       0       0       0       0
  2607 ;;      Temps:          0       0       0       0       0       0       0       0       0       0       0       0       
      +0       0       0       0       0
  2608 ;;      Totals:         2       0       0       0       0       0       0       0       0       0       0       0       
      +0       0       0       0       0
  2609 ;;Total ram usage:        2 bytes
  2610 ;; Hardware stack levels used: 1
  2611 ;; Hardware stack levels required when called: 8
  2612 ;; This function calls:
  2613 ;;		Nothing
  2614 ;; This function is called by:
  2615 ;;		_SetInterruptHandler
  2616 ;; This function uses a non-reentrant model
  2617 ;;
  2618                           
  2619                           	psect	text12
  2620   002640                     __ptext12:
  2621                           	callstack 0
  2622   002640                     _INT0_SetInterruptHandler:
  2623                           	callstack 19
  2624   002640                     
  2625                           ;MCAL_LAYER/interrupt/mcal_external_interrupt.c: 411:     if (((void*)0) == INTx_Interru
      +                          ptHandeler ){
  2626   002640  5024               	movf	INT0_SetInterruptHandler@INTx_InterruptHandeler^0,w,c
  2627   002642  1025               	iorwf	(INT0_SetInterruptHandler@INTx_InterruptHandeler+1)^0,w,c
  2628   002644  A4D8               	btfss	status,2,c
  2629   002646  EF27  F013         	goto	u2431
  2630   00264A  EF29  F013         	goto	u2430
  2631   00264E                     u2431:
  2632   00264E  EF2B  F013         	goto	l3620
  2633   002652                     u2430:
  2634   002652                     
  2635                           ;MCAL_LAYER/interrupt/mcal_external_interrupt.c: 413:     }
  2636   002652  EF2F  F013         	goto	l554
  2637   002656                     l3620:
  2638                           
  2639                           ;MCAL_LAYER/interrupt/mcal_external_interrupt.c: 415:       INT0_InterruptHandler=INTx_I
      +                          nterruptHandeler;
  2640   002656  C024  F03F         	movff	INT0_SetInterruptHandler@INTx_InterruptHandeler,_INT0_InterruptHandler
  2641   00265A  C025  F040         	movff	INT0_SetInterruptHandler@INTx_InterruptHandeler+1,_INT0_InterruptHandler+1
  2642   00265E                     l554:
  2643   00265E  0012               	return		;funcret
  2644   002660                     __end_of_INT0_SetInterruptHandler:
  2645                           	callstack 0
  2646                           
  2647 ;; *************** function _Interrupt_INTx_Pin_Init *****************
  2648 ;; Defined at:
  2649 ;;		line 369 in file "MCAL_LAYER/interrupt/mcal_external_interrupt.c"
  2650 ;; Parameters:    Size  Location     Type
  2651 ;;  int_obj         1   42[COMRAM] PTR const struct .
  2652 ;;		 -> int1_obj(6), 
  2653 ;; Auto vars:     Size  Location     Type
  2654 ;;  ret             1    0        unsigned char 
  2655 ;; Return value:  Size  Location     Type
  2656 ;;                  1    wreg      unsigned char 
  2657 ;; Registers used:
  2658 ;;		wreg, fsr2l, fsr2h, status,2, status,0, prodl, prodh, cstack
  2659 ;; Tracked objects:
  2660 ;;		On entry : 0/0
  2661 ;;		On exit  : 0/0
  2662 ;;		Unchanged: 0/0
  2663 ;; Data sizes:     COMRAM   BANK0   BANK1   BANK2   BANK3   BANK4   BANK5   BANK6   BANK7   BANK8   BANK9  BANK10  BANK1
      +1  BANK12  BANK13  BANK14  BANK15
  2664 ;;      Params:         1       0       0       0       0       0       0       0       0       0       0       0       
      +0       0       0       0       0
  2665 ;;      Locals:         0       0       0       0       0       0       0       0       0       0       0       0       
      +0       0       0       0       0
  2666 ;;      Temps:          0       0       0       0       0       0       0       0       0       0       0       0       
      +0       0       0       0       0
  2667 ;;      Totals:         1       0       0       0       0       0       0       0       0       0       0       0       
      +0       0       0       0       0
  2668 ;;Total ram usage:        1 bytes
  2669 ;; Hardware stack levels used: 1
  2670 ;; Hardware stack levels required when called: 9
  2671 ;; This function calls:
  2672 ;;		_gpio_pin_direction_intialize
  2673 ;; This function is called by:
  2674 ;;		_Interrupt_INTx_Init
  2675 ;; This function uses a non-reentrant model
  2676 ;;
  2677                           
  2678                           	psect	text13
  2679   002660                     __ptext13:
  2680                           	callstack 0
  2681   002660                     _Interrupt_INTx_Pin_Init:
  2682                           	callstack 19
  2683   002660                     
  2684                           ;MCAL_LAYER/interrupt/mcal_external_interrupt.c: 372:     if (((void*)0) == int_obj ){
  2685   002660  502B               	movf	Interrupt_INTx_Pin_Init@int_obj^0,w,c
  2686   002662  A4D8               	btfss	status,2,c
  2687   002664  EF36  F013         	goto	u2771
  2688   002668  EF38  F013         	goto	u2770
  2689   00266C                     u2771:
  2690   00266C  EF3A  F013         	goto	l3914
  2691   002670                     u2770:
  2692   002670                     
  2693                           ;MCAL_LAYER/interrupt/mcal_external_interrupt.c: 374:     }
  2694   002670  EF3F  F013         	goto	l538
  2695   002674                     l3914:
  2696                           
  2697                           ;MCAL_LAYER/interrupt/mcal_external_interrupt.c: 377:       gpio_pin_direction_intialize
      +                          (&(int_obj->pin));
  2698   002674  502B               	movf	Interrupt_INTx_Pin_Init@int_obj^0,w,c
  2699   002676  0F02               	addlw	2
  2700   002678  6E24               	movwf	gpio_pin_direction_intialize@_pin_config^0,c
  2701   00267A  ECAB  F006         	call	_gpio_pin_direction_intialize	;wreg free
  2702   00267E                     l538:
  2703   00267E  0012               	return		;funcret
  2704   002680                     __end_of_Interrupt_INTx_Pin_Init:
  2705                           	callstack 0
  2706                           
  2707 ;; *************** function _gpio_pin_direction_intialize *****************
  2708 ;; Defined at:
  2709 ;;		line 63 in file "MCAL_LAYER/GPIO/hal_gpio.c"
  2710 ;; Parameters:    Size  Location     Type
  2711 ;;  _pin_config     1   35[COMRAM] PTR const struct .
  2712 ;;		 -> buzzer(1), int1_obj(6), keypad$columns_pins(4), keypad$rows_pins(4), 
  2713 ;;		 -> keypad(8), lcd$lcd_data(4), lcd(6), motor$motor_config(2), 
  2714 ;;		 -> motor(2), led_initialize@pin_obj(1), 
  2715 ;; Auto vars:     Size  Location     Type
  2716 ;;  ret             1   41[COMRAM] unsigned char 
  2717 ;; Return value:  Size  Location     Type
  2718 ;;                  1    wreg      unsigned char 
  2719 ;; Registers used:
  2720 ;;		wreg, fsr2l, fsr2h, status,2, status,0, prodl, prodh
  2721 ;; Tracked objects:
  2722 ;;		On entry : 0/0
  2723 ;;		On exit  : 0/0
  2724 ;;		Unchanged: 0/0
  2725 ;; Data sizes:     COMRAM   BANK0   BANK1   BANK2   BANK3   BANK4   BANK5   BANK6   BANK7   BANK8   BANK9  BANK10  BANK1
      +1  BANK12  BANK13  BANK14  BANK15
  2726 ;;      Params:         1       0       0       0       0       0       0       0       0       0       0       0       
      +0       0       0       0       0
  2727 ;;      Locals:         1       0       0       0       0       0       0       0       0       0       0       0       
      +0       0       0       0       0
  2728 ;;      Temps:          5       0       0       0       0       0       0       0       0       0       0       0       
      +0       0       0       0       0
  2729 ;;      Totals:         7       0       0       0       0       0       0       0       0       0       0       0       
      +0       0       0       0       0
  2730 ;;Total ram usage:        7 bytes
  2731 ;; Hardware stack levels used: 1
  2732 ;; Hardware stack levels required when called: 8
  2733 ;; This function calls:
  2734 ;;		Nothing
  2735 ;; This function is called by:
  2736 ;;		_motor_intialize
  2737 ;;		_keypad_intialize
  2738 ;;		_led_initialize
  2739 ;;		_gpio_pin_intialize
  2740 ;;		_Interrupt_INTx_Pin_Init
  2741 ;;		_intialization
  2742 ;;		_button_intialize
  2743 ;;		_Interrupt_RBx_Init
  2744 ;; This function uses a non-reentrant model
  2745 ;;
  2746                           
  2747                           	psect	text14
  2748   000D56                     __ptext14:
  2749                           	callstack 0
  2750   000D56                     _gpio_pin_direction_intialize:
  2751                           	callstack 20
  2752   000D56                     
  2753                           ;MCAL_LAYER/GPIO/hal_gpio.c: 65:     Std_ReturnType ret = (Std_ReturnType) 0x01;
  2754   000D56  0E01               	movlw	1
  2755   000D58  6E2A               	movwf	gpio_pin_direction_intialize@ret^0,c
  2756                           
  2757                           ;MCAL_LAYER/GPIO/hal_gpio.c: 66:     if (((void*)0) == _pin_config || _pin_config->pin >
      +                           (8 -1)){
  2758   000D5A  5024               	movf	gpio_pin_direction_intialize@_pin_config^0,w,c
  2759   000D5C  B4D8               	btfsc	status,2,c
  2760   000D5E  EFB3  F006         	goto	u2331
  2761   000D62  EFB5  F006         	goto	u2330
  2762   000D66                     u2331:
  2763   000D66  EFC5  F006         	goto	l3570
  2764   000D6A                     u2330:
  2765   000D6A  5024               	movf	gpio_pin_direction_intialize@_pin_config^0,w,c
  2766   000D6C  6ED9               	movwf	fsr2l,c
  2767   000D6E  6ADA               	clrf	fsr2h,c
  2768   000D70  30DF               	rrcf	223,w,c
  2769   000D72  32E8               	rrcf	wreg,f,c
  2770   000D74  32E8               	rrcf	wreg,f,c
  2771   000D76  0B07               	andlw	7
  2772   000D78  6E25               	movwf	??_gpio_pin_direction_intialize^0,c
  2773   000D7A  0E07               	movlw	7
  2774   000D7C  6425               	cpfsgt	??_gpio_pin_direction_intialize^0,c
  2775   000D7E  EFC3  F006         	goto	u2341
  2776   000D82  EFC5  F006         	goto	u2340
  2777   000D86                     u2341:
  2778   000D86  EF1C  F007         	goto	l3578
  2779   000D8A                     u2340:
  2780   000D8A                     l3570:
  2781                           
  2782                           ;MCAL_LAYER/GPIO/hal_gpio.c: 67:         ret=(Std_ReturnType) 0x00;
  2783   000D8A  0E00               	movlw	0
  2784   000D8C  6E2A               	movwf	gpio_pin_direction_intialize@ret^0,c
  2785                           
  2786                           ;MCAL_LAYER/GPIO/hal_gpio.c: 68:     }
  2787   000D8E  EF3C  F007         	goto	l3580
  2788   000D92                     l3572:
  2789                           
  2790                           ;MCAL_LAYER/GPIO/hal_gpio.c: 74:               (*tris_registers[_pin_config->port] &= ~(
      +                          (uint_8)1<<_pin_config->pin));
  2791   000D92  5024               	movf	gpio_pin_direction_intialize@_pin_config^0,w,c
  2792   000D94  6ED9               	movwf	fsr2l,c
  2793   000D96  6ADA               	clrf	fsr2h,c
  2794   000D98  30DF               	rrcf	223,w,c
  2795   000D9A  32E8               	rrcf	wreg,f,c
  2796   000D9C  32E8               	rrcf	wreg,f,c
  2797   000D9E  0B07               	andlw	7
  2798   000DA0  6E25               	movwf	??_gpio_pin_direction_intialize^0,c
  2799   000DA2  0E01               	movlw	1
  2800   000DA4  6E26               	movwf	(??_gpio_pin_direction_intialize+1)^0,c
  2801   000DA6  2A25               	incf	??_gpio_pin_direction_intialize^0,f,c
  2802   000DA8  EFD8  F006         	goto	u2354
  2803   000DAC                     u2355:
  2804   000DAC  90D8               	bcf	status,0,c
  2805   000DAE  3626               	rlcf	(??_gpio_pin_direction_intialize+1)^0,f,c
  2806   000DB0                     u2354:
  2807   000DB0  2E25               	decfsz	??_gpio_pin_direction_intialize^0,f,c
  2808   000DB2  EFD6  F006         	goto	u2355
  2809   000DB6  5026               	movf	(??_gpio_pin_direction_intialize+1)^0,w,c
  2810   000DB8  0AFF               	xorlw	255
  2811   000DBA  6E27               	movwf	(??_gpio_pin_direction_intialize+2)^0,c
  2812   000DBC  5024               	movf	gpio_pin_direction_intialize@_pin_config^0,w,c
  2813   000DBE  6ED9               	movwf	fsr2l,c
  2814   000DC0  6ADA               	clrf	fsr2h,c
  2815   000DC2  50DF               	movf	223,w,c
  2816   000DC4  0B07               	andlw	7
  2817   000DC6  0D02               	mullw	2
  2818   000DC8  50F3               	movf	243,w,c
  2819   000DCA  0FCA               	addlw	low _tris_registers
  2820   000DCC  6ED9               	movwf	fsr2l,c
  2821   000DCE  6ADA               	clrf	fsr2h,c
  2822   000DD0  CFDE F028          	movff	postinc2,??_gpio_pin_direction_intialize+3
  2823   000DD4  CFDD F029          	movff	postdec2,??_gpio_pin_direction_intialize+4
  2824   000DD8  C028  FFD9         	movff	??_gpio_pin_direction_intialize+3,fsr2l
  2825   000DDC  C029  FFDA         	movff	??_gpio_pin_direction_intialize+4,fsr2h
  2826   000DE0  5027               	movf	(??_gpio_pin_direction_intialize+2)^0,w,c
  2827   000DE2  16DF               	andwf	indf2,f,c
  2828                           
  2829                           ;MCAL_LAYER/GPIO/hal_gpio.c: 76:               break;
  2830   000DE4  EF3C  F007         	goto	l3580
  2831   000DE8                     l3574:
  2832                           
  2833                           ;MCAL_LAYER/GPIO/hal_gpio.c: 80:             (*tris_registers[_pin_config->port] |= ((ui
      +                          nt_8)1<<_pin_config->pin));
  2834   000DE8  5024               	movf	gpio_pin_direction_intialize@_pin_config^0,w,c
  2835   000DEA  6ED9               	movwf	fsr2l,c
  2836   000DEC  6ADA               	clrf	fsr2h,c
  2837   000DEE  30DF               	rrcf	223,w,c
  2838   000DF0  32E8               	rrcf	wreg,f,c
  2839   000DF2  32E8               	rrcf	wreg,f,c
  2840   000DF4  0B07               	andlw	7
  2841   000DF6  6E25               	movwf	??_gpio_pin_direction_intialize^0,c
  2842   000DF8  0E01               	movlw	1
  2843   000DFA  6E26               	movwf	(??_gpio_pin_direction_intialize+1)^0,c
  2844   000DFC  2A25               	incf	??_gpio_pin_direction_intialize^0,f,c
  2845   000DFE  EF03  F007         	goto	u2364
  2846   000E02                     u2365:
  2847   000E02  90D8               	bcf	status,0,c
  2848   000E04  3626               	rlcf	(??_gpio_pin_direction_intialize+1)^0,f,c
  2849   000E06                     u2364:
  2850   000E06  2E25               	decfsz	??_gpio_pin_direction_intialize^0,f,c
  2851   000E08  EF01  F007         	goto	u2365
  2852   000E0C  5024               	movf	gpio_pin_direction_intialize@_pin_config^0,w,c
  2853   000E0E  6ED9               	movwf	fsr2l,c
  2854   000E10  6ADA               	clrf	fsr2h,c
  2855   000E12  50DF               	movf	223,w,c
  2856   000E14  0B07               	andlw	7
  2857   000E16  0D02               	mullw	2
  2858   000E18  50F3               	movf	243,w,c
  2859   000E1A  0FCA               	addlw	low _tris_registers
  2860   000E1C  6ED9               	movwf	fsr2l,c
  2861   000E1E  6ADA               	clrf	fsr2h,c
  2862   000E20  CFDE F027          	movff	postinc2,??_gpio_pin_direction_intialize+2
  2863   000E24  CFDD F028          	movff	postdec2,??_gpio_pin_direction_intialize+3
  2864   000E28  C027  FFD9         	movff	??_gpio_pin_direction_intialize+2,fsr2l
  2865   000E2C  C028  FFDA         	movff	??_gpio_pin_direction_intialize+3,fsr2h
  2866   000E30  5026               	movf	(??_gpio_pin_direction_intialize+1)^0,w,c
  2867   000E32  12DF               	iorwf	indf2,f,c
  2868                           
  2869                           ;MCAL_LAYER/GPIO/hal_gpio.c: 81:               break;
  2870   000E34  EF3C  F007         	goto	l3580
  2871   000E38                     l3578:
  2872   000E38  5024               	movf	gpio_pin_direction_intialize@_pin_config^0,w,c
  2873   000E3A  6ED9               	movwf	fsr2l,c
  2874   000E3C  6ADA               	clrf	fsr2h,c
  2875   000E3E  BCDF               	btfsc	indf2,6,c
  2876   000E40  EF24  F007         	goto	u2371
  2877   000E44  EF27  F007         	goto	u2370
  2878   000E48                     u2371:
  2879   000E48  0E01               	movlw	1
  2880   000E4A  EF28  F007         	goto	u2380
  2881   000E4E                     u2370:
  2882   000E4E  0E00               	movlw	0
  2883   000E50                     u2380:
  2884   000E50  6E25               	movwf	??_gpio_pin_direction_intialize^0,c
  2885   000E52  6A26               	clrf	(??_gpio_pin_direction_intialize+1)^0,c
  2886                           
  2887                           ; Switch on 2 bytes has been partitioned into a top level switch of size 1, and 1 sub-sw
      +                          itches
  2888                           ; Switch size 1, requested type "simple"
  2889                           ; Number of cases is 1, Range of values is 0 to 0
  2890                           ; switch strategies available:
  2891                           ; Name         Instructions Cycles
  2892                           ; simple_byte            4     3 (average)
  2893                           ;	Chosen strategy is simple_byte
  2894   000E54  5026               	movf	(??_gpio_pin_direction_intialize+1)^0,w,c
  2895   000E56  0A00               	xorlw	0	; case 0
  2896   000E58  B4D8               	btfsc	status,2,c
  2897   000E5A  EF31  F007         	goto	l6076
  2898   000E5E  EFC5  F006         	goto	l3570
  2899   000E62                     l6076:
  2900                           
  2901                           ; Switch size 1, requested type "simple"
  2902                           ; Number of cases is 2, Range of values is 0 to 1
  2903                           ; switch strategies available:
  2904                           ; Name         Instructions Cycles
  2905                           ; simple_byte            7     4 (average)
  2906                           ;	Chosen strategy is simple_byte
  2907   000E62  5025               	movf	??_gpio_pin_direction_intialize^0,w,c
  2908   000E64  0A00               	xorlw	0	; case 0
  2909   000E66  B4D8               	btfsc	status,2,c
  2910   000E68  EFC9  F006         	goto	l3572
  2911   000E6C  0A01               	xorlw	1	; case 1
  2912   000E6E  B4D8               	btfsc	status,2,c
  2913   000E70  EFF4  F006         	goto	l3574
  2914   000E74  EFC5  F006         	goto	l3570
  2915   000E78                     l3580:
  2916                           
  2917                           ;MCAL_LAYER/GPIO/hal_gpio.c: 86:     return ret;
  2918   000E78  502A               	movf	gpio_pin_direction_intialize@ret^0,w,c
  2919   000E7A  0012               	return		;funcret
  2920   000E7C                     __end_of_gpio_pin_direction_intialize:
  2921                           	callstack 0
  2922                           
  2923 ;; *************** function _Interrupt_INTx_Enable *****************
  2924 ;; Defined at:
  2925 ;;		line 221 in file "MCAL_LAYER/interrupt/mcal_external_interrupt.c"
  2926 ;; Parameters:    Size  Location     Type
  2927 ;;  int_obj         1   35[COMRAM] PTR const struct .
  2928 ;;		 -> int1_obj(6), 
  2929 ;; Auto vars:     Size  Location     Type
  2930 ;;  ret             1    0        unsigned char 
  2931 ;; Return value:  Size  Location     Type
  2932 ;;                  1    wreg      unsigned char 
  2933 ;; Registers used:
  2934 ;;		wreg, fsr2l, fsr2h, status,2, status,0
  2935 ;; Tracked objects:
  2936 ;;		On entry : 0/0
  2937 ;;		On exit  : 0/0
  2938 ;;		Unchanged: 0/0
  2939 ;; Data sizes:     COMRAM   BANK0   BANK1   BANK2   BANK3   BANK4   BANK5   BANK6   BANK7   BANK8   BANK9  BANK10  BANK1
      +1  BANK12  BANK13  BANK14  BANK15
  2940 ;;      Params:         1       0       0       0       0       0       0       0       0       0       0       0       
      +0       0       0       0       0
  2941 ;;      Locals:         0       0       0       0       0       0       0       0       0       0       0       0       
      +0       0       0       0       0
  2942 ;;      Temps:          2       0       0       0       0       0       0       0       0       0       0       0       
      +0       0       0       0       0
  2943 ;;      Totals:         3       0       0       0       0       0       0       0       0       0       0       0       
      +0       0       0       0       0
  2944 ;;Total ram usage:        3 bytes
  2945 ;; Hardware stack levels used: 1
  2946 ;; Hardware stack levels required when called: 8
  2947 ;; This function calls:
  2948 ;;		Nothing
  2949 ;; This function is called by:
  2950 ;;		_Interrupt_INTx_Init
  2951 ;; This function uses a non-reentrant model
  2952 ;;
  2953                           
  2954                           	psect	text15
  2955   001B32                     __ptext15:
  2956                           	callstack 0
  2957   001B32                     _Interrupt_INTx_Enable:
  2958                           	callstack 20
  2959   001B32                     
  2960                           ;MCAL_LAYER/interrupt/mcal_external_interrupt.c: 224:     if (((void*)0) == int_obj ){
  2961   001B32  5024               	movf	Interrupt_INTx_Enable@int_obj^0,w,c
  2962   001B34  A4D8               	btfss	status,2,c
  2963   001B36  EF9F  F00D         	goto	u2791
  2964   001B3A  EFA1  F00D         	goto	u2790
  2965   001B3E                     u2791:
  2966   001B3E  EFB2  F00D         	goto	l3954
  2967   001B42                     u2790:
  2968   001B42                     l3944:
  2969                           
  2970                           ;MCAL_LAYER/interrupt/mcal_external_interrupt.c: 226:     }
  2971   001B42  EFD0  F00D         	goto	l499
  2972   001B46                     l494:
  2973                           
  2974                           ;MCAL_LAYER/interrupt/mcal_external_interrupt.c: 234:                     (INTCONbits.GI
      +                          E=1);
  2975   001B46  8EF2               	bsf	242,7,c	;volatile
  2976                           
  2977                           ;MCAL_LAYER/interrupt/mcal_external_interrupt.c: 235:                     (INTCONbits.PE
      +                          IE=1);
  2978   001B48  8CF2               	bsf	242,6,c	;volatile
  2979                           
  2980                           ;MCAL_LAYER/interrupt/mcal_external_interrupt.c: 237:                     (INTCONbits.IN
      +                          T0IE=1);
  2981   001B4A  88F2               	bsf	242,4,c	;volatile
  2982   001B4C                     l3946:
  2983   001B4C  EFD0  F00D         	goto	l499
  2984   001B50                     l496:
  2985                           
  2986                           ;MCAL_LAYER/interrupt/mcal_external_interrupt.c: 247:                     (INTCONbits.GI
      +                          E=1);
  2987   001B50  8EF2               	bsf	242,7,c	;volatile
  2988                           
  2989                           ;MCAL_LAYER/interrupt/mcal_external_interrupt.c: 248:                     (INTCONbits.PE
      +                          IE=1);
  2990   001B52  8CF2               	bsf	242,6,c	;volatile
  2991                           
  2992                           ;MCAL_LAYER/interrupt/mcal_external_interrupt.c: 250:                     (INTCON3bits.I
      +                          NT1IE=1);
  2993   001B54  86F0               	bsf	240,3,c	;volatile
  2994   001B56  EFA6  F00D         	goto	l3946
  2995   001B5A                     l497:
  2996                           
  2997                           ;MCAL_LAYER/interrupt/mcal_external_interrupt.c: 260:                     (INTCONbits.GI
      +                          E=1);
  2998   001B5A  8EF2               	bsf	242,7,c	;volatile
  2999                           
  3000                           ;MCAL_LAYER/interrupt/mcal_external_interrupt.c: 261:                     (INTCONbits.PE
      +                          IE=1);
  3001   001B5C  8CF2               	bsf	242,6,c	;volatile
  3002                           
  3003                           ;MCAL_LAYER/interrupt/mcal_external_interrupt.c: 263:                     (INTCON3bits.I
      +                          NT2IE=1);
  3004   001B5E  88F0               	bsf	240,4,c	;volatile
  3005   001B60  EFA6  F00D         	goto	l3946
  3006   001B64                     l3954:
  3007   001B64  5024               	movf	Interrupt_INTx_Enable@int_obj^0,w,c
  3008   001B66  6ED9               	movwf	fsr2l,c
  3009   001B68  6ADA               	clrf	fsr2h,c
  3010   001B6A  0E04               	movlw	4
  3011   001B6C  26D9               	addwf	fsr2l,f,c
  3012   001B6E  50DF               	movf	indf2,w,c
  3013   001B70  6E25               	movwf	??_Interrupt_INTx_Enable^0,c
  3014   001B72  6A26               	clrf	(??_Interrupt_INTx_Enable+1)^0,c
  3015                           
  3016                           ; Switch on 2 bytes has been partitioned into a top level switch of size 1, and 1 sub-sw
      +                          itches
  3017                           ; Switch size 1, requested type "simple"
  3018                           ; Number of cases is 1, Range of values is 0 to 0
  3019                           ; switch strategies available:
  3020                           ; Name         Instructions Cycles
  3021                           ; simple_byte            4     3 (average)
  3022                           ;	Chosen strategy is simple_byte
  3023   001B74  5026               	movf	(??_Interrupt_INTx_Enable+1)^0,w,c
  3024   001B76  0A00               	xorlw	0	; case 0
  3025   001B78  B4D8               	btfsc	status,2,c
  3026   001B7A  EFC1  F00D         	goto	l6078
  3027   001B7E  EFA1  F00D         	goto	l3944
  3028   001B82                     l6078:
  3029                           
  3030                           ; Switch size 1, requested type "simple"
  3031                           ; Number of cases is 3, Range of values is 0 to 2
  3032                           ; switch strategies available:
  3033                           ; Name         Instructions Cycles
  3034                           ; simple_byte           10     6 (average)
  3035                           ;	Chosen strategy is simple_byte
  3036   001B82  5025               	movf	??_Interrupt_INTx_Enable^0,w,c
  3037   001B84  0A00               	xorlw	0	; case 0
  3038   001B86  B4D8               	btfsc	status,2,c
  3039   001B88  EFA3  F00D         	goto	l494
  3040   001B8C  0A01               	xorlw	1	; case 1
  3041   001B8E  B4D8               	btfsc	status,2,c
  3042   001B90  EFA8  F00D         	goto	l496
  3043   001B94  0A03               	xorlw	3	; case 2
  3044   001B96  B4D8               	btfsc	status,2,c
  3045   001B98  EFAD  F00D         	goto	l497
  3046   001B9C  EFA1  F00D         	goto	l3944
  3047   001BA0                     l499:
  3048   001BA0  0012               	return		;funcret
  3049   001BA2                     __end_of_Interrupt_INTx_Enable:
  3050                           	callstack 0
  3051                           
  3052 ;; *************** function _Interrupt_INTx_Edge_Init *****************
  3053 ;; Defined at:
  3054 ;;		line 330 in file "MCAL_LAYER/interrupt/mcal_external_interrupt.c"
  3055 ;; Parameters:    Size  Location     Type
  3056 ;;  int_obj         1   35[COMRAM] PTR const struct .
  3057 ;;		 -> int1_obj(6), 
  3058 ;; Auto vars:     Size  Location     Type
  3059 ;;  ret             1    0        unsigned char 
  3060 ;; Return value:  Size  Location     Type
  3061 ;;                  1    wreg      unsigned char 
  3062 ;; Registers used:
  3063 ;;		wreg, fsr2l, fsr2h, status,2, status,0
  3064 ;; Tracked objects:
  3065 ;;		On entry : 0/0
  3066 ;;		On exit  : 0/0
  3067 ;;		Unchanged: 0/0
  3068 ;; Data sizes:     COMRAM   BANK0   BANK1   BANK2   BANK3   BANK4   BANK5   BANK6   BANK7   BANK8   BANK9  BANK10  BANK1
      +1  BANK12  BANK13  BANK14  BANK15
  3069 ;;      Params:         1       0       0       0       0       0       0       0       0       0       0       0       
      +0       0       0       0       0
  3070 ;;      Locals:         0       0       0       0       0       0       0       0       0       0       0       0       
      +0       0       0       0       0
  3071 ;;      Temps:          2       0       0       0       0       0       0       0       0       0       0       0       
      +0       0       0       0       0
  3072 ;;      Totals:         3       0       0       0       0       0       0       0       0       0       0       0       
      +0       0       0       0       0
  3073 ;;Total ram usage:        3 bytes
  3074 ;; Hardware stack levels used: 1
  3075 ;; Hardware stack levels required when called: 8
  3076 ;; This function calls:
  3077 ;;		Nothing
  3078 ;; This function is called by:
  3079 ;;		_Interrupt_INTx_Init
  3080 ;; This function uses a non-reentrant model
  3081 ;;
  3082                           
  3083                           	psect	text16
  3084   000F9E                     __ptext16:
  3085                           	callstack 0
  3086   000F9E                     _Interrupt_INTx_Edge_Init:
  3087                           	callstack 20
  3088   000F9E                     
  3089                           ;MCAL_LAYER/interrupt/mcal_external_interrupt.c: 333:     if (((void*)0) == int_obj ){
  3090   000F9E  5024               	movf	Interrupt_INTx_Edge_Init@int_obj^0,w,c
  3091   000FA0  A4D8               	btfss	status,2,c
  3092   000FA2  EFD5  F007         	goto	u2701
  3093   000FA6  EFD7  F007         	goto	u2700
  3094   000FAA                     u2701:
  3095   000FAA  EF39  F008         	goto	l3904
  3096   000FAE                     u2700:
  3097   000FAE                     l3870:
  3098                           
  3099                           ;MCAL_LAYER/interrupt/mcal_external_interrupt.c: 335:     }
  3100   000FAE  EF57  F008         	goto	l533
  3101   000FB2                     l3872:
  3102                           
  3103                           ;MCAL_LAYER/interrupt/mcal_external_interrupt.c: 341:                     if (Failing_Ed
      +                          ge==int_obj->edge){(INTCON2bits.INTEDG0=0);}
  3104   000FB2  5024               	movf	Interrupt_INTx_Edge_Init@int_obj^0,w,c
  3105   000FB4  6ED9               	movwf	fsr2l,c
  3106   000FB6  6ADA               	clrf	fsr2h,c
  3107   000FB8  0E03               	movlw	3
  3108   000FBA  26D9               	addwf	fsr2l,f,c
  3109   000FBC  50DF               	movf	indf2,w,c
  3110   000FBE  A4D8               	btfss	status,2,c
  3111   000FC0  EFE4  F007         	goto	u2711
  3112   000FC4  EFE6  F007         	goto	u2710
  3113   000FC8                     u2711:
  3114   000FC8  EFE9  F007         	goto	l3876
  3115   000FCC                     u2710:
  3116   000FCC  9CF1               	bcf	241,6,c	;volatile
  3117   000FCE  EFF7  F007         	goto	l3880
  3118   000FD2                     l3876:
  3119   000FD2  5024               	movf	Interrupt_INTx_Edge_Init@int_obj^0,w,c
  3120   000FD4  6ED9               	movwf	fsr2l,c
  3121   000FD6  6ADA               	clrf	fsr2h,c
  3122   000FD8  0E03               	movlw	3
  3123   000FDA  26D9               	addwf	fsr2l,f,c
  3124   000FDC  04DE               	decf	postinc2,w,c
  3125   000FDE  A4D8               	btfss	status,2,c
  3126   000FE0  EFF4  F007         	goto	u2721
  3127   000FE4  EFF6  F007         	goto	u2720
  3128   000FE8                     u2721:
  3129   000FE8  EFF7  F007         	goto	l3880
  3130   000FEC                     u2720:
  3131   000FEC  8CF1               	bsf	241,6,c	;volatile
  3132   000FEE                     l3880:
  3133                           
  3134                           ;MCAL_LAYER/interrupt/mcal_external_interrupt.c: 345:                     break;
  3135   000FEE  EF57  F008         	goto	l533
  3136   000FF2                     l3882:
  3137                           
  3138                           ;MCAL_LAYER/interrupt/mcal_external_interrupt.c: 347:                     if (Failing_Ed
      +                          ge==int_obj->edge){(INTCON2bits.INTEDG1=0);}
  3139   000FF2  5024               	movf	Interrupt_INTx_Edge_Init@int_obj^0,w,c
  3140   000FF4  6ED9               	movwf	fsr2l,c
  3141   000FF6  6ADA               	clrf	fsr2h,c
  3142   000FF8  0E03               	movlw	3
  3143   000FFA  26D9               	addwf	fsr2l,f,c
  3144   000FFC  50DF               	movf	indf2,w,c
  3145   000FFE  A4D8               	btfss	status,2,c
  3146   001000  EF04  F008         	goto	u2731
  3147   001004  EF06  F008         	goto	u2730
  3148   001008                     u2731:
  3149   001008  EF09  F008         	goto	l3886
  3150   00100C                     u2730:
  3151   00100C  9AF1               	bcf	241,5,c	;volatile
  3152   00100E  EFF7  F007         	goto	l3880
  3153   001012                     l3886:
  3154   001012  5024               	movf	Interrupt_INTx_Edge_Init@int_obj^0,w,c
  3155   001014  6ED9               	movwf	fsr2l,c
  3156   001016  6ADA               	clrf	fsr2h,c
  3157   001018  0E03               	movlw	3
  3158   00101A  26D9               	addwf	fsr2l,f,c
  3159   00101C  04DE               	decf	postinc2,w,c
  3160   00101E  A4D8               	btfss	status,2,c
  3161   001020  EF14  F008         	goto	u2741
  3162   001024  EF16  F008         	goto	u2740
  3163   001028                     u2741:
  3164   001028  EFF7  F007         	goto	l3880
  3165   00102C                     u2740:
  3166   00102C  8AF1               	bsf	241,5,c	;volatile
  3167   00102E  EFF7  F007         	goto	l3880
  3168   001032                     l3892:
  3169                           
  3170                           ;MCAL_LAYER/interrupt/mcal_external_interrupt.c: 353:                      if (Failing_E
      +                          dge==int_obj->edge){(INTCON2bits.INTEDG2=0);}
  3171   001032  5024               	movf	Interrupt_INTx_Edge_Init@int_obj^0,w,c
  3172   001034  6ED9               	movwf	fsr2l,c
  3173   001036  6ADA               	clrf	fsr2h,c
  3174   001038  0E03               	movlw	3
  3175   00103A  26D9               	addwf	fsr2l,f,c
  3176   00103C  50DF               	movf	indf2,w,c
  3177   00103E  A4D8               	btfss	status,2,c
  3178   001040  EF24  F008         	goto	u2751
  3179   001044  EF26  F008         	goto	u2750
  3180   001048                     u2751:
  3181   001048  EF29  F008         	goto	l3896
  3182   00104C                     u2750:
  3183   00104C  98F1               	bcf	241,4,c	;volatile
  3184   00104E  EFF7  F007         	goto	l3880
  3185   001052                     l3896:
  3186   001052  5024               	movf	Interrupt_INTx_Edge_Init@int_obj^0,w,c
  3187   001054  6ED9               	movwf	fsr2l,c
  3188   001056  6ADA               	clrf	fsr2h,c
  3189   001058  0E03               	movlw	3
  3190   00105A  26D9               	addwf	fsr2l,f,c
  3191   00105C  04DE               	decf	postinc2,w,c
  3192   00105E  A4D8               	btfss	status,2,c
  3193   001060  EF34  F008         	goto	u2761
  3194   001064  EF36  F008         	goto	u2760
  3195   001068                     u2761:
  3196   001068  EFF7  F007         	goto	l3880
  3197   00106C                     u2760:
  3198   00106C  88F1               	bsf	241,4,c	;volatile
  3199   00106E  EFF7  F007         	goto	l3880
  3200   001072                     l3904:
  3201   001072  5024               	movf	Interrupt_INTx_Edge_Init@int_obj^0,w,c
  3202   001074  6ED9               	movwf	fsr2l,c
  3203   001076  6ADA               	clrf	fsr2h,c
  3204   001078  0E04               	movlw	4
  3205   00107A  26D9               	addwf	fsr2l,f,c
  3206   00107C  50DF               	movf	indf2,w,c
  3207   00107E  6E25               	movwf	??_Interrupt_INTx_Edge_Init^0,c
  3208   001080  6A26               	clrf	(??_Interrupt_INTx_Edge_Init+1)^0,c
  3209                           
  3210                           ; Switch on 2 bytes has been partitioned into a top level switch of size 1, and 1 sub-sw
      +                          itches
  3211                           ; Switch size 1, requested type "simple"
  3212                           ; Number of cases is 1, Range of values is 0 to 0
  3213                           ; switch strategies available:
  3214                           ; Name         Instructions Cycles
  3215                           ; simple_byte            4     3 (average)
  3216                           ;	Chosen strategy is simple_byte
  3217   001082  5026               	movf	(??_Interrupt_INTx_Edge_Init+1)^0,w,c
  3218   001084  0A00               	xorlw	0	; case 0
  3219   001086  B4D8               	btfsc	status,2,c
  3220   001088  EF48  F008         	goto	l6080
  3221   00108C  EFD7  F007         	goto	l3870
  3222   001090                     l6080:
  3223                           
  3224                           ; Switch size 1, requested type "simple"
  3225                           ; Number of cases is 3, Range of values is 0 to 2
  3226                           ; switch strategies available:
  3227                           ; Name         Instructions Cycles
  3228                           ; simple_byte           10     6 (average)
  3229                           ;	Chosen strategy is simple_byte
  3230   001090  5025               	movf	??_Interrupt_INTx_Edge_Init^0,w,c
  3231   001092  0A00               	xorlw	0	; case 0
  3232   001094  B4D8               	btfsc	status,2,c
  3233   001096  EFD9  F007         	goto	l3872
  3234   00109A  0A01               	xorlw	1	; case 1
  3235   00109C  B4D8               	btfsc	status,2,c
  3236   00109E  EFF9  F007         	goto	l3882
  3237   0010A2  0A03               	xorlw	3	; case 2
  3238   0010A4  B4D8               	btfsc	status,2,c
  3239   0010A6  EF19  F008         	goto	l3892
  3240   0010AA  EFD7  F007         	goto	l3870
  3241   0010AE                     l533:
  3242   0010AE  0012               	return		;funcret
  3243   0010B0                     __end_of_Interrupt_INTx_Edge_Init:
  3244                           	callstack 0
  3245                           
  3246 ;; *************** function _Interrupt_INTx_Disable *****************
  3247 ;; Defined at:
  3248 ;;		line 274 in file "MCAL_LAYER/interrupt/mcal_external_interrupt.c"
  3249 ;; Parameters:    Size  Location     Type
  3250 ;;  int_obj         1   35[COMRAM] PTR const struct .
  3251 ;;		 -> int1_obj(6), 
  3252 ;; Auto vars:     Size  Location     Type
  3253 ;;  ret             1    0        unsigned char 
  3254 ;; Return value:  Size  Location     Type
  3255 ;;                  1    wreg      unsigned char 
  3256 ;; Registers used:
  3257 ;;		wreg, fsr2l, fsr2h, status,2, status,0
  3258 ;; Tracked objects:
  3259 ;;		On entry : 0/0
  3260 ;;		On exit  : 0/0
  3261 ;;		Unchanged: 0/0
  3262 ;; Data sizes:     COMRAM   BANK0   BANK1   BANK2   BANK3   BANK4   BANK5   BANK6   BANK7   BANK8   BANK9  BANK10  BANK1
      +1  BANK12  BANK13  BANK14  BANK15
  3263 ;;      Params:         1       0       0       0       0       0       0       0       0       0       0       0       
      +0       0       0       0       0
  3264 ;;      Locals:         0       0       0       0       0       0       0       0       0       0       0       0       
      +0       0       0       0       0
  3265 ;;      Temps:          2       0       0       0       0       0       0       0       0       0       0       0       
      +0       0       0       0       0
  3266 ;;      Totals:         3       0       0       0       0       0       0       0       0       0       0       0       
      +0       0       0       0       0
  3267 ;;Total ram usage:        3 bytes
  3268 ;; Hardware stack levels used: 1
  3269 ;; Hardware stack levels required when called: 8
  3270 ;; This function calls:
  3271 ;;		Nothing
  3272 ;; This function is called by:
  3273 ;;		_Interrupt_INTx_Init
  3274 ;;		_Interrupt_INTx_DeInit
  3275 ;; This function uses a non-reentrant model
  3276 ;;
  3277                           
  3278                           	psect	text17
  3279   001D46                     __ptext17:
  3280                           	callstack 0
  3281   001D46                     _Interrupt_INTx_Disable:
  3282                           	callstack 20
  3283   001D46                     
  3284                           ;MCAL_LAYER/interrupt/mcal_external_interrupt.c: 277:     if (((void*)0) == int_obj ){
  3285   001D46  5024               	movf	Interrupt_INTx_Disable@int_obj^0,w,c
  3286   001D48  A4D8               	btfss	status,2,c
  3287   001D4A  EFA9  F00E         	goto	u2681
  3288   001D4E  EFAB  F00E         	goto	u2680
  3289   001D52                     u2681:
  3290   001D52  EFB6  F00E         	goto	l3844
  3291   001D56                     u2680:
  3292   001D56                     l3834:
  3293                           
  3294                           ;MCAL_LAYER/interrupt/mcal_external_interrupt.c: 279:     }
  3295   001D56  EFD4  F00E         	goto	l510
  3296   001D5A                     l505:
  3297   001D5A  98F2               	bcf	242,4,c	;volatile
  3298   001D5C                     l3836:
  3299   001D5C  EFD4  F00E         	goto	l510
  3300   001D60                     l507:
  3301   001D60  96F0               	bcf	240,3,c	;volatile
  3302   001D62  EFAE  F00E         	goto	l3836
  3303   001D66                     l508:
  3304   001D66  98F0               	bcf	240,4,c	;volatile
  3305   001D68  EFAE  F00E         	goto	l3836
  3306   001D6C                     l3844:
  3307   001D6C  5024               	movf	Interrupt_INTx_Disable@int_obj^0,w,c
  3308   001D6E  6ED9               	movwf	fsr2l,c
  3309   001D70  6ADA               	clrf	fsr2h,c
  3310   001D72  0E04               	movlw	4
  3311   001D74  26D9               	addwf	fsr2l,f,c
  3312   001D76  50DF               	movf	indf2,w,c
  3313   001D78  6E25               	movwf	??_Interrupt_INTx_Disable^0,c
  3314   001D7A  6A26               	clrf	(??_Interrupt_INTx_Disable+1)^0,c
  3315                           
  3316                           ; Switch on 2 bytes has been partitioned into a top level switch of size 1, and 1 sub-sw
      +                          itches
  3317                           ; Switch size 1, requested type "simple"
  3318                           ; Number of cases is 1, Range of values is 0 to 0
  3319                           ; switch strategies available:
  3320                           ; Name         Instructions Cycles
  3321                           ; simple_byte            4     3 (average)
  3322                           ;	Chosen strategy is simple_byte
  3323   001D7C  5026               	movf	(??_Interrupt_INTx_Disable+1)^0,w,c
  3324   001D7E  0A00               	xorlw	0	; case 0
  3325   001D80  B4D8               	btfsc	status,2,c
  3326   001D82  EFC5  F00E         	goto	l6082
  3327   001D86  EFAB  F00E         	goto	l3834
  3328   001D8A                     l6082:
  3329                           
  3330                           ; Switch size 1, requested type "simple"
  3331                           ; Number of cases is 3, Range of values is 0 to 2
  3332                           ; switch strategies available:
  3333                           ; Name         Instructions Cycles
  3334                           ; simple_byte           10     6 (average)
  3335                           ;	Chosen strategy is simple_byte
  3336   001D8A  5025               	movf	??_Interrupt_INTx_Disable^0,w,c
  3337   001D8C  0A00               	xorlw	0	; case 0
  3338   001D8E  B4D8               	btfsc	status,2,c
  3339   001D90  EFAD  F00E         	goto	l505
  3340   001D94  0A01               	xorlw	1	; case 1
  3341   001D96  B4D8               	btfsc	status,2,c
  3342   001D98  EFB0  F00E         	goto	l507
  3343   001D9C  0A03               	xorlw	3	; case 2
  3344   001D9E  B4D8               	btfsc	status,2,c
  3345   001DA0  EFB3  F00E         	goto	l508
  3346   001DA4  EFAB  F00E         	goto	l3834
  3347   001DA8                     l510:
  3348   001DA8  0012               	return		;funcret
  3349   001DAA                     __end_of_Interrupt_INTx_Disable:
  3350                           	callstack 0
  3351                           
  3352 ;; *************** function _Interrupt_INTx_ClearFlag *****************
  3353 ;; Defined at:
  3354 ;;		line 385 in file "MCAL_LAYER/interrupt/mcal_external_interrupt.c"
  3355 ;; Parameters:    Size  Location     Type
  3356 ;;  int_obj         1   35[COMRAM] PTR const struct .
  3357 ;;		 -> int1_obj(6), 
  3358 ;; Auto vars:     Size  Location     Type
  3359 ;;  ret             1    0        unsigned char 
  3360 ;; Return value:  Size  Location     Type
  3361 ;;                  1    wreg      unsigned char 
  3362 ;; Registers used:
  3363 ;;		wreg, fsr2l, fsr2h, status,2, status,0
  3364 ;; Tracked objects:
  3365 ;;		On entry : 0/0
  3366 ;;		On exit  : 0/0
  3367 ;;		Unchanged: 0/0
  3368 ;; Data sizes:     COMRAM   BANK0   BANK1   BANK2   BANK3   BANK4   BANK5   BANK6   BANK7   BANK8   BANK9  BANK10  BANK1
      +1  BANK12  BANK13  BANK14  BANK15
  3369 ;;      Params:         1       0       0       0       0       0       0       0       0       0       0       0       
      +0       0       0       0       0
  3370 ;;      Locals:         0       0       0       0       0       0       0       0       0       0       0       0       
      +0       0       0       0       0
  3371 ;;      Temps:          2       0       0       0       0       0       0       0       0       0       0       0       
      +0       0       0       0       0
  3372 ;;      Totals:         3       0       0       0       0       0       0       0       0       0       0       0       
      +0       0       0       0       0
  3373 ;;Total ram usage:        3 bytes
  3374 ;; Hardware stack levels used: 1
  3375 ;; Hardware stack levels required when called: 8
  3376 ;; This function calls:
  3377 ;;		Nothing
  3378 ;; This function is called by:
  3379 ;;		_Interrupt_INTx_Init
  3380 ;; This function uses a non-reentrant model
  3381 ;;
  3382                           
  3383                           	psect	text18
  3384   001DAA                     __ptext18:
  3385                           	callstack 0
  3386   001DAA                     _Interrupt_INTx_ClearFlag:
  3387                           	callstack 20
  3388   001DAA                     
  3389                           ;MCAL_LAYER/interrupt/mcal_external_interrupt.c: 389:     if (((void*)0) == int_obj ){
  3390   001DAA  5024               	movf	Interrupt_INTx_ClearFlag@int_obj^0,w,c
  3391   001DAC  A4D8               	btfss	status,2,c
  3392   001DAE  EFDB  F00E         	goto	u2691
  3393   001DB2  EFDD  F00E         	goto	u2690
  3394   001DB6                     u2691:
  3395   001DB6  EFE8  F00E         	goto	l3862
  3396   001DBA                     u2690:
  3397   001DBA                     l3852:
  3398                           
  3399                           ;MCAL_LAYER/interrupt/mcal_external_interrupt.c: 391:     }
  3400   001DBA  EF06  F00F         	goto	l549
  3401   001DBE                     l544:
  3402   001DBE  92F2               	bcf	242,1,c	;volatile
  3403   001DC0                     l3854:
  3404   001DC0  EF06  F00F         	goto	l549
  3405   001DC4                     l546:
  3406   001DC4  90F0               	bcf	240,0,c	;volatile
  3407   001DC6  EFE0  F00E         	goto	l3854
  3408   001DCA                     l547:
  3409   001DCA  92F0               	bcf	240,1,c	;volatile
  3410   001DCC  EFE0  F00E         	goto	l3854
  3411   001DD0                     l3862:
  3412   001DD0  5024               	movf	Interrupt_INTx_ClearFlag@int_obj^0,w,c
  3413   001DD2  6ED9               	movwf	fsr2l,c
  3414   001DD4  6ADA               	clrf	fsr2h,c
  3415   001DD6  0E04               	movlw	4
  3416   001DD8  26D9               	addwf	fsr2l,f,c
  3417   001DDA  50DF               	movf	indf2,w,c
  3418   001DDC  6E25               	movwf	??_Interrupt_INTx_ClearFlag^0,c
  3419   001DDE  6A26               	clrf	(??_Interrupt_INTx_ClearFlag+1)^0,c
  3420                           
  3421                           ; Switch on 2 bytes has been partitioned into a top level switch of size 1, and 1 sub-sw
      +                          itches
  3422                           ; Switch size 1, requested type "simple"
  3423                           ; Number of cases is 1, Range of values is 0 to 0
  3424                           ; switch strategies available:
  3425                           ; Name         Instructions Cycles
  3426                           ; simple_byte            4     3 (average)
  3427                           ;	Chosen strategy is simple_byte
  3428   001DE0  5026               	movf	(??_Interrupt_INTx_ClearFlag+1)^0,w,c
  3429   001DE2  0A00               	xorlw	0	; case 0
  3430   001DE4  B4D8               	btfsc	status,2,c
  3431   001DE6  EFF7  F00E         	goto	l6084
  3432   001DEA  EFDD  F00E         	goto	l3852
  3433   001DEE                     l6084:
  3434                           
  3435                           ; Switch size 1, requested type "simple"
  3436                           ; Number of cases is 3, Range of values is 0 to 2
  3437                           ; switch strategies available:
  3438                           ; Name         Instructions Cycles
  3439                           ; simple_byte           10     6 (average)
  3440                           ;	Chosen strategy is simple_byte
  3441   001DEE  5025               	movf	??_Interrupt_INTx_ClearFlag^0,w,c
  3442   001DF0  0A00               	xorlw	0	; case 0
  3443   001DF2  B4D8               	btfsc	status,2,c
  3444   001DF4  EFDF  F00E         	goto	l544
  3445   001DF8  0A01               	xorlw	1	; case 1
  3446   001DFA  B4D8               	btfsc	status,2,c
  3447   001DFC  EFE2  F00E         	goto	l546
  3448   001E00  0A03               	xorlw	3	; case 2
  3449   001E02  B4D8               	btfsc	status,2,c
  3450   001E04  EFE5  F00E         	goto	l547
  3451   001E08  EFDD  F00E         	goto	l3852
  3452   001E0C                     l549:
  3453   001E0C  0012               	return		;funcret
  3454   001E0E                     __end_of_Interrupt_INTx_ClearFlag:
  3455                           	callstack 0
  3456                           
  3457 ;; *************** function _Set_password *****************
  3458 ;; Defined at:
  3459 ;;		line 33 in file "function.c"
  3460 ;; Parameters:    Size  Location     Type
  3461 ;;		None
  3462 ;; Auto vars:     Size  Location     Type
  3463 ;;		None
  3464 ;; Return value:  Size  Location     Type
  3465 ;;                  1    wreg      void 
  3466 ;; Registers used:
  3467 ;;		wreg, fsr0l, fsr0h, fsr1l, fsr1h, fsr2l, fsr2h, status,2, status,0, tblptrl, tblptrh, tblptru, prodl, prodh, cstack
  3468 ;; Tracked objects:
  3469 ;;		On entry : 0/0
  3470 ;;		On exit  : 0/0
  3471 ;;		Unchanged: 0/0
  3472 ;; Data sizes:     COMRAM   BANK0   BANK1   BANK2   BANK3   BANK4   BANK5   BANK6   BANK7   BANK8   BANK9  BANK10  BANK1
      +1  BANK12  BANK13  BANK14  BANK15
  3473 ;;      Params:         0       0       0       0       0       0       0       0       0       0       0       0       
      +0       0       0       0       0
  3474 ;;      Locals:         0       0       0       0       0       0       0       0       0       0       0       0       
      +0       0       0       0       0
  3475 ;;      Temps:          0       2       0       0       0       0       0       0       0       0       0       0       
      +0       0       0       0       0
  3476 ;;      Totals:         0       2       0       0       0       0       0       0       0       0       0       0       
      +0       0       0       0       0
  3477 ;;Total ram usage:        2 bytes
  3478 ;; Hardware stack levels used: 1
  3479 ;; Hardware stack levels required when called: 14
  3480 ;; This function calls:
  3481 ;;		___wmul
  3482 ;;		_convert_byte_to_string
  3483 ;;		_keypad_get_value
  3484 ;;		_lcd_4bit_send_command
  3485 ;;		_lcd_4bit_send_string_pos
  3486 ;;		_password_handler
  3487 ;;		_password_reset
  3488 ;; This function is called by:
  3489 ;;		_main
  3490 ;; This function uses a non-reentrant model
  3491 ;;
  3492                           
  3493                           	psect	text19
  3494   000012                     __ptext19:
  3495                           	callstack 0
  3496   000012                     _Set_password:
  3497                           	callstack 16
  3498   000012                     
  3499                           ;function.c: 34:    lcd_4bit_send_command(&lcd,0X01);
  3500   000012  0E51               	movlw	low _lcd
  3501   000014  6E2E               	movwf	lcd_4bit_send_command@lcd^0,c
  3502   000016  0E01               	movlw	1
  3503   000018  6E2F               	movwf	lcd_4bit_send_command@command^0,c
  3504   00001A  ECC4  F00F         	call	_lcd_4bit_send_command	;wreg free
  3505   00001E                     
  3506                           ;function.c: 35:    _delay((unsigned long)((55)*(8000000UL/4000.0)));
  3507   00001E  0E8F               	movlw	143
  3508   000020  0100               	movlb	0	; () banked
  3509   000022  6FFE               	movwf	??_Set_password& (0+255),b
  3510   000024  0EDA               	movlw	218
  3511   000026                     u4427:
  3512   000026  2EE8               	decfsz	wreg,f,c
  3513   000028  D7FE               	bra	u4427
  3514   00002A  2FFE               	decfsz	??_Set_password& (0+255),f,b
  3515   00002C  D7FC               	bra	u4427
  3516   00002E  0000               	nop	
  3517   000030                     
  3518                           ;function.c: 36:    if (password_flag == 0){
  3519   000030  5045               	movf	_password_flag^0,w,c
  3520   000032  A4D8               	btfss	status,2,c
  3521   000034  EF1E  F000         	goto	u4221
  3522   000038  EF20  F000         	goto	u4220
  3523   00003C                     u4221:
  3524   00003C  EF3C  F001         	goto	l5708
  3525   000040                     u4220:
  3526   000040                     
  3527                           ;function.c: 37:         lcd_4bit_send_string_pos(&lcd,1,1," Enter New Password");
  3528   000040  0E51               	movlw	low _lcd
  3529   000042  0100               	movlb	0	; () banked
  3530   000044  6FE2               	movwf	lcd_4bit_send_string_pos@lcd& (0+255),b
  3531   000046  0E01               	movlw	1
  3532   000048  6FE3               	movwf	lcd_4bit_send_string_pos@row& (0+255),b
  3533   00004A  0E01               	movlw	1
  3534   00004C  6FE4               	movwf	lcd_4bit_send_string_pos@column& (0+255),b
  3535   00004E  0EBA               	movlw	low STR_10
  3536   000050  6FE5               	movwf	lcd_4bit_send_string_pos@str& (0+255),b
  3537   000052  0EFE               	movlw	high STR_10
  3538   000054  6FE6               	movwf	(lcd_4bit_send_string_pos@str+1)& (0+255),b
  3539   000056  ECAE  F011         	call	_lcd_4bit_send_string_pos	;wreg free
  3540                           
  3541                           ;function.c: 38:    lcd_4bit_send_string_pos(&lcd,3,8," ____");
  3542   00005A  0E51               	movlw	low _lcd
  3543   00005C  0100               	movlb	0	; () banked
  3544   00005E  6FE2               	movwf	lcd_4bit_send_string_pos@lcd& (0+255),b
  3545   000060  0E03               	movlw	3
  3546   000062  6FE3               	movwf	lcd_4bit_send_string_pos@row& (0+255),b
  3547   000064  0E08               	movlw	8
  3548   000066  6FE4               	movwf	lcd_4bit_send_string_pos@column& (0+255),b
  3549   000068  0EF4               	movlw	low STR_11
  3550   00006A  6FE5               	movwf	lcd_4bit_send_string_pos@str& (0+255),b
  3551   00006C  0EFF               	movlw	high STR_11
  3552   00006E  6FE6               	movwf	(lcd_4bit_send_string_pos@str+1)& (0+255),b
  3553   000070  ECAE  F011         	call	_lcd_4bit_send_string_pos	;wreg free
  3554   000074                     
  3555                           ;function.c: 39:    display_counter=9;
  3556   000074  0E09               	movlw	9
  3557   000076  6E44               	movwf	_display_counter^0,c
  3558                           
  3559                           ;function.c: 40:    while(password_counter != 4){
  3560   000078  EF9E  F000         	goto	l5668
  3561   00007C                     l5646:
  3562                           
  3563                           ;function.c: 41:        _delay((unsigned long)((55)*(8000000UL/4000.0)));
  3564   00007C  0E8F               	movlw	143
  3565   00007E  0100               	movlb	0	; () banked
  3566   000080  6FFE               	movwf	??_Set_password& (0+255),b
  3567   000082  0EDA               	movlw	218
  3568   000084                     u4437:
  3569   000084  2EE8               	decfsz	wreg,f,c
  3570   000086  D7FE               	bra	u4437
  3571   000088  2FFE               	decfsz	??_Set_password& (0+255),f,b
  3572   00008A  D7FC               	bra	u4437
  3573   00008C  0000               	nop	
  3574   00008E                     
  3575                           ;function.c: 42:         keypad_get_value(&keypad,&keypad_value);
  3576   00008E  0ED4               	movlw	low _keypad
  3577   000090  6E2C               	movwf	keypad_get_value@keypad_obj^0,c
  3578   000092  0E50               	movlw	low _keypad_value
  3579   000094  6E2D               	movwf	keypad_get_value@value^0,c
  3580   000096  EC63  F009         	call	_keypad_get_value	;wreg free
  3581   00009A                     
  3582                           ;function.c: 43:         if(keypad_value != (0xff)){
  3583   00009A  2850               	incf	_keypad_value^0,w,c
  3584   00009C  B4D8               	btfsc	status,2,c
  3585   00009E  EF53  F000         	goto	u4231
  3586   0000A2  EF55  F000         	goto	u4230
  3587   0000A6                     u4231:
  3588   0000A6  EF92  F000         	goto	l5666
  3589   0000AA                     u4230:
  3590   0000AA                     
  3591                           ;function.c: 44:           set_password1=set_password1*10+keypad_value;
  3592   0000AA  C03B  F024         	movff	_set_password1,___wmul@multiplier
  3593   0000AE  C03C  F025         	movff	_set_password1+1,___wmul@multiplier+1
  3594   0000B2  0E00               	movlw	0
  3595   0000B4  6E27               	movwf	(___wmul@multiplicand+1)^0,c
  3596   0000B6  0E0A               	movlw	10
  3597   0000B8  6E26               	movwf	___wmul@multiplicand^0,c
  3598   0000BA  ECCB  F012         	call	___wmul	;wreg free
  3599   0000BE  5050               	movf	_keypad_value^0,w,c
  3600   0000C0  2424               	addwf	?___wmul^0,w,c
  3601   0000C2  6E3B               	movwf	_set_password1^0,c
  3602   0000C4  0E00               	movlw	0
  3603   0000C6  2025               	addwfc	(?___wmul+1)^0,w,c
  3604   0000C8  6E3C               	movwf	(_set_password1+1)^0,c
  3605   0000CA                     
  3606                           ;function.c: 45:           convert_byte_to_string(keypad_value,display_value);
  3607   0000CA  0EB2               	movlw	low _display_value
  3608   0000CC  0100               	movlb	0	; () banked
  3609   0000CE  6FFC               	movwf	convert_byte_to_string@str& (0+255),b
  3610   0000D0  5050               	movf	_keypad_value^0,w,c
  3611   0000D2  EC36  F010         	call	_convert_byte_to_string
  3612   0000D6                     
  3613                           ;function.c: 46:           lcd_4bit_send_string_pos(&lcd,3,display_counter,display_value
      +                          );
  3614   0000D6  0E51               	movlw	low _lcd
  3615   0000D8  0100               	movlb	0	; () banked
  3616   0000DA  6FE2               	movwf	lcd_4bit_send_string_pos@lcd& (0+255),b
  3617   0000DC  0E03               	movlw	3
  3618   0000DE  6FE3               	movwf	lcd_4bit_send_string_pos@row& (0+255),b
  3619   0000E0  C044  F0E4         	movff	_display_counter,lcd_4bit_send_string_pos@column
  3620   0000E4  0EB2               	movlw	low _display_value
  3621   0000E6  6FE5               	movwf	lcd_4bit_send_string_pos@str& (0+255),b
  3622   0000E8  6BE6               	clrf	(lcd_4bit_send_string_pos@str+1)& (0+255),b
  3623   0000EA  ECAE  F011         	call	_lcd_4bit_send_string_pos	;wreg free
  3624   0000EE                     
  3625                           ;function.c: 47:            _delay((unsigned long)((200)*(8000000UL/4000.0)));
  3626   0000EE  0E03               	movlw	3
  3627   0000F0  0100               	movlb	0	; () banked
  3628   0000F2  6FFF               	movwf	(??_Set_password+1)& (0+255),b
  3629   0000F4  0E08               	movlw	8
  3630   0000F6  6FFE               	movwf	??_Set_password& (0+255),b
  3631   0000F8  0E77               	movlw	119
  3632   0000FA                     u4447:
  3633   0000FA  2EE8               	decfsz	wreg,f,c
  3634   0000FC  D7FE               	bra	u4447
  3635   0000FE  2FFE               	decfsz	??_Set_password& (0+255),f,b
  3636   000100  D7FC               	bra	u4447
  3637   000102  2FFF               	decfsz	(??_Set_password+1)& (0+255),f,b
  3638   000104  D7FA               	bra	u4447
  3639   000106                     
  3640                           ;function.c: 48:           lcd_4bit_send_string_pos(&lcd,3,display_counter,"*");
  3641   000106  0E51               	movlw	low _lcd
  3642   000108  0100               	movlb	0	; () banked
  3643   00010A  6FE2               	movwf	lcd_4bit_send_string_pos@lcd& (0+255),b
  3644   00010C  0E03               	movlw	3
  3645   00010E  6FE3               	movwf	lcd_4bit_send_string_pos@row& (0+255),b
  3646   000110  C044  F0E4         	movff	_display_counter,lcd_4bit_send_string_pos@column
  3647   000114  0EFD               	movlw	low STR_12
  3648   000116  6FE5               	movwf	lcd_4bit_send_string_pos@str& (0+255),b
  3649   000118  0EFF               	movlw	high STR_12
  3650   00011A  6FE6               	movwf	(lcd_4bit_send_string_pos@str+1)& (0+255),b
  3651   00011C  ECAE  F011         	call	_lcd_4bit_send_string_pos	;wreg free
  3652   000120                     
  3653                           ;function.c: 49:           display_counter++,password_counter++;
  3654   000120  2A44               	incf	_display_counter^0,f,c
  3655   000122  2A46               	incf	_password_counter^0,f,c
  3656   000124                     l5666:
  3657                           
  3658                           ;function.c: 51:            _delay((unsigned long)((200)*(8000000UL/4000.0)));
  3659   000124  0E03               	movlw	3
  3660   000126  0100               	movlb	0	; () banked
  3661   000128  6FFF               	movwf	(??_Set_password+1)& (0+255),b
  3662   00012A  0E08               	movlw	8
  3663   00012C  6FFE               	movwf	??_Set_password& (0+255),b
  3664   00012E  0E77               	movlw	119
  3665   000130                     u4457:
  3666   000130  2EE8               	decfsz	wreg,f,c
  3667   000132  D7FE               	bra	u4457
  3668   000134  2FFE               	decfsz	??_Set_password& (0+255),f,b
  3669   000136  D7FC               	bra	u4457
  3670   000138  2FFF               	decfsz	(??_Set_password+1)& (0+255),f,b
  3671   00013A  D7FA               	bra	u4457
  3672   00013C                     l5668:
  3673                           
  3674                           ;function.c: 40:    while(password_counter != 4){
  3675   00013C  0E04               	movlw	4
  3676   00013E  1846               	xorwf	_password_counter^0,w,c
  3677   000140  A4D8               	btfss	status,2,c
  3678   000142  EFA5  F000         	goto	u4241
  3679   000146  EFA7  F000         	goto	u4240
  3680   00014A                     u4241:
  3681   00014A  EF3E  F000         	goto	l5646
  3682   00014E                     u4240:
  3683   00014E                     
  3684                           ;function.c: 53:    password_counter=0;
  3685   00014E  0E00               	movlw	0
  3686   000150  6E46               	movwf	_password_counter^0,c
  3687   000152                     
  3688                           ;function.c: 54:     _delay((unsigned long)((55)*(8000000UL/4000.0)));
  3689   000152  0E8F               	movlw	143
  3690   000154  0100               	movlb	0	; () banked
  3691   000156  6FFE               	movwf	??_Set_password& (0+255),b
  3692   000158  0EDA               	movlw	218
  3693   00015A                     u4467:
  3694   00015A  2EE8               	decfsz	wreg,f,c
  3695   00015C  D7FE               	bra	u4467
  3696   00015E  2FFE               	decfsz	??_Set_password& (0+255),f,b
  3697   000160  D7FC               	bra	u4467
  3698   000162  0000               	nop	
  3699   000164                     
  3700                           ;function.c: 55:     lcd_4bit_send_command(&lcd,0X01);
  3701   000164  0E51               	movlw	low _lcd
  3702   000166  6E2E               	movwf	lcd_4bit_send_command@lcd^0,c
  3703   000168  0E01               	movlw	1
  3704   00016A  6E2F               	movwf	lcd_4bit_send_command@command^0,c
  3705   00016C  ECC4  F00F         	call	_lcd_4bit_send_command	;wreg free
  3706   000170                     
  3707                           ;function.c: 56:    lcd_4bit_send_string_pos(&lcd,1,1," Confirm Password");
  3708   000170  0E51               	movlw	low _lcd
  3709   000172  0100               	movlb	0	; () banked
  3710   000174  6FE2               	movwf	lcd_4bit_send_string_pos@lcd& (0+255),b
  3711   000176  0E01               	movlw	1
  3712   000178  6FE3               	movwf	lcd_4bit_send_string_pos@row& (0+255),b
  3713   00017A  0E01               	movlw	1
  3714   00017C  6FE4               	movwf	lcd_4bit_send_string_pos@column& (0+255),b
  3715   00017E  0E1A               	movlw	low STR_13
  3716   000180  6FE5               	movwf	lcd_4bit_send_string_pos@str& (0+255),b
  3717   000182  0EFF               	movlw	high STR_13
  3718   000184  6FE6               	movwf	(lcd_4bit_send_string_pos@str+1)& (0+255),b
  3719   000186  ECAE  F011         	call	_lcd_4bit_send_string_pos	;wreg free
  3720   00018A                     
  3721                           ;function.c: 57:    lcd_4bit_send_string_pos(&lcd,3,8," ____");
  3722   00018A  0E51               	movlw	low _lcd
  3723   00018C  0100               	movlb	0	; () banked
  3724   00018E  6FE2               	movwf	lcd_4bit_send_string_pos@lcd& (0+255),b
  3725   000190  0E03               	movlw	3
  3726   000192  6FE3               	movwf	lcd_4bit_send_string_pos@row& (0+255),b
  3727   000194  0E08               	movlw	8
  3728   000196  6FE4               	movwf	lcd_4bit_send_string_pos@column& (0+255),b
  3729   000198  0EF4               	movlw	low STR_11
  3730   00019A  6FE5               	movwf	lcd_4bit_send_string_pos@str& (0+255),b
  3731   00019C  0EFF               	movlw	high STR_11
  3732   00019E  6FE6               	movwf	(lcd_4bit_send_string_pos@str+1)& (0+255),b
  3733   0001A0  ECAE  F011         	call	_lcd_4bit_send_string_pos	;wreg free
  3734   0001A4                     
  3735                           ;function.c: 58:    display_counter=9;
  3736   0001A4  0E09               	movlw	9
  3737   0001A6  6E44               	movwf	_display_counter^0,c
  3738                           
  3739                           ;function.c: 59:      while(password_counter != 4){
  3740   0001A8  EF2D  F001         	goto	l5702
  3741   0001AC                     l5682:
  3742                           
  3743                           ;function.c: 60:         keypad_get_value(&keypad,&keypad_value);
  3744   0001AC  0ED4               	movlw	low _keypad
  3745   0001AE  6E2C               	movwf	keypad_get_value@keypad_obj^0,c
  3746   0001B0  0E50               	movlw	low _keypad_value
  3747   0001B2  6E2D               	movwf	keypad_get_value@value^0,c
  3748   0001B4  EC63  F009         	call	_keypad_get_value	;wreg free
  3749   0001B8                     
  3750                           ;function.c: 61:         if(keypad_value != (0xff)){
  3751   0001B8  2850               	incf	_keypad_value^0,w,c
  3752   0001BA  B4D8               	btfsc	status,2,c
  3753   0001BC  EFE2  F000         	goto	u4251
  3754   0001C0  EFE4  F000         	goto	u4250
  3755   0001C4                     u4251:
  3756   0001C4  EF21  F001         	goto	l5700
  3757   0001C8                     u4250:
  3758   0001C8                     
  3759                           ;function.c: 62:            set_password2=set_password2*10+keypad_value;
  3760   0001C8  C039  F024         	movff	_set_password2,___wmul@multiplier
  3761   0001CC  C03A  F025         	movff	_set_password2+1,___wmul@multiplier+1
  3762   0001D0  0E00               	movlw	0
  3763   0001D2  6E27               	movwf	(___wmul@multiplicand+1)^0,c
  3764   0001D4  0E0A               	movlw	10
  3765   0001D6  6E26               	movwf	___wmul@multiplicand^0,c
  3766   0001D8  ECCB  F012         	call	___wmul	;wreg free
  3767   0001DC  5050               	movf	_keypad_value^0,w,c
  3768   0001DE  2424               	addwf	?___wmul^0,w,c
  3769   0001E0  6E39               	movwf	_set_password2^0,c
  3770   0001E2  0E00               	movlw	0
  3771   0001E4  2025               	addwfc	(?___wmul+1)^0,w,c
  3772   0001E6  6E3A               	movwf	(_set_password2+1)^0,c
  3773   0001E8                     
  3774                           ;function.c: 63:           convert_byte_to_string(keypad_value,display_value);
  3775   0001E8  0EB2               	movlw	low _display_value
  3776   0001EA  0100               	movlb	0	; () banked
  3777   0001EC  6FFC               	movwf	convert_byte_to_string@str& (0+255),b
  3778   0001EE  5050               	movf	_keypad_value^0,w,c
  3779   0001F0  EC36  F010         	call	_convert_byte_to_string
  3780   0001F4                     
  3781                           ;function.c: 64:           lcd_4bit_send_string_pos(&lcd,3,display_counter,display_value
      +                          );
  3782   0001F4  0E51               	movlw	low _lcd
  3783   0001F6  0100               	movlb	0	; () banked
  3784   0001F8  6FE2               	movwf	lcd_4bit_send_string_pos@lcd& (0+255),b
  3785   0001FA  0E03               	movlw	3
  3786   0001FC  6FE3               	movwf	lcd_4bit_send_string_pos@row& (0+255),b
  3787   0001FE  C044  F0E4         	movff	_display_counter,lcd_4bit_send_string_pos@column
  3788   000202  0EB2               	movlw	low _display_value
  3789   000204  6FE5               	movwf	lcd_4bit_send_string_pos@str& (0+255),b
  3790   000206  6BE6               	clrf	(lcd_4bit_send_string_pos@str+1)& (0+255),b
  3791   000208  ECAE  F011         	call	_lcd_4bit_send_string_pos	;wreg free
  3792   00020C                     
  3793                           ;function.c: 65:            _delay((unsigned long)((200)*(8000000UL/4000.0)));
  3794   00020C  0E03               	movlw	3
  3795   00020E  0100               	movlb	0	; () banked
  3796   000210  6FFF               	movwf	(??_Set_password+1)& (0+255),b
  3797   000212  0E08               	movlw	8
  3798   000214  6FFE               	movwf	??_Set_password& (0+255),b
  3799   000216  0E77               	movlw	119
  3800   000218                     u4477:
  3801   000218  2EE8               	decfsz	wreg,f,c
  3802   00021A  D7FE               	bra	u4477
  3803   00021C  2FFE               	decfsz	??_Set_password& (0+255),f,b
  3804   00021E  D7FC               	bra	u4477
  3805   000220  2FFF               	decfsz	(??_Set_password+1)& (0+255),f,b
  3806   000222  D7FA               	bra	u4477
  3807   000224                     
  3808                           ;function.c: 66:           lcd_4bit_send_string_pos(&lcd,3,display_counter,"*");
  3809   000224  0E51               	movlw	low _lcd
  3810   000226  0100               	movlb	0	; () banked
  3811   000228  6FE2               	movwf	lcd_4bit_send_string_pos@lcd& (0+255),b
  3812   00022A  0E03               	movlw	3
  3813   00022C  6FE3               	movwf	lcd_4bit_send_string_pos@row& (0+255),b
  3814   00022E  C044  F0E4         	movff	_display_counter,lcd_4bit_send_string_pos@column
  3815   000232  0EFD               	movlw	low STR_12
  3816   000234  6FE5               	movwf	lcd_4bit_send_string_pos@str& (0+255),b
  3817   000236  0EFF               	movlw	high STR_12
  3818   000238  6FE6               	movwf	(lcd_4bit_send_string_pos@str+1)& (0+255),b
  3819   00023A  ECAE  F011         	call	_lcd_4bit_send_string_pos	;wreg free
  3820   00023E                     
  3821                           ;function.c: 67:           display_counter++,password_counter++;
  3822   00023E  2A44               	incf	_display_counter^0,f,c
  3823   000240  2A46               	incf	_password_counter^0,f,c
  3824   000242                     l5700:
  3825                           
  3826                           ;function.c: 69:            _delay((unsigned long)((200)*(8000000UL/4000.0)));
  3827   000242  0E03               	movlw	3
  3828   000244  0100               	movlb	0	; () banked
  3829   000246  6FFF               	movwf	(??_Set_password+1)& (0+255),b
  3830   000248  0E08               	movlw	8
  3831   00024A  6FFE               	movwf	??_Set_password& (0+255),b
  3832   00024C  0E77               	movlw	119
  3833   00024E                     u4487:
  3834   00024E  2EE8               	decfsz	wreg,f,c
  3835   000250  D7FE               	bra	u4487
  3836   000252  2FFE               	decfsz	??_Set_password& (0+255),f,b
  3837   000254  D7FC               	bra	u4487
  3838   000256  2FFF               	decfsz	(??_Set_password+1)& (0+255),f,b
  3839   000258  D7FA               	bra	u4487
  3840   00025A                     l5702:
  3841                           
  3842                           ;function.c: 59:      while(password_counter != 4){
  3843   00025A  0E04               	movlw	4
  3844   00025C  1846               	xorwf	_password_counter^0,w,c
  3845   00025E  A4D8               	btfss	status,2,c
  3846   000260  EF34  F001         	goto	u4261
  3847   000264  EF36  F001         	goto	u4260
  3848   000268                     u4261:
  3849   000268  EFD6  F000         	goto	l5682
  3850   00026C                     u4260:
  3851   00026C                     
  3852                           ;function.c: 71:     password_counter=0;
  3853   00026C  0E00               	movlw	0
  3854   00026E  6E46               	movwf	_password_counter^0,c
  3855   000270                     
  3856                           ;function.c: 72:     password_handler();
  3857   000270  EC6B  F005         	call	_password_handler	;wreg free
  3858                           
  3859                           ;function.c: 74:    }
  3860   000274  EF56  F002         	goto	l5774
  3861   000278                     l5708:
  3862                           
  3863                           ;function.c: 76:        lcd_4bit_send_string_pos(&lcd,1,1," Enter old Password");
  3864   000278  0E51               	movlw	low _lcd
  3865   00027A  0100               	movlb	0	; () banked
  3866   00027C  6FE2               	movwf	lcd_4bit_send_string_pos@lcd& (0+255),b
  3867   00027E  0E01               	movlw	1
  3868   000280  6FE3               	movwf	lcd_4bit_send_string_pos@row& (0+255),b
  3869   000282  0E01               	movlw	1
  3870   000284  6FE4               	movwf	lcd_4bit_send_string_pos@column& (0+255),b
  3871   000286  0EA6               	movlw	low STR_16
  3872   000288  6FE5               	movwf	lcd_4bit_send_string_pos@str& (0+255),b
  3873   00028A  0EFE               	movlw	high STR_16
  3874   00028C  6FE6               	movwf	(lcd_4bit_send_string_pos@str+1)& (0+255),b
  3875   00028E  ECAE  F011         	call	_lcd_4bit_send_string_pos	;wreg free
  3876                           
  3877                           ;function.c: 77:    lcd_4bit_send_string_pos(&lcd,3,8," ____");
  3878   000292  0E51               	movlw	low _lcd
  3879   000294  0100               	movlb	0	; () banked
  3880   000296  6FE2               	movwf	lcd_4bit_send_string_pos@lcd& (0+255),b
  3881   000298  0E03               	movlw	3
  3882   00029A  6FE3               	movwf	lcd_4bit_send_string_pos@row& (0+255),b
  3883   00029C  0E08               	movlw	8
  3884   00029E  6FE4               	movwf	lcd_4bit_send_string_pos@column& (0+255),b
  3885   0002A0  0EF4               	movlw	low STR_11
  3886   0002A2  6FE5               	movwf	lcd_4bit_send_string_pos@str& (0+255),b
  3887   0002A4  0EFF               	movlw	high STR_11
  3888   0002A6  6FE6               	movwf	(lcd_4bit_send_string_pos@str+1)& (0+255),b
  3889   0002A8  ECAE  F011         	call	_lcd_4bit_send_string_pos	;wreg free
  3890   0002AC                     
  3891                           ;function.c: 78:    display_counter=9;
  3892   0002AC  0E09               	movlw	9
  3893   0002AE  6E44               	movwf	_display_counter^0,c
  3894                           
  3895                           ;function.c: 79:    while(password_counter != 4){
  3896   0002B0  EFBA  F001         	goto	l5734
  3897   0002B4                     l5712:
  3898                           
  3899                           ;function.c: 80:        _delay((unsigned long)((55)*(8000000UL/4000.0)));
  3900   0002B4  0E8F               	movlw	143
  3901   0002B6  0100               	movlb	0	; () banked
  3902   0002B8  6FFE               	movwf	??_Set_password& (0+255),b
  3903   0002BA  0EDA               	movlw	218
  3904   0002BC                     u4497:
  3905   0002BC  2EE8               	decfsz	wreg,f,c
  3906   0002BE  D7FE               	bra	u4497
  3907   0002C0  2FFE               	decfsz	??_Set_password& (0+255),f,b
  3908   0002C2  D7FC               	bra	u4497
  3909   0002C4  0000               	nop	
  3910   0002C6                     
  3911                           ;function.c: 81:         keypad_get_value(&keypad,&keypad_value);
  3912   0002C6  0ED4               	movlw	low _keypad
  3913   0002C8  6E2C               	movwf	keypad_get_value@keypad_obj^0,c
  3914   0002CA  0E50               	movlw	low _keypad_value
  3915   0002CC  6E2D               	movwf	keypad_get_value@value^0,c
  3916   0002CE  EC63  F009         	call	_keypad_get_value	;wreg free
  3917   0002D2                     
  3918                           ;function.c: 82:         if(keypad_value != (0xff)){
  3919   0002D2  2850               	incf	_keypad_value^0,w,c
  3920   0002D4  B4D8               	btfsc	status,2,c
  3921   0002D6  EF6F  F001         	goto	u4271
  3922   0002DA  EF71  F001         	goto	u4270
  3923   0002DE                     u4271:
  3924   0002DE  EFAE  F001         	goto	l5732
  3925   0002E2                     u4270:
  3926   0002E2                     
  3927                           ;function.c: 83:           set_password1=set_password1*10+keypad_value;
  3928   0002E2  C03B  F024         	movff	_set_password1,___wmul@multiplier
  3929   0002E6  C03C  F025         	movff	_set_password1+1,___wmul@multiplier+1
  3930   0002EA  0E00               	movlw	0
  3931   0002EC  6E27               	movwf	(___wmul@multiplicand+1)^0,c
  3932   0002EE  0E0A               	movlw	10
  3933   0002F0  6E26               	movwf	___wmul@multiplicand^0,c
  3934   0002F2  ECCB  F012         	call	___wmul	;wreg free
  3935   0002F6  5050               	movf	_keypad_value^0,w,c
  3936   0002F8  2424               	addwf	?___wmul^0,w,c
  3937   0002FA  6E3B               	movwf	_set_password1^0,c
  3938   0002FC  0E00               	movlw	0
  3939   0002FE  2025               	addwfc	(?___wmul+1)^0,w,c
  3940   000300  6E3C               	movwf	(_set_password1+1)^0,c
  3941   000302                     
  3942                           ;function.c: 84:           convert_byte_to_string(keypad_value,display_value);
  3943   000302  0EB2               	movlw	low _display_value
  3944   000304  0100               	movlb	0	; () banked
  3945   000306  6FFC               	movwf	convert_byte_to_string@str& (0+255),b
  3946   000308  5050               	movf	_keypad_value^0,w,c
  3947   00030A  EC36  F010         	call	_convert_byte_to_string
  3948   00030E                     
  3949                           ;function.c: 85:           lcd_4bit_send_string_pos(&lcd,3,display_counter,display_value
      +                          );
  3950   00030E  0E51               	movlw	low _lcd
  3951   000310  0100               	movlb	0	; () banked
  3952   000312  6FE2               	movwf	lcd_4bit_send_string_pos@lcd& (0+255),b
  3953   000314  0E03               	movlw	3
  3954   000316  6FE3               	movwf	lcd_4bit_send_string_pos@row& (0+255),b
  3955   000318  C044  F0E4         	movff	_display_counter,lcd_4bit_send_string_pos@column
  3956   00031C  0EB2               	movlw	low _display_value
  3957   00031E  6FE5               	movwf	lcd_4bit_send_string_pos@str& (0+255),b
  3958   000320  6BE6               	clrf	(lcd_4bit_send_string_pos@str+1)& (0+255),b
  3959   000322  ECAE  F011         	call	_lcd_4bit_send_string_pos	;wreg free
  3960   000326                     
  3961                           ;function.c: 86:            _delay((unsigned long)((200)*(8000000UL/4000.0)));
  3962   000326  0E03               	movlw	3
  3963   000328  0100               	movlb	0	; () banked
  3964   00032A  6FFF               	movwf	(??_Set_password+1)& (0+255),b
  3965   00032C  0E08               	movlw	8
  3966   00032E  6FFE               	movwf	??_Set_password& (0+255),b
  3967   000330  0E77               	movlw	119
  3968   000332                     u4507:
  3969   000332  2EE8               	decfsz	wreg,f,c
  3970   000334  D7FE               	bra	u4507
  3971   000336  2FFE               	decfsz	??_Set_password& (0+255),f,b
  3972   000338  D7FC               	bra	u4507
  3973   00033A  2FFF               	decfsz	(??_Set_password+1)& (0+255),f,b
  3974   00033C  D7FA               	bra	u4507
  3975   00033E                     
  3976                           ;function.c: 87:           lcd_4bit_send_string_pos(&lcd,3,display_counter,"*");
  3977   00033E  0E51               	movlw	low _lcd
  3978   000340  0100               	movlb	0	; () banked
  3979   000342  6FE2               	movwf	lcd_4bit_send_string_pos@lcd& (0+255),b
  3980   000344  0E03               	movlw	3
  3981   000346  6FE3               	movwf	lcd_4bit_send_string_pos@row& (0+255),b
  3982   000348  C044  F0E4         	movff	_display_counter,lcd_4bit_send_string_pos@column
  3983   00034C  0EFD               	movlw	low STR_12
  3984   00034E  6FE5               	movwf	lcd_4bit_send_string_pos@str& (0+255),b
  3985   000350  0EFF               	movlw	high STR_12
  3986   000352  6FE6               	movwf	(lcd_4bit_send_string_pos@str+1)& (0+255),b
  3987   000354  ECAE  F011         	call	_lcd_4bit_send_string_pos	;wreg free
  3988   000358                     
  3989                           ;function.c: 88:           display_counter++,password_counter++;
  3990   000358  2A44               	incf	_display_counter^0,f,c
  3991   00035A  2A46               	incf	_password_counter^0,f,c
  3992   00035C                     l5732:
  3993                           
  3994                           ;function.c: 90:            _delay((unsigned long)((200)*(8000000UL/4000.0)));
  3995   00035C  0E03               	movlw	3
  3996   00035E  0100               	movlb	0	; () banked
  3997   000360  6FFF               	movwf	(??_Set_password+1)& (0+255),b
  3998   000362  0E08               	movlw	8
  3999   000364  6FFE               	movwf	??_Set_password& (0+255),b
  4000   000366  0E77               	movlw	119
  4001   000368                     u4517:
  4002   000368  2EE8               	decfsz	wreg,f,c
  4003   00036A  D7FE               	bra	u4517
  4004   00036C  2FFE               	decfsz	??_Set_password& (0+255),f,b
  4005   00036E  D7FC               	bra	u4517
  4006   000370  2FFF               	decfsz	(??_Set_password+1)& (0+255),f,b
  4007   000372  D7FA               	bra	u4517
  4008   000374                     l5734:
  4009                           
  4010                           ;function.c: 79:    while(password_counter != 4){
  4011   000374  0E04               	movlw	4
  4012   000376  1846               	xorwf	_password_counter^0,w,c
  4013   000378  A4D8               	btfss	status,2,c
  4014   00037A  EFC1  F001         	goto	u4281
  4015   00037E  EFC3  F001         	goto	u4280
  4016   000382                     u4281:
  4017   000382  EF5A  F001         	goto	l5712
  4018   000386                     u4280:
  4019   000386                     
  4020                           ;function.c: 92:    password_counter=0;
  4021   000386  0E00               	movlw	0
  4022   000388  6E46               	movwf	_password_counter^0,c
  4023   00038A                     
  4024                           ;function.c: 93:     _delay((unsigned long)((55)*(8000000UL/4000.0)));
  4025   00038A  0E8F               	movlw	143
  4026   00038C  0100               	movlb	0	; () banked
  4027   00038E  6FFE               	movwf	??_Set_password& (0+255),b
  4028   000390  0EDA               	movlw	218
  4029   000392                     u4527:
  4030   000392  2EE8               	decfsz	wreg,f,c
  4031   000394  D7FE               	bra	u4527
  4032   000396  2FFE               	decfsz	??_Set_password& (0+255),f,b
  4033   000398  D7FC               	bra	u4527
  4034   00039A  0000               	nop	
  4035   00039C                     
  4036                           ;function.c: 94:     lcd_4bit_send_command(&lcd,0X01);
  4037   00039C  0E51               	movlw	low _lcd
  4038   00039E  6E2E               	movwf	lcd_4bit_send_command@lcd^0,c
  4039   0003A0  0E01               	movlw	1
  4040   0003A2  6E2F               	movwf	lcd_4bit_send_command@command^0,c
  4041   0003A4  ECC4  F00F         	call	_lcd_4bit_send_command	;wreg free
  4042   0003A8                     
  4043                           ;function.c: 95:    lcd_4bit_send_string_pos(&lcd,1,1," Enter new Password");
  4044   0003A8  0E51               	movlw	low _lcd
  4045   0003AA  0100               	movlb	0	; () banked
  4046   0003AC  6FE2               	movwf	lcd_4bit_send_string_pos@lcd& (0+255),b
  4047   0003AE  0E01               	movlw	1
  4048   0003B0  6FE3               	movwf	lcd_4bit_send_string_pos@row& (0+255),b
  4049   0003B2  0E01               	movlw	1
  4050   0003B4  6FE4               	movwf	lcd_4bit_send_string_pos@column& (0+255),b
  4051   0003B6  0ECE               	movlw	low STR_19
  4052   0003B8  6FE5               	movwf	lcd_4bit_send_string_pos@str& (0+255),b
  4053   0003BA  0EFE               	movlw	high STR_19
  4054   0003BC  6FE6               	movwf	(lcd_4bit_send_string_pos@str+1)& (0+255),b
  4055   0003BE  ECAE  F011         	call	_lcd_4bit_send_string_pos	;wreg free
  4056   0003C2                     
  4057                           ;function.c: 96:    lcd_4bit_send_string_pos(&lcd,3,8," ____");
  4058   0003C2  0E51               	movlw	low _lcd
  4059   0003C4  0100               	movlb	0	; () banked
  4060   0003C6  6FE2               	movwf	lcd_4bit_send_string_pos@lcd& (0+255),b
  4061   0003C8  0E03               	movlw	3
  4062   0003CA  6FE3               	movwf	lcd_4bit_send_string_pos@row& (0+255),b
  4063   0003CC  0E08               	movlw	8
  4064   0003CE  6FE4               	movwf	lcd_4bit_send_string_pos@column& (0+255),b
  4065   0003D0  0EF4               	movlw	low STR_11
  4066   0003D2  6FE5               	movwf	lcd_4bit_send_string_pos@str& (0+255),b
  4067   0003D4  0EFF               	movlw	high STR_11
  4068   0003D6  6FE6               	movwf	(lcd_4bit_send_string_pos@str+1)& (0+255),b
  4069   0003D8  ECAE  F011         	call	_lcd_4bit_send_string_pos	;wreg free
  4070   0003DC                     
  4071                           ;function.c: 97:    display_counter=9;
  4072   0003DC  0E09               	movlw	9
  4073   0003DE  6E44               	movwf	_display_counter^0,c
  4074                           
  4075                           ;function.c: 98:      while(password_counter != 4){
  4076   0003E0  EF49  F002         	goto	l5768
  4077   0003E4                     l5748:
  4078                           
  4079                           ;function.c: 99:         keypad_get_value(&keypad,&keypad_value);
  4080   0003E4  0ED4               	movlw	low _keypad
  4081   0003E6  6E2C               	movwf	keypad_get_value@keypad_obj^0,c
  4082   0003E8  0E50               	movlw	low _keypad_value
  4083   0003EA  6E2D               	movwf	keypad_get_value@value^0,c
  4084   0003EC  EC63  F009         	call	_keypad_get_value	;wreg free
  4085   0003F0                     
  4086                           ;function.c: 100:         if(keypad_value != (0xff)){
  4087   0003F0  2850               	incf	_keypad_value^0,w,c
  4088   0003F2  B4D8               	btfsc	status,2,c
  4089   0003F4  EFFE  F001         	goto	u4291
  4090   0003F8  EF00  F002         	goto	u4290
  4091   0003FC                     u4291:
  4092   0003FC  EF3D  F002         	goto	l5766
  4093   000400                     u4290:
  4094   000400                     
  4095                           ;function.c: 101:            set_password2=set_password2*10+keypad_value;
  4096   000400  C039  F024         	movff	_set_password2,___wmul@multiplier
  4097   000404  C03A  F025         	movff	_set_password2+1,___wmul@multiplier+1
  4098   000408  0E00               	movlw	0
  4099   00040A  6E27               	movwf	(___wmul@multiplicand+1)^0,c
  4100   00040C  0E0A               	movlw	10
  4101   00040E  6E26               	movwf	___wmul@multiplicand^0,c
  4102   000410  ECCB  F012         	call	___wmul	;wreg free
  4103   000414  5050               	movf	_keypad_value^0,w,c
  4104   000416  2424               	addwf	?___wmul^0,w,c
  4105   000418  6E39               	movwf	_set_password2^0,c
  4106   00041A  0E00               	movlw	0
  4107   00041C  2025               	addwfc	(?___wmul+1)^0,w,c
  4108   00041E  6E3A               	movwf	(_set_password2+1)^0,c
  4109   000420                     
  4110                           ;function.c: 102:           convert_byte_to_string(keypad_value,display_value);
  4111   000420  0EB2               	movlw	low _display_value
  4112   000422  0100               	movlb	0	; () banked
  4113   000424  6FFC               	movwf	convert_byte_to_string@str& (0+255),b
  4114   000426  5050               	movf	_keypad_value^0,w,c
  4115   000428  EC36  F010         	call	_convert_byte_to_string
  4116   00042C                     
  4117                           ;function.c: 103:           lcd_4bit_send_string_pos(&lcd,3,display_counter,display_valu
      +                          e);
  4118   00042C  0E51               	movlw	low _lcd
  4119   00042E  0100               	movlb	0	; () banked
  4120   000430  6FE2               	movwf	lcd_4bit_send_string_pos@lcd& (0+255),b
  4121   000432  0E03               	movlw	3
  4122   000434  6FE3               	movwf	lcd_4bit_send_string_pos@row& (0+255),b
  4123   000436  C044  F0E4         	movff	_display_counter,lcd_4bit_send_string_pos@column
  4124   00043A  0EB2               	movlw	low _display_value
  4125   00043C  6FE5               	movwf	lcd_4bit_send_string_pos@str& (0+255),b
  4126   00043E  6BE6               	clrf	(lcd_4bit_send_string_pos@str+1)& (0+255),b
  4127   000440  ECAE  F011         	call	_lcd_4bit_send_string_pos	;wreg free
  4128   000444                     
  4129                           ;function.c: 104:            _delay((unsigned long)((200)*(8000000UL/4000.0)));
  4130   000444  0E03               	movlw	3
  4131   000446  0100               	movlb	0	; () banked
  4132   000448  6FFF               	movwf	(??_Set_password+1)& (0+255),b
  4133   00044A  0E08               	movlw	8
  4134   00044C  6FFE               	movwf	??_Set_password& (0+255),b
  4135   00044E  0E77               	movlw	119
  4136   000450                     u4537:
  4137   000450  2EE8               	decfsz	wreg,f,c
  4138   000452  D7FE               	bra	u4537
  4139   000454  2FFE               	decfsz	??_Set_password& (0+255),f,b
  4140   000456  D7FC               	bra	u4537
  4141   000458  2FFF               	decfsz	(??_Set_password+1)& (0+255),f,b
  4142   00045A  D7FA               	bra	u4537
  4143   00045C                     
  4144                           ;function.c: 105:           lcd_4bit_send_string_pos(&lcd,3,display_counter,"*");
  4145   00045C  0E51               	movlw	low _lcd
  4146   00045E  0100               	movlb	0	; () banked
  4147   000460  6FE2               	movwf	lcd_4bit_send_string_pos@lcd& (0+255),b
  4148   000462  0E03               	movlw	3
  4149   000464  6FE3               	movwf	lcd_4bit_send_string_pos@row& (0+255),b
  4150   000466  C044  F0E4         	movff	_display_counter,lcd_4bit_send_string_pos@column
  4151   00046A  0EFD               	movlw	low STR_12
  4152   00046C  6FE5               	movwf	lcd_4bit_send_string_pos@str& (0+255),b
  4153   00046E  0EFF               	movlw	high STR_12
  4154   000470  6FE6               	movwf	(lcd_4bit_send_string_pos@str+1)& (0+255),b
  4155   000472  ECAE  F011         	call	_lcd_4bit_send_string_pos	;wreg free
  4156   000476                     
  4157                           ;function.c: 106:           display_counter++,password_counter++;
  4158   000476  2A44               	incf	_display_counter^0,f,c
  4159   000478  2A46               	incf	_password_counter^0,f,c
  4160   00047A                     l5766:
  4161                           
  4162                           ;function.c: 108:            _delay((unsigned long)((200)*(8000000UL/4000.0)));
  4163   00047A  0E03               	movlw	3
  4164   00047C  0100               	movlb	0	; () banked
  4165   00047E  6FFF               	movwf	(??_Set_password+1)& (0+255),b
  4166   000480  0E08               	movlw	8
  4167   000482  6FFE               	movwf	??_Set_password& (0+255),b
  4168   000484  0E77               	movlw	119
  4169   000486                     u4547:
  4170   000486  2EE8               	decfsz	wreg,f,c
  4171   000488  D7FE               	bra	u4547
  4172   00048A  2FFE               	decfsz	??_Set_password& (0+255),f,b
  4173   00048C  D7FC               	bra	u4547
  4174   00048E  2FFF               	decfsz	(??_Set_password+1)& (0+255),f,b
  4175   000490  D7FA               	bra	u4547
  4176   000492                     l5768:
  4177                           
  4178                           ;function.c: 98:      while(password_counter != 4){
  4179   000492  0E04               	movlw	4
  4180   000494  1846               	xorwf	_password_counter^0,w,c
  4181   000496  A4D8               	btfss	status,2,c
  4182   000498  EF50  F002         	goto	u4301
  4183   00049C  EF52  F002         	goto	u4300
  4184   0004A0                     u4301:
  4185   0004A0  EFF2  F001         	goto	l5748
  4186   0004A4                     u4300:
  4187   0004A4                     
  4188                           ;function.c: 110:     password_counter=0;
  4189   0004A4  0E00               	movlw	0
  4190   0004A6  6E46               	movwf	_password_counter^0,c
  4191   0004A8                     
  4192                           ;function.c: 111:     password_reset();
  4193   0004A8  EC4A  F003         	call	_password_reset	;wreg free
  4194   0004AC                     l5774:
  4195                           
  4196                           ;function.c: 114:    safe_flag=1;
  4197   0004AC  0E01               	movlw	1
  4198   0004AE  6E42               	movwf	_safe_flag^0,c
  4199   0004B0  0012               	return		;funcret
  4200   0004B2                     __end_of_Set_password:
  4201                           	callstack 0
  4202                           
  4203 ;; *************** function _password_reset *****************
  4204 ;; Defined at:
  4205 ;;		line 216 in file "function.c"
  4206 ;; Parameters:    Size  Location     Type
  4207 ;;		None
  4208 ;; Auto vars:     Size  Location     Type
  4209 ;;		None
  4210 ;; Return value:  Size  Location     Type
  4211 ;;                  1    wreg      void 
  4212 ;; Registers used:
  4213 ;;		wreg, fsr0l, fsr0h, fsr2l, fsr2h, status,2, status,0, tblptrl, tblptrh, tblptru, prodl, prodh, cstack
  4214 ;; Tracked objects:
  4215 ;;		On entry : 0/0
  4216 ;;		On exit  : 0/0
  4217 ;;		Unchanged: 0/0
  4218 ;; Data sizes:     COMRAM   BANK0   BANK1   BANK2   BANK3   BANK4   BANK5   BANK6   BANK7   BANK8   BANK9  BANK10  BANK1
      +1  BANK12  BANK13  BANK14  BANK15
  4219 ;;      Params:         0       0       0       0       0       0       0       0       0       0       0       0       
      +0       0       0       0       0
  4220 ;;      Locals:         0       0       0       0       0       0       0       0       0       0       0       0       
      +0       0       0       0       0
  4221 ;;      Temps:          2       0       0       0       0       0       0       0       0       0       0       0       
      +0       0       0       0       0
  4222 ;;      Totals:         2       0       0       0       0       0       0       0       0       0       0       0       
      +0       0       0       0       0
  4223 ;;Total ram usage:        2 bytes
  4224 ;; Hardware stack levels used: 1
  4225 ;; Hardware stack levels required when called: 13
  4226 ;; This function calls:
  4227 ;;		_Data_EEPROM_ReadByte
  4228 ;;		_Data_EEPROM_WriteByte
  4229 ;;		___lwdiv
  4230 ;;		___lwmod
  4231 ;;		___wmul
  4232 ;;		_lcd_4bit_send_command
  4233 ;;		_lcd_4bit_send_string_pos
  4234 ;; This function is called by:
  4235 ;;		_Set_password
  4236 ;; This function uses a non-reentrant model
  4237 ;;
  4238                           
  4239                           	psect	text20
  4240   000694                     __ptext20:
  4241                           	callstack 0
  4242   000694                     _password_reset:
  4243                           	callstack 16
  4244   000694                     
  4245                           ;function.c: 217:     Data_EEPROM_ReadByte(0x3F9,&high_pass);
  4246   000694  0E03               	movlw	3
  4247   000696  6E25               	movwf	(Data_EEPROM_ReadByte@bAdd+1)^0,c
  4248   000698  0EF9               	movlw	249
  4249   00069A  6E24               	movwf	Data_EEPROM_ReadByte@bAdd^0,c
  4250   00069C  0E4E               	movlw	low _high_pass
  4251   00069E  6E26               	movwf	Data_EEPROM_ReadByte@bData^0,c
  4252   0006A0  EC54  F011         	call	_Data_EEPROM_ReadByte	;wreg free
  4253                           
  4254                           ;function.c: 218:     Data_EEPROM_ReadByte(0x3FA,&low_pass);
  4255   0006A4  0E03               	movlw	3
  4256   0006A6  6E25               	movwf	(Data_EEPROM_ReadByte@bAdd+1)^0,c
  4257   0006A8  0EFA               	movlw	250
  4258   0006AA  6E24               	movwf	Data_EEPROM_ReadByte@bAdd^0,c
  4259   0006AC  0E4C               	movlw	low _low_pass
  4260   0006AE  6E26               	movwf	Data_EEPROM_ReadByte@bData^0,c
  4261   0006B0  EC54  F011         	call	_Data_EEPROM_ReadByte	;wreg free
  4262   0006B4                     
  4263                           ;function.c: 220:     memory_value=high_pass*100+low_pass;
  4264   0006B4  C04E  F024         	movff	_high_pass,___wmul@multiplier
  4265   0006B8  C04F  F025         	movff	_high_pass+1,___wmul@multiplier+1
  4266   0006BC  0E00               	movlw	0
  4267   0006BE  6E27               	movwf	(___wmul@multiplicand+1)^0,c
  4268   0006C0  0E64               	movlw	100
  4269   0006C2  6E26               	movwf	___wmul@multiplicand^0,c
  4270   0006C4  ECCB  F012         	call	___wmul	;wreg free
  4271   0006C8  504C               	movf	_low_pass^0,w,c
  4272   0006CA  2424               	addwf	?___wmul^0,w,c
  4273   0006CC  0100               	movlb	0	; () banked
  4274   0006CE  6FA4               	movwf	_memory_value& (0+255),b
  4275   0006D0  504D               	movf	(_low_pass+1)^0,w,c
  4276   0006D2  2025               	addwfc	(?___wmul+1)^0,w,c
  4277   0006D4  6FA5               	movwf	(_memory_value+1)& (0+255),b
  4278   0006D6                     
  4279                           ; BSR set to: 0
  4280                           ;function.c: 222:      if(memory_value==set_password1){
  4281   0006D6  503B               	movf	_set_password1^0,w,c
  4282   0006D8  19A4               	xorwf	_memory_value& (0+255),w,b
  4283   0006DA  E107               	bnz	u4181
  4284   0006DC  503C               	movf	(_set_password1+1)^0,w,c
  4285   0006DE  19A5               	xorwf	(_memory_value+1)& (0+255),w,b
  4286   0006E0  A4D8               	btfss	status,2,c
  4287   0006E2  EF75  F003         	goto	u4181
  4288   0006E6  EF77  F003         	goto	u4180
  4289   0006EA                     u4181:
  4290   0006EA  EFDA  F003         	goto	l5526
  4291   0006EE                     u4180:
  4292   0006EE                     
  4293                           ; BSR set to: 0
  4294                           ;function.c: 223:      lcd_4bit_send_command(&lcd,0X01);
  4295   0006EE  0E51               	movlw	low _lcd
  4296   0006F0  6E2E               	movwf	lcd_4bit_send_command@lcd^0,c
  4297   0006F2  0E01               	movlw	1
  4298   0006F4  6E2F               	movwf	lcd_4bit_send_command@command^0,c
  4299   0006F6  ECC4  F00F         	call	_lcd_4bit_send_command	;wreg free
  4300   0006FA                     
  4301                           ;function.c: 224:       high_pass=set_password2/100;
  4302   0006FA  C039  F024         	movff	_set_password2,___lwdiv@dividend
  4303   0006FE  C03A  F025         	movff	_set_password2+1,___lwdiv@dividend+1
  4304   000702  0E00               	movlw	0
  4305   000704  6E27               	movwf	(___lwdiv@divisor+1)^0,c
  4306   000706  0E64               	movlw	100
  4307   000708  6E26               	movwf	___lwdiv@divisor^0,c
  4308   00070A  EC5F  F00D         	call	___lwdiv	;wreg free
  4309   00070E  C024  F04E         	movff	?___lwdiv,_high_pass
  4310   000712  C025  F04F         	movff	?___lwdiv+1,_high_pass+1
  4311   000716                     
  4312                           ;function.c: 225:      low_pass=set_password2%100;
  4313   000716  C039  F024         	movff	_set_password2,___lwmod@dividend
  4314   00071A  C03A  F025         	movff	_set_password2+1,___lwmod@dividend+1
  4315   00071E  0E00               	movlw	0
  4316   000720  6E27               	movwf	(___lwmod@divisor+1)^0,c
  4317   000722  0E64               	movlw	100
  4318   000724  6E26               	movwf	___lwmod@divisor^0,c
  4319   000726  EC07  F00F         	call	___lwmod	;wreg free
  4320   00072A  C024  F04C         	movff	?___lwmod,_low_pass
  4321   00072E  C025  F04D         	movff	?___lwmod+1,_low_pass+1
  4322   000732                     
  4323                           ;function.c: 226:      Data_EEPROM_WriteByte(0x3F9,high_pass);
  4324   000732  0E03               	movlw	3
  4325   000734  6E25               	movwf	(Data_EEPROM_WriteByte@bAdd+1)^0,c
  4326   000736  0EF9               	movlw	249
  4327   000738  6E24               	movwf	Data_EEPROM_WriteByte@bAdd^0,c
  4328   00073A  C04E  F026         	movff	_high_pass,Data_EEPROM_WriteByte@bData
  4329   00073E  C04F  F027         	movff	_high_pass+1,Data_EEPROM_WriteByte@bData+1
  4330   000742  ECF1  F010         	call	_Data_EEPROM_WriteByte	;wreg free
  4331   000746                     
  4332                           ;function.c: 227:      Data_EEPROM_WriteByte(0x3FA,low_pass);
  4333   000746  0E03               	movlw	3
  4334   000748  6E25               	movwf	(Data_EEPROM_WriteByte@bAdd+1)^0,c
  4335   00074A  0EFA               	movlw	250
  4336   00074C  6E24               	movwf	Data_EEPROM_WriteByte@bAdd^0,c
  4337   00074E  C04C  F026         	movff	_low_pass,Data_EEPROM_WriteByte@bData
  4338   000752  C04D  F027         	movff	_low_pass+1,Data_EEPROM_WriteByte@bData+1
  4339   000756  ECF1  F010         	call	_Data_EEPROM_WriteByte	;wreg free
  4340   00075A                     
  4341                           ;function.c: 229:      lcd_4bit_send_string_pos(&lcd,2,1," Password Changed");
  4342   00075A  0E51               	movlw	low _lcd
  4343   00075C  0100               	movlb	0	; () banked
  4344   00075E  6FE2               	movwf	lcd_4bit_send_string_pos@lcd& (0+255),b
  4345   000760  0E02               	movlw	2
  4346   000762  6FE3               	movwf	lcd_4bit_send_string_pos@row& (0+255),b
  4347   000764  0E01               	movlw	1
  4348   000766  6FE4               	movwf	lcd_4bit_send_string_pos@column& (0+255),b
  4349   000768  0E08               	movlw	low STR_33
  4350   00076A  6FE5               	movwf	lcd_4bit_send_string_pos@str& (0+255),b
  4351   00076C  0EFF               	movlw	high STR_33
  4352   00076E  6FE6               	movwf	(lcd_4bit_send_string_pos@str+1)& (0+255),b
  4353   000770  ECAE  F011         	call	_lcd_4bit_send_string_pos	;wreg free
  4354   000774                     
  4355                           ;function.c: 230:      lcd_4bit_send_string_pos(&lcd,3,1," Successfully");
  4356   000774  0E51               	movlw	low _lcd
  4357   000776  0100               	movlb	0	; () banked
  4358   000778  6FE2               	movwf	lcd_4bit_send_string_pos@lcd& (0+255),b
  4359   00077A  0E03               	movlw	3
  4360   00077C  6FE3               	movwf	lcd_4bit_send_string_pos@row& (0+255),b
  4361   00077E  0E01               	movlw	1
  4362   000780  6FE4               	movwf	lcd_4bit_send_string_pos@column& (0+255),b
  4363   000782  0ED0               	movlw	low STR_28
  4364   000784  6FE5               	movwf	lcd_4bit_send_string_pos@str& (0+255),b
  4365   000786  0EFF               	movlw	high STR_28
  4366   000788  6FE6               	movwf	(lcd_4bit_send_string_pos@str+1)& (0+255),b
  4367   00078A  ECAE  F011         	call	_lcd_4bit_send_string_pos	;wreg free
  4368   00078E                     l5522:
  4369                           
  4370                           ;function.c: 231:      _delay((unsigned long)((1500)*(8000000UL/4000.0)));
  4371   00078E  0E10               	movlw	16
  4372   000790  6E36               	movwf	(??_password_reset+1)^0,c
  4373   000792  0E39               	movlw	57
  4374   000794  6E35               	movwf	??_password_reset^0,c
  4375   000796  0E0E               	movlw	14
  4376   000798                     u4557:
  4377   000798  2EE8               	decfsz	wreg,f,c
  4378   00079A  D7FE               	bra	u4557
  4379   00079C  2E35               	decfsz	??_password_reset^0,f,c
  4380   00079E  D7FC               	bra	u4557
  4381   0007A0  2E36               	decfsz	(??_password_reset+1)^0,f,c
  4382   0007A2  D7FA               	bra	u4557
  4383   0007A4                     
  4384                           ;function.c: 232:      lcd_4bit_send_command(&lcd,0X01);
  4385   0007A4  0E51               	movlw	low _lcd
  4386   0007A6  6E2E               	movwf	lcd_4bit_send_command@lcd^0,c
  4387   0007A8  0E01               	movlw	1
  4388   0007AA  6E2F               	movwf	lcd_4bit_send_command@command^0,c
  4389   0007AC  ECC4  F00F         	call	_lcd_4bit_send_command	;wreg free
  4390                           
  4391                           ;function.c: 233:     }
  4392   0007B0  EFFC  F003         	goto	l5536
  4393   0007B4                     l5526:
  4394                           
  4395                           ; BSR set to: 0
  4396                           ;function.c: 235:            lcd_4bit_send_command(&lcd,0X01);
  4397   0007B4  0E51               	movlw	low _lcd
  4398   0007B6  6E2E               	movwf	lcd_4bit_send_command@lcd^0,c
  4399   0007B8  0E01               	movlw	1
  4400   0007BA  6E2F               	movwf	lcd_4bit_send_command@command^0,c
  4401   0007BC  ECC4  F00F         	call	_lcd_4bit_send_command	;wreg free
  4402   0007C0                     
  4403                           ;function.c: 236:      lcd_4bit_send_string_pos(&lcd,2,1," Password Wrong");
  4404   0007C0  0E51               	movlw	low _lcd
  4405   0007C2  0100               	movlb	0	; () banked
  4406   0007C4  6FE2               	movwf	lcd_4bit_send_string_pos@lcd& (0+255),b
  4407   0007C6  0E02               	movlw	2
  4408   0007C8  6FE3               	movwf	lcd_4bit_send_string_pos@row& (0+255),b
  4409   0007CA  0E01               	movlw	1
  4410   0007CC  6FE4               	movwf	lcd_4bit_send_string_pos@column& (0+255),b
  4411   0007CE  0E92               	movlw	low STR_35
  4412   0007D0  6FE5               	movwf	lcd_4bit_send_string_pos@str& (0+255),b
  4413   0007D2  0EFF               	movlw	high STR_35
  4414   0007D4  6FE6               	movwf	(lcd_4bit_send_string_pos@str+1)& (0+255),b
  4415   0007D6  ECAE  F011         	call	_lcd_4bit_send_string_pos	;wreg free
  4416   0007DA                     
  4417                           ;function.c: 237:      lcd_4bit_send_string_pos(&lcd,3,1," Please,Try again");
  4418   0007DA  0E51               	movlw	low _lcd
  4419   0007DC  0100               	movlb	0	; () banked
  4420   0007DE  6FE2               	movwf	lcd_4bit_send_string_pos@lcd& (0+255),b
  4421   0007E0  0E03               	movlw	3
  4422   0007E2  6FE3               	movwf	lcd_4bit_send_string_pos@row& (0+255),b
  4423   0007E4  0E01               	movlw	1
  4424   0007E6  6FE4               	movwf	lcd_4bit_send_string_pos@column& (0+255),b
  4425   0007E8  0E2C               	movlw	low STR_30
  4426   0007EA  6FE5               	movwf	lcd_4bit_send_string_pos@str& (0+255),b
  4427   0007EC  0EFF               	movlw	high STR_30
  4428   0007EE  6FE6               	movwf	(lcd_4bit_send_string_pos@str+1)& (0+255),b
  4429   0007F0  ECAE  F011         	call	_lcd_4bit_send_string_pos	;wreg free
  4430   0007F4  EFC7  F003         	goto	l5522
  4431   0007F8                     l5536:
  4432                           
  4433                           ;function.c: 241:       set_password1=0,set_password2=0,high_pass=0,low_pass=0;
  4434   0007F8  0E00               	movlw	0
  4435   0007FA  6E3C               	movwf	(_set_password1+1)^0,c
  4436   0007FC  0E00               	movlw	0
  4437   0007FE  6E3B               	movwf	_set_password1^0,c
  4438   000800  0E00               	movlw	0
  4439   000802  6E3A               	movwf	(_set_password2+1)^0,c
  4440   000804  0E00               	movlw	0
  4441   000806  6E39               	movwf	_set_password2^0,c
  4442   000808  0E00               	movlw	0
  4443   00080A  6E4F               	movwf	(_high_pass+1)^0,c
  4444   00080C  0E00               	movlw	0
  4445   00080E  6E4E               	movwf	_high_pass^0,c
  4446   000810  0E00               	movlw	0
  4447   000812  6E4D               	movwf	(_low_pass+1)^0,c
  4448   000814  0E00               	movlw	0
  4449   000816  6E4C               	movwf	_low_pass^0,c
  4450   000818                     
  4451                           ;function.c: 242:       entered_value=0,memory_value=0;
  4452   000818  0E00               	movlw	0
  4453   00081A  0100               	movlb	0	; () banked
  4454   00081C  6FA7               	movwf	(_entered_value+1)& (0+255),b
  4455   00081E  0E00               	movlw	0
  4456   000820  6FA6               	movwf	_entered_value& (0+255),b
  4457   000822                     
  4458                           ; BSR set to: 0
  4459   000822  0E00               	movlw	0
  4460   000824  6FA5               	movwf	(_memory_value+1)& (0+255),b
  4461   000826  0E00               	movlw	0
  4462   000828  6FA4               	movwf	_memory_value& (0+255),b
  4463   00082A                     
  4464                           ; BSR set to: 0
  4465   00082A  0012               	return		;funcret
  4466   00082C                     __end_of_password_reset:
  4467                           	callstack 0
  4468                           
  4469 ;; *************** function _password_handler *****************
  4470 ;; Defined at:
  4471 ;;		line 159 in file "function.c"
  4472 ;; Parameters:    Size  Location     Type
  4473 ;;		None
  4474 ;; Auto vars:     Size  Location     Type
  4475 ;;		None
  4476 ;; Return value:  Size  Location     Type
  4477 ;;                  1    wreg      void 
  4478 ;; Registers used:
  4479 ;;		wreg, fsr0l, fsr0h, fsr2l, fsr2h, status,2, status,0, tblptrl, tblptrh, tblptru, prodl, prodh, cstack
  4480 ;; Tracked objects:
  4481 ;;		On entry : 0/0
  4482 ;;		On exit  : 0/0
  4483 ;;		Unchanged: 0/0
  4484 ;; Data sizes:     COMRAM   BANK0   BANK1   BANK2   BANK3   BANK4   BANK5   BANK6   BANK7   BANK8   BANK9  BANK10  BANK1
      +1  BANK12  BANK13  BANK14  BANK15
  4485 ;;      Params:         0       0       0       0       0       0       0       0       0       0       0       0       
      +0       0       0       0       0
  4486 ;;      Locals:         0       0       0       0       0       0       0       0       0       0       0       0       
      +0       0       0       0       0
  4487 ;;      Temps:          2       0       0       0       0       0       0       0       0       0       0       0       
      +0       0       0       0       0
  4488 ;;      Totals:         2       0       0       0       0       0       0       0       0       0       0       0       
      +0       0       0       0       0
  4489 ;;Total ram usage:        2 bytes
  4490 ;; Hardware stack levels used: 1
  4491 ;; Hardware stack levels required when called: 13
  4492 ;; This function calls:
  4493 ;;		_Data_EEPROM_WriteByte
  4494 ;;		___lwdiv
  4495 ;;		___lwmod
  4496 ;;		_lcd_4bit_send_command
  4497 ;;		_lcd_4bit_send_string_pos
  4498 ;; This function is called by:
  4499 ;;		_Set_password
  4500 ;; This function uses a non-reentrant model
  4501 ;;
  4502                           
  4503                           	psect	text21
  4504   000AD6                     __ptext21:
  4505                           	callstack 0
  4506   000AD6                     _password_handler:
  4507                           	callstack 16
  4508   000AD6                     
  4509                           ;function.c: 161:    if (set_password1 == set_password2){
  4510   000AD6  5039               	movf	_set_password2^0,w,c
  4511   000AD8  183B               	xorwf	_set_password1^0,w,c
  4512   000ADA  E107               	bnz	u4171
  4513   000ADC  503A               	movf	(_set_password2+1)^0,w,c
  4514   000ADE  183C               	xorwf	(_set_password1+1)^0,w,c
  4515   000AE0  A4D8               	btfss	status,2,c
  4516   000AE2  EF75  F005         	goto	u4171
  4517   000AE6  EF77  F005         	goto	u4170
  4518   000AEA                     u4171:
  4519   000AEA  EFDE  F005         	goto	l5484
  4520   000AEE                     u4170:
  4521   000AEE                     
  4522                           ;function.c: 162:      high_pass=set_password1/100;
  4523   000AEE  C03B  F024         	movff	_set_password1,___lwdiv@dividend
  4524   000AF2  C03C  F025         	movff	_set_password1+1,___lwdiv@dividend+1
  4525   000AF6  0E00               	movlw	0
  4526   000AF8  6E27               	movwf	(___lwdiv@divisor+1)^0,c
  4527   000AFA  0E64               	movlw	100
  4528   000AFC  6E26               	movwf	___lwdiv@divisor^0,c
  4529   000AFE  EC5F  F00D         	call	___lwdiv	;wreg free
  4530   000B02  C024  F04E         	movff	?___lwdiv,_high_pass
  4531   000B06  C025  F04F         	movff	?___lwdiv+1,_high_pass+1
  4532                           
  4533                           ;function.c: 163:      low_pass=set_password2%100;
  4534   000B0A  C039  F024         	movff	_set_password2,___lwmod@dividend
  4535   000B0E  C03A  F025         	movff	_set_password2+1,___lwmod@dividend+1
  4536   000B12  0E00               	movlw	0
  4537   000B14  6E27               	movwf	(___lwmod@divisor+1)^0,c
  4538   000B16  0E64               	movlw	100
  4539   000B18  6E26               	movwf	___lwmod@divisor^0,c
  4540   000B1A  EC07  F00F         	call	___lwmod	;wreg free
  4541   000B1E  C024  F04C         	movff	?___lwmod,_low_pass
  4542   000B22  C025  F04D         	movff	?___lwmod+1,_low_pass+1
  4543                           
  4544                           ;function.c: 165:      Data_EEPROM_WriteByte(0x3F9,high_pass);
  4545   000B26  0E03               	movlw	3
  4546   000B28  6E25               	movwf	(Data_EEPROM_WriteByte@bAdd+1)^0,c
  4547   000B2A  0EF9               	movlw	249
  4548   000B2C  6E24               	movwf	Data_EEPROM_WriteByte@bAdd^0,c
  4549   000B2E  C04E  F026         	movff	_high_pass,Data_EEPROM_WriteByte@bData
  4550   000B32  C04F  F027         	movff	_high_pass+1,Data_EEPROM_WriteByte@bData+1
  4551   000B36  ECF1  F010         	call	_Data_EEPROM_WriteByte	;wreg free
  4552                           
  4553                           ;function.c: 166:      Data_EEPROM_WriteByte(0x3FA,low_pass);
  4554   000B3A  0E03               	movlw	3
  4555   000B3C  6E25               	movwf	(Data_EEPROM_WriteByte@bAdd+1)^0,c
  4556   000B3E  0EFA               	movlw	250
  4557   000B40  6E24               	movwf	Data_EEPROM_WriteByte@bAdd^0,c
  4558   000B42  C04C  F026         	movff	_low_pass,Data_EEPROM_WriteByte@bData
  4559   000B46  C04D  F027         	movff	_low_pass+1,Data_EEPROM_WriteByte@bData+1
  4560   000B4A  ECF1  F010         	call	_Data_EEPROM_WriteByte	;wreg free
  4561   000B4E                     
  4562                           ;function.c: 167:      password_flag=1,wrongs_counter=0;
  4563   000B4E  0E01               	movlw	1
  4564   000B50  6E45               	movwf	_password_flag^0,c
  4565   000B52  0E00               	movlw	0
  4566   000B54  6E43               	movwf	_wrongs_counter^0,c
  4567   000B56                     
  4568                           ;function.c: 168:      lcd_4bit_send_command(&lcd,0X01);
  4569   000B56  0E51               	movlw	low _lcd
  4570   000B58  6E2E               	movwf	lcd_4bit_send_command@lcd^0,c
  4571   000B5A  0E01               	movlw	1
  4572   000B5C  6E2F               	movwf	lcd_4bit_send_command@command^0,c
  4573   000B5E  ECC4  F00F         	call	_lcd_4bit_send_command	;wreg free
  4574   000B62                     
  4575                           ;function.c: 169:      lcd_4bit_send_string_pos(&lcd,2,10," Password Set");
  4576   000B62  0E51               	movlw	low _lcd
  4577   000B64  0100               	movlb	0	; () banked
  4578   000B66  6FE2               	movwf	lcd_4bit_send_string_pos@lcd& (0+255),b
  4579   000B68  0E02               	movlw	2
  4580   000B6A  6FE3               	movwf	lcd_4bit_send_string_pos@row& (0+255),b
  4581   000B6C  0E0A               	movlw	10
  4582   000B6E  6FE4               	movwf	lcd_4bit_send_string_pos@column& (0+255),b
  4583   000B70  0EC2               	movlw	low STR_27
  4584   000B72  6FE5               	movwf	lcd_4bit_send_string_pos@str& (0+255),b
  4585   000B74  0EFF               	movlw	high STR_27
  4586   000B76  6FE6               	movwf	(lcd_4bit_send_string_pos@str+1)& (0+255),b
  4587   000B78  ECAE  F011         	call	_lcd_4bit_send_string_pos	;wreg free
  4588   000B7C                     
  4589                           ;function.c: 170:      lcd_4bit_send_string_pos(&lcd,3,1," Successfully");
  4590   000B7C  0E51               	movlw	low _lcd
  4591   000B7E  0100               	movlb	0	; () banked
  4592   000B80  6FE2               	movwf	lcd_4bit_send_string_pos@lcd& (0+255),b
  4593   000B82  0E03               	movlw	3
  4594   000B84  6FE3               	movwf	lcd_4bit_send_string_pos@row& (0+255),b
  4595   000B86  0E01               	movlw	1
  4596   000B88  6FE4               	movwf	lcd_4bit_send_string_pos@column& (0+255),b
  4597   000B8A  0ED0               	movlw	low STR_28
  4598   000B8C  6FE5               	movwf	lcd_4bit_send_string_pos@str& (0+255),b
  4599   000B8E  0EFF               	movlw	high STR_28
  4600   000B90  6FE6               	movwf	(lcd_4bit_send_string_pos@str+1)& (0+255),b
  4601   000B92  ECAE  F011         	call	_lcd_4bit_send_string_pos	;wreg free
  4602   000B96                     l5480:
  4603                           
  4604                           ;function.c: 171:      _delay((unsigned long)((1500)*(8000000UL/4000.0)));
  4605   000B96  0E10               	movlw	16
  4606   000B98  6E36               	movwf	(??_password_handler+1)^0,c
  4607   000B9A  0E39               	movlw	57
  4608   000B9C  6E35               	movwf	??_password_handler^0,c
  4609   000B9E  0E0E               	movlw	14
  4610   000BA0                     u4567:
  4611   000BA0  2EE8               	decfsz	wreg,f,c
  4612   000BA2  D7FE               	bra	u4567
  4613   000BA4  2E35               	decfsz	??_password_handler^0,f,c
  4614   000BA6  D7FC               	bra	u4567
  4615   000BA8  2E36               	decfsz	(??_password_handler+1)^0,f,c
  4616   000BAA  D7FA               	bra	u4567
  4617   000BAC                     
  4618                           ;function.c: 172:      lcd_4bit_send_command(&lcd,0X01);
  4619   000BAC  0E51               	movlw	low _lcd
  4620   000BAE  6E2E               	movwf	lcd_4bit_send_command@lcd^0,c
  4621   000BB0  0E01               	movlw	1
  4622   000BB2  6E2F               	movwf	lcd_4bit_send_command@command^0,c
  4623   000BB4  ECC4  F00F         	call	_lcd_4bit_send_command	;wreg free
  4624                           
  4625                           ;function.c: 173:    }
  4626   000BB8  EF00  F006         	goto	l5494
  4627   000BBC                     l5484:
  4628                           
  4629                           ;function.c: 175:      lcd_4bit_send_command(&lcd,0X01);
  4630   000BBC  0E51               	movlw	low _lcd
  4631   000BBE  6E2E               	movwf	lcd_4bit_send_command@lcd^0,c
  4632   000BC0  0E01               	movlw	1
  4633   000BC2  6E2F               	movwf	lcd_4bit_send_command@command^0,c
  4634   000BC4  ECC4  F00F         	call	_lcd_4bit_send_command	;wreg free
  4635   000BC8                     
  4636                           ;function.c: 176:      lcd_4bit_send_string_pos(&lcd,2,10," Error,happened");
  4637   000BC8  0E51               	movlw	low _lcd
  4638   000BCA  0100               	movlb	0	; () banked
  4639   000BCC  6FE2               	movwf	lcd_4bit_send_string_pos@lcd& (0+255),b
  4640   000BCE  0E02               	movlw	2
  4641   000BD0  6FE3               	movwf	lcd_4bit_send_string_pos@row& (0+255),b
  4642   000BD2  0E0A               	movlw	10
  4643   000BD4  6FE4               	movwf	lcd_4bit_send_string_pos@column& (0+255),b
  4644   000BD6  0E62               	movlw	low STR_29
  4645   000BD8  6FE5               	movwf	lcd_4bit_send_string_pos@str& (0+255),b
  4646   000BDA  0EFF               	movlw	high STR_29
  4647   000BDC  6FE6               	movwf	(lcd_4bit_send_string_pos@str+1)& (0+255),b
  4648   000BDE  ECAE  F011         	call	_lcd_4bit_send_string_pos	;wreg free
  4649   000BE2                     
  4650                           ;function.c: 177:      lcd_4bit_send_string_pos(&lcd,3,1," Please,Try again");
  4651   000BE2  0E51               	movlw	low _lcd
  4652   000BE4  0100               	movlb	0	; () banked
  4653   000BE6  6FE2               	movwf	lcd_4bit_send_string_pos@lcd& (0+255),b
  4654   000BE8  0E03               	movlw	3
  4655   000BEA  6FE3               	movwf	lcd_4bit_send_string_pos@row& (0+255),b
  4656   000BEC  0E01               	movlw	1
  4657   000BEE  6FE4               	movwf	lcd_4bit_send_string_pos@column& (0+255),b
  4658   000BF0  0E2C               	movlw	low STR_30
  4659   000BF2  6FE5               	movwf	lcd_4bit_send_string_pos@str& (0+255),b
  4660   000BF4  0EFF               	movlw	high STR_30
  4661   000BF6  6FE6               	movwf	(lcd_4bit_send_string_pos@str+1)& (0+255),b
  4662   000BF8  ECAE  F011         	call	_lcd_4bit_send_string_pos	;wreg free
  4663   000BFC  EFCB  F005         	goto	l5480
  4664   000C00                     l5494:
  4665                           
  4666                           ;function.c: 181:    set_password1=0,set_password2=0,high_pass=0,low_pass=0;
  4667   000C00  0E00               	movlw	0
  4668   000C02  6E3C               	movwf	(_set_password1+1)^0,c
  4669   000C04  0E00               	movlw	0
  4670   000C06  6E3B               	movwf	_set_password1^0,c
  4671   000C08  0E00               	movlw	0
  4672   000C0A  6E3A               	movwf	(_set_password2+1)^0,c
  4673   000C0C  0E00               	movlw	0
  4674   000C0E  6E39               	movwf	_set_password2^0,c
  4675   000C10  0E00               	movlw	0
  4676   000C12  6E4F               	movwf	(_high_pass+1)^0,c
  4677   000C14  0E00               	movlw	0
  4678   000C16  6E4E               	movwf	_high_pass^0,c
  4679   000C18  0E00               	movlw	0
  4680   000C1A  6E4D               	movwf	(_low_pass+1)^0,c
  4681   000C1C  0E00               	movlw	0
  4682   000C1E  6E4C               	movwf	_low_pass^0,c
  4683   000C20  0012               	return		;funcret
  4684   000C22                     __end_of_password_handler:
  4685                           	callstack 0
  4686                           
  4687 ;; *************** function ___lwmod *****************
  4688 ;; Defined at:
  4689 ;;		line 7 in file "D:\Program Files\Microchip\xc8\v2.45\pic\sources\c99\common\lwmod.c"
  4690 ;; Parameters:    Size  Location     Type
  4691 ;;  dividend        2   35[COMRAM] unsigned int 
  4692 ;;  divisor         2   37[COMRAM] unsigned int 
  4693 ;; Auto vars:     Size  Location     Type
  4694 ;;  counter         1   39[COMRAM] unsigned char 
  4695 ;; Return value:  Size  Location     Type
  4696 ;;                  2   35[COMRAM] unsigned int 
  4697 ;; Registers used:
  4698 ;;		wreg, status,2, status,0
  4699 ;; Tracked objects:
  4700 ;;		On entry : 0/0
  4701 ;;		On exit  : 0/0
  4702 ;;		Unchanged: 0/0
  4703 ;; Data sizes:     COMRAM   BANK0   BANK1   BANK2   BANK3   BANK4   BANK5   BANK6   BANK7   BANK8   BANK9  BANK10  BANK1
      +1  BANK12  BANK13  BANK14  BANK15
  4704 ;;      Params:         4       0       0       0       0       0       0       0       0       0       0       0       
      +0       0       0       0       0
  4705 ;;      Locals:         1       0       0       0       0       0       0       0       0       0       0       0       
      +0       0       0       0       0
  4706 ;;      Temps:          0       0       0       0       0       0       0       0       0       0       0       0       
      +0       0       0       0       0
  4707 ;;      Totals:         5       0       0       0       0       0       0       0       0       0       0       0       
      +0       0       0       0       0
  4708 ;;Total ram usage:        5 bytes
  4709 ;; Hardware stack levels used: 1
  4710 ;; Hardware stack levels required when called: 8
  4711 ;; This function calls:
  4712 ;;		Nothing
  4713 ;; This function is called by:
  4714 ;;		_password_handler
  4715 ;;		_password_reset
  4716 ;; This function uses a non-reentrant model
  4717 ;;
  4718                           
  4719                           	psect	text22
  4720   001E0E                     __ptext22:
  4721                           	callstack 0
  4722   001E0E                     ___lwmod:
  4723                           	callstack 20
  4724   001E0E  5026               	movf	___lwmod@divisor^0,w,c
  4725   001E10  1027               	iorwf	(___lwmod@divisor+1)^0,w,c
  4726   001E12  B4D8               	btfsc	status,2,c
  4727   001E14  EF0E  F00F         	goto	u2831
  4728   001E18  EF10  F00F         	goto	u2830
  4729   001E1C                     u2831:
  4730   001E1C  EF34  F00F         	goto	l1313
  4731   001E20                     u2830:
  4732   001E20  0E01               	movlw	1
  4733   001E22  6E28               	movwf	___lwmod@counter^0,c
  4734   001E24  EF18  F00F         	goto	l3994
  4735   001E28                     l3992:
  4736   001E28  90D8               	bcf	status,0,c
  4737   001E2A  3626               	rlcf	___lwmod@divisor^0,f,c
  4738   001E2C  3627               	rlcf	(___lwmod@divisor+1)^0,f,c
  4739   001E2E  2A28               	incf	___lwmod@counter^0,f,c
  4740   001E30                     l3994:
  4741   001E30  AE27               	btfss	(___lwmod@divisor+1)^0,7,c
  4742   001E32  EF1D  F00F         	goto	u2841
  4743   001E36  EF1F  F00F         	goto	u2840
  4744   001E3A                     u2841:
  4745   001E3A  EF14  F00F         	goto	l3992
  4746   001E3E                     u2840:
  4747   001E3E                     l3996:
  4748   001E3E  5026               	movf	___lwmod@divisor^0,w,c
  4749   001E40  5C24               	subwf	___lwmod@dividend^0,w,c
  4750   001E42  5027               	movf	(___lwmod@divisor+1)^0,w,c
  4751   001E44  5825               	subwfb	(___lwmod@dividend+1)^0,w,c
  4752   001E46  A0D8               	btfss	status,0,c
  4753   001E48  EF28  F00F         	goto	u2851
  4754   001E4C  EF2A  F00F         	goto	u2850
  4755   001E50                     u2851:
  4756   001E50  EF2E  F00F         	goto	l4000
  4757   001E54                     u2850:
  4758   001E54  5026               	movf	___lwmod@divisor^0,w,c
  4759   001E56  5E24               	subwf	___lwmod@dividend^0,f,c
  4760   001E58  5027               	movf	(___lwmod@divisor+1)^0,w,c
  4761   001E5A  5A25               	subwfb	(___lwmod@dividend+1)^0,f,c
  4762   001E5C                     l4000:
  4763   001E5C  90D8               	bcf	status,0,c
  4764   001E5E  3227               	rrcf	(___lwmod@divisor+1)^0,f,c
  4765   001E60  3226               	rrcf	___lwmod@divisor^0,f,c
  4766   001E62  2E28               	decfsz	___lwmod@counter^0,f,c
  4767   001E64  EF1F  F00F         	goto	l3996
  4768   001E68                     l1313:
  4769   001E68  C024  F024         	movff	___lwmod@dividend,?___lwmod
  4770   001E6C  C025  F025         	movff	___lwmod@dividend+1,?___lwmod+1
  4771   001E70  0012               	return		;funcret
  4772   001E72                     __end_of___lwmod:
  4773                           	callstack 0
  4774                           
  4775 ;; *************** function ___lwdiv *****************
  4776 ;; Defined at:
  4777 ;;		line 7 in file "D:\Program Files\Microchip\xc8\v2.45\pic\sources\c99\common\lwdiv.c"
  4778 ;; Parameters:    Size  Location     Type
  4779 ;;  dividend        2   35[COMRAM] unsigned int 
  4780 ;;  divisor         2   37[COMRAM] unsigned int 
  4781 ;; Auto vars:     Size  Location     Type
  4782 ;;  quotient        2   39[COMRAM] unsigned int 
  4783 ;;  counter         1   41[COMRAM] unsigned char 
  4784 ;; Return value:  Size  Location     Type
  4785 ;;                  2   35[COMRAM] unsigned int 
  4786 ;; Registers used:
  4787 ;;		wreg, status,2, status,0
  4788 ;; Tracked objects:
  4789 ;;		On entry : 0/0
  4790 ;;		On exit  : 0/0
  4791 ;;		Unchanged: 0/0
  4792 ;; Data sizes:     COMRAM   BANK0   BANK1   BANK2   BANK3   BANK4   BANK5   BANK6   BANK7   BANK8   BANK9  BANK10  BANK1
      +1  BANK12  BANK13  BANK14  BANK15
  4793 ;;      Params:         4       0       0       0       0       0       0       0       0       0       0       0       
      +0       0       0       0       0
  4794 ;;      Locals:         3       0       0       0       0       0       0       0       0       0       0       0       
      +0       0       0       0       0
  4795 ;;      Temps:          0       0       0       0       0       0       0       0       0       0       0       0       
      +0       0       0       0       0
  4796 ;;      Totals:         7       0       0       0       0       0       0       0       0       0       0       0       
      +0       0       0       0       0
  4797 ;;Total ram usage:        7 bytes
  4798 ;; Hardware stack levels used: 1
  4799 ;; Hardware stack levels required when called: 8
  4800 ;; This function calls:
  4801 ;;		Nothing
  4802 ;; This function is called by:
  4803 ;;		_password_handler
  4804 ;;		_password_reset
  4805 ;; This function uses a non-reentrant model
  4806 ;;
  4807                           
  4808                           	psect	text23
  4809   001ABE                     __ptext23:
  4810                           	callstack 0
  4811   001ABE                     ___lwdiv:
  4812                           	callstack 20
  4813   001ABE  0E00               	movlw	0
  4814   001AC0  6E29               	movwf	(___lwdiv@quotient+1)^0,c
  4815   001AC2  0E00               	movlw	0
  4816   001AC4  6E28               	movwf	___lwdiv@quotient^0,c
  4817   001AC6  5026               	movf	___lwdiv@divisor^0,w,c
  4818   001AC8  1027               	iorwf	(___lwdiv@divisor+1)^0,w,c
  4819   001ACA  B4D8               	btfsc	status,2,c
  4820   001ACC  EF6A  F00D         	goto	u2801
  4821   001AD0  EF6C  F00D         	goto	u2800
  4822   001AD4                     u2801:
  4823   001AD4  EF94  F00D         	goto	l1303
  4824   001AD8                     u2800:
  4825   001AD8  0E01               	movlw	1
  4826   001ADA  6E2A               	movwf	___lwdiv@counter^0,c
  4827   001ADC  EF74  F00D         	goto	l3974
  4828   001AE0                     l3972:
  4829   001AE0  90D8               	bcf	status,0,c
  4830   001AE2  3626               	rlcf	___lwdiv@divisor^0,f,c
  4831   001AE4  3627               	rlcf	(___lwdiv@divisor+1)^0,f,c
  4832   001AE6  2A2A               	incf	___lwdiv@counter^0,f,c
  4833   001AE8                     l3974:
  4834   001AE8  AE27               	btfss	(___lwdiv@divisor+1)^0,7,c
  4835   001AEA  EF79  F00D         	goto	u2811
  4836   001AEE  EF7B  F00D         	goto	u2810
  4837   001AF2                     u2811:
  4838   001AF2  EF70  F00D         	goto	l3972
  4839   001AF6                     u2810:
  4840   001AF6                     l3976:
  4841   001AF6  90D8               	bcf	status,0,c
  4842   001AF8  3628               	rlcf	___lwdiv@quotient^0,f,c
  4843   001AFA  3629               	rlcf	(___lwdiv@quotient+1)^0,f,c
  4844   001AFC  5026               	movf	___lwdiv@divisor^0,w,c
  4845   001AFE  5C24               	subwf	___lwdiv@dividend^0,w,c
  4846   001B00  5027               	movf	(___lwdiv@divisor+1)^0,w,c
  4847   001B02  5825               	subwfb	(___lwdiv@dividend+1)^0,w,c
  4848   001B04  A0D8               	btfss	status,0,c
  4849   001B06  EF87  F00D         	goto	u2821
  4850   001B0A  EF89  F00D         	goto	u2820
  4851   001B0E                     u2821:
  4852   001B0E  EF8E  F00D         	goto	l3984
  4853   001B12                     u2820:
  4854   001B12  5026               	movf	___lwdiv@divisor^0,w,c
  4855   001B14  5E24               	subwf	___lwdiv@dividend^0,f,c
  4856   001B16  5027               	movf	(___lwdiv@divisor+1)^0,w,c
  4857   001B18  5A25               	subwfb	(___lwdiv@dividend+1)^0,f,c
  4858   001B1A  8028               	bsf	___lwdiv@quotient^0,0,c
  4859   001B1C                     l3984:
  4860   001B1C  90D8               	bcf	status,0,c
  4861   001B1E  3227               	rrcf	(___lwdiv@divisor+1)^0,f,c
  4862   001B20  3226               	rrcf	___lwdiv@divisor^0,f,c
  4863   001B22  2E2A               	decfsz	___lwdiv@counter^0,f,c
  4864   001B24  EF7B  F00D         	goto	l3976
  4865   001B28                     l1303:
  4866   001B28  C028  F024         	movff	___lwdiv@quotient,?___lwdiv
  4867   001B2C  C029  F025         	movff	___lwdiv@quotient+1,?___lwdiv+1
  4868   001B30  0012               	return		;funcret
  4869   001B32                     __end_of___lwdiv:
  4870                           	callstack 0
  4871                           
  4872 ;; *************** function _Data_EEPROM_WriteByte *****************
  4873 ;; Defined at:
  4874 ;;		line 11 in file "MCAL_LAYER/EEPROM/eeprom.c"
  4875 ;; Parameters:    Size  Location     Type
  4876 ;;  bAdd            2   35[COMRAM] unsigned short 
  4877 ;;  bData           2   37[COMRAM] unsigned short 
  4878 ;; Auto vars:     Size  Location     Type
  4879 ;;  Global_Inter    1   39[COMRAM] unsigned char 
  4880 ;;  ret             1    0        unsigned char 
  4881 ;; Return value:  Size  Location     Type
  4882 ;;                  1    wreg      unsigned char 
  4883 ;; Registers used:
  4884 ;;		wreg, status,2, status,0
  4885 ;; Tracked objects:
  4886 ;;		On entry : 0/0
  4887 ;;		On exit  : 0/0
  4888 ;;		Unchanged: 0/0
  4889 ;; Data sizes:     COMRAM   BANK0   BANK1   BANK2   BANK3   BANK4   BANK5   BANK6   BANK7   BANK8   BANK9  BANK10  BANK1
      +1  BANK12  BANK13  BANK14  BANK15
  4890 ;;      Params:         4       0       0       0       0       0       0       0       0       0       0       0       
      +0       0       0       0       0
  4891 ;;      Locals:         1       0       0       0       0       0       0       0       0       0       0       0       
      +0       0       0       0       0
  4892 ;;      Temps:          0       0       0       0       0       0       0       0       0       0       0       0       
      +0       0       0       0       0
  4893 ;;      Totals:         5       0       0       0       0       0       0       0       0       0       0       0       
      +0       0       0       0       0
  4894 ;;Total ram usage:        5 bytes
  4895 ;; Hardware stack levels used: 1
  4896 ;; Hardware stack levels required when called: 8
  4897 ;; This function calls:
  4898 ;;		Nothing
  4899 ;; This function is called by:
  4900 ;;		_password_handler
  4901 ;;		_password_reset
  4902 ;; This function uses a non-reentrant model
  4903 ;;
  4904                           
  4905                           	psect	text24
  4906   0021E2                     __ptext24:
  4907                           	callstack 0
  4908   0021E2                     _Data_EEPROM_WriteByte:
  4909                           	callstack 20
  4910   0021E2                     
  4911                           ;MCAL_LAYER/EEPROM/eeprom.c: 14:      uint_8 Global_Interrupt_Status = INTCONbits.GIE;
  4912   0021E2  0E00               	movlw	0
  4913   0021E4  BEF2               	btfsc	242,7,c	;volatile
  4914   0021E6  0E01               	movlw	1
  4915   0021E8  6E28               	movwf	Data_EEPROM_WriteByte@Global_Interrupt_Status^0,c
  4916   0021EA                     
  4917                           ;MCAL_LAYER/EEPROM/eeprom.c: 16:     EEADRH = (uint_8)((bAdd >> 8) & 0x03);
  4918   0021EA  5025               	movf	(Data_EEPROM_WriteByte@bAdd+1)^0,w,c
  4919   0021EC  0B03               	andlw	3
  4920   0021EE  6EAA               	movwf	170,c	;volatile
  4921   0021F0                     
  4922                           ;MCAL_LAYER/EEPROM/eeprom.c: 17:     EEADR = (uint_8)(bAdd & 0xFF);
  4923   0021F0  C024  FFA9         	movff	Data_EEPROM_WriteByte@bAdd,4009	;volatile
  4924   0021F4                     
  4925                           ;MCAL_LAYER/EEPROM/eeprom.c: 19:     EEDATA = bData;
  4926   0021F4  C026  FFA8         	movff	Data_EEPROM_WriteByte@bData,4008	;volatile
  4927   0021F8                     
  4928                           ;MCAL_LAYER/EEPROM/eeprom.c: 21:     EECON1bits.EEPGD = 0;
  4929   0021F8  9EA6               	bcf	166,7,c	;volsfr
  4930   0021FA                     
  4931                           ;MCAL_LAYER/EEPROM/eeprom.c: 22:     EECON1bits.CFGS = 0;
  4932   0021FA  9CA6               	bcf	166,6,c	;volsfr
  4933   0021FC                     
  4934                           ;MCAL_LAYER/EEPROM/eeprom.c: 24:     EECON1bits.WREN = 1;
  4935   0021FC  84A6               	bsf	166,2,c	;volsfr
  4936   0021FE                     
  4937                           ;MCAL_LAYER/EEPROM/eeprom.c: 26:     (INTCONbits.GIE=0);
  4938   0021FE  9EF2               	bcf	242,7,c	;volatile
  4939   002200                     
  4940                           ;MCAL_LAYER/EEPROM/eeprom.c: 28:     EECON2 = 0x55;
  4941   002200  0E55               	movlw	85
  4942   002202  6EA7               	movwf	167,c	;volsfr
  4943   002204                     
  4944                           ;MCAL_LAYER/EEPROM/eeprom.c: 29:     EECON2 = 0xAA;
  4945   002204  0EAA               	movlw	170
  4946   002206  6EA7               	movwf	167,c	;volsfr
  4947   002208                     
  4948                           ;MCAL_LAYER/EEPROM/eeprom.c: 31:     EECON1bits.WR = 1;
  4949   002208  82A6               	bsf	166,1,c	;volsfr
  4950   00220A                     l289:
  4951   00220A  B2A6               	btfsc	166,1,c	;volsfr
  4952   00220C  EF0A  F011         	goto	u2651
  4953   002210  EF0C  F011         	goto	u2650
  4954   002214                     u2651:
  4955   002214  EF05  F011         	goto	l289
  4956   002218                     u2650:
  4957   002218                     
  4958                           ;MCAL_LAYER/EEPROM/eeprom.c: 35:     EECON1bits.WREN = 0;
  4959   002218  94A6               	bcf	166,2,c	;volsfr
  4960                           
  4961                           ;MCAL_LAYER/EEPROM/eeprom.c: 37:     INTCONbits.GIE = Global_Interrupt_Status;
  4962   00221A  B028               	btfsc	Data_EEPROM_WriteByte@Global_Interrupt_Status^0,0,c
  4963   00221C  D002               	bra	u2665
  4964   00221E  9EF2               	bcf	242,7,c	;volatile
  4965   002220  D001               	bra	u2666
  4966   002222                     u2665:
  4967   002222  8EF2               	bsf	242,7,c	;volatile
  4968   002224                     u2666:
  4969   002224  0012               	return		;funcret
  4970   002226                     __end_of_Data_EEPROM_WriteByte:
  4971                           	callstack 0
  4972                           
  4973 ;; *************** function _Enter_password *****************
  4974 ;; Defined at:
  4975 ;;		line 118 in file "function.c"
  4976 ;; Parameters:    Size  Location     Type
  4977 ;;		None
  4978 ;; Auto vars:     Size  Location     Type
  4979 ;;		None
  4980 ;; Return value:  Size  Location     Type
  4981 ;;                  1    wreg      void 
  4982 ;; Registers used:
  4983 ;;		wreg, fsr0l, fsr0h, fsr1l, fsr1h, fsr2l, fsr2h, status,2, status,0, tblptrl, tblptrh, tblptru, prodl, prodh, cstack
  4984 ;; Tracked objects:
  4985 ;;		On entry : 0/0
  4986 ;;		On exit  : 0/0
  4987 ;;		Unchanged: 0/0
  4988 ;; Data sizes:     COMRAM   BANK0   BANK1   BANK2   BANK3   BANK4   BANK5   BANK6   BANK7   BANK8   BANK9  BANK10  BANK1
      +1  BANK12  BANK13  BANK14  BANK15
  4989 ;;      Params:         0       0       0       0       0       0       0       0       0       0       0       0       
      +0       0       0       0       0
  4990 ;;      Locals:         0       0       0       0       0       0       0       0       0       0       0       0       
      +0       0       0       0       0
  4991 ;;      Temps:          0       2       0       0       0       0       0       0       0       0       0       0       
      +0       0       0       0       0
  4992 ;;      Totals:         0       2       0       0       0       0       0       0       0       0       0       0       
      +0       0       0       0       0
  4993 ;;Total ram usage:        2 bytes
  4994 ;; Hardware stack levels used: 1
  4995 ;; Hardware stack levels required when called: 14
  4996 ;; This function calls:
  4997 ;;		___wmul
  4998 ;;		_convert_byte_to_string
  4999 ;;		_keypad_get_value
  5000 ;;		_lcd_4bit_send_command
  5001 ;;		_lcd_4bit_send_string_pos
  5002 ;;		_password
  5003 ;; This function is called by:
  5004 ;;		_main
  5005 ;; This function uses a non-reentrant model
  5006 ;;
  5007                           
  5008                           	psect	text25
  5009   000C22                     __ptext25:
  5010                           	callstack 0
  5011   000C22                     _Enter_password:
  5012                           	callstack 16
  5013   000C22                     
  5014                           ;function.c: 120:    lcd_4bit_send_command(&lcd,0X01);
  5015   000C22  0E51               	movlw	low _lcd
  5016   000C24  6E2E               	movwf	lcd_4bit_send_command@lcd^0,c
  5017   000C26  0E01               	movlw	1
  5018   000C28  6E2F               	movwf	lcd_4bit_send_command@command^0,c
  5019   000C2A  ECC4  F00F         	call	_lcd_4bit_send_command	;wreg free
  5020   000C2E                     
  5021                           ;function.c: 121:    _delay((unsigned long)((55)*(8000000UL/4000.0)));
  5022   000C2E  0E8F               	movlw	143
  5023   000C30  0100               	movlb	0	; () banked
  5024   000C32  6FFE               	movwf	??_Enter_password& (0+255),b
  5025   000C34  0EDA               	movlw	218
  5026   000C36                     u4577:
  5027   000C36  2EE8               	decfsz	wreg,f,c
  5028   000C38  D7FE               	bra	u4577
  5029   000C3A  2FFE               	decfsz	??_Enter_password& (0+255),f,b
  5030   000C3C  D7FC               	bra	u4577
  5031   000C3E  0000               	nop	
  5032   000C40                     
  5033                           ;function.c: 122:    lcd_4bit_send_string_pos(&lcd,1,1," Enter Password");
  5034   000C40  0E51               	movlw	low _lcd
  5035   000C42  0100               	movlb	0	; () banked
  5036   000C44  6FE2               	movwf	lcd_4bit_send_string_pos@lcd& (0+255),b
  5037   000C46  0E01               	movlw	1
  5038   000C48  6FE3               	movwf	lcd_4bit_send_string_pos@row& (0+255),b
  5039   000C4A  0E01               	movlw	1
  5040   000C4C  6FE4               	movwf	lcd_4bit_send_string_pos@column& (0+255),b
  5041   000C4E  0E82               	movlw	low STR_22
  5042   000C50  6FE5               	movwf	lcd_4bit_send_string_pos@str& (0+255),b
  5043   000C52  0EFF               	movlw	high STR_22
  5044   000C54  6FE6               	movwf	(lcd_4bit_send_string_pos@str+1)& (0+255),b
  5045   000C56  ECAE  F011         	call	_lcd_4bit_send_string_pos	;wreg free
  5046   000C5A                     
  5047                           ;function.c: 123:    lcd_4bit_send_string_pos(&lcd,3,8," ____");
  5048   000C5A  0E51               	movlw	low _lcd
  5049   000C5C  0100               	movlb	0	; () banked
  5050   000C5E  6FE2               	movwf	lcd_4bit_send_string_pos@lcd& (0+255),b
  5051   000C60  0E03               	movlw	3
  5052   000C62  6FE3               	movwf	lcd_4bit_send_string_pos@row& (0+255),b
  5053   000C64  0E08               	movlw	8
  5054   000C66  6FE4               	movwf	lcd_4bit_send_string_pos@column& (0+255),b
  5055   000C68  0EF4               	movlw	low STR_11
  5056   000C6A  6FE5               	movwf	lcd_4bit_send_string_pos@str& (0+255),b
  5057   000C6C  0EFF               	movlw	high STR_11
  5058   000C6E  6FE6               	movwf	(lcd_4bit_send_string_pos@str+1)& (0+255),b
  5059   000C70  ECAE  F011         	call	_lcd_4bit_send_string_pos	;wreg free
  5060   000C74                     
  5061                           ;function.c: 124:    display_counter=9;
  5062   000C74  0E09               	movlw	9
  5063   000C76  6E44               	movwf	_display_counter^0,c
  5064                           
  5065                           ;function.c: 125:    while(password_counter != 4){
  5066   000C78  EF9D  F006         	goto	l5630
  5067   000C7C                     l5608:
  5068                           
  5069                           ;function.c: 126:        _delay((unsigned long)((60)*(8000000UL/4000.0)));
  5070   000C7C  0E9C               	movlw	156
  5071   000C7E  0100               	movlb	0	; () banked
  5072   000C80  6FFE               	movwf	??_Enter_password& (0+255),b
  5073   000C82  0ED7               	movlw	215
  5074   000C84                     u4587:
  5075   000C84  2EE8               	decfsz	wreg,f,c
  5076   000C86  D7FE               	bra	u4587
  5077   000C88  2FFE               	decfsz	??_Enter_password& (0+255),f,b
  5078   000C8A  D7FC               	bra	u4587
  5079   000C8C                     
  5080                           ;function.c: 127:         keypad_get_value(&keypad,&keypad_value);
  5081   000C8C  0ED4               	movlw	low _keypad
  5082   000C8E  6E2C               	movwf	keypad_get_value@keypad_obj^0,c
  5083   000C90  0E50               	movlw	low _keypad_value
  5084   000C92  6E2D               	movwf	keypad_get_value@value^0,c
  5085   000C94  EC63  F009         	call	_keypad_get_value	;wreg free
  5086   000C98                     
  5087                           ;function.c: 128:         if(keypad_value != (0xff)){
  5088   000C98  2850               	incf	_keypad_value^0,w,c
  5089   000C9A  B4D8               	btfsc	status,2,c
  5090   000C9C  EF52  F006         	goto	u4201
  5091   000CA0  EF54  F006         	goto	u4200
  5092   000CA4                     u4201:
  5093   000CA4  EF91  F006         	goto	l5628
  5094   000CA8                     u4200:
  5095   000CA8                     
  5096                           ;function.c: 129:           entered_value=entered_value*10+keypad_value;
  5097   000CA8  C0A6  F024         	movff	_entered_value,___wmul@multiplier
  5098   000CAC  C0A7  F025         	movff	_entered_value+1,___wmul@multiplier+1
  5099   000CB0  0E00               	movlw	0
  5100   000CB2  6E27               	movwf	(___wmul@multiplicand+1)^0,c
  5101   000CB4  0E0A               	movlw	10
  5102   000CB6  6E26               	movwf	___wmul@multiplicand^0,c
  5103   000CB8  ECCB  F012         	call	___wmul	;wreg free
  5104   000CBC  5050               	movf	_keypad_value^0,w,c
  5105   000CBE  2424               	addwf	?___wmul^0,w,c
  5106   000CC0  0100               	movlb	0	; () banked
  5107   000CC2  6FA6               	movwf	_entered_value& (0+255),b
  5108   000CC4  0E00               	movlw	0
  5109   000CC6  2025               	addwfc	(?___wmul+1)^0,w,c
  5110   000CC8  6FA7               	movwf	(_entered_value+1)& (0+255),b
  5111   000CCA                     
  5112                           ; BSR set to: 0
  5113                           ;function.c: 130:           convert_byte_to_string(keypad_value,display_value);
  5114   000CCA  0EB2               	movlw	low _display_value
  5115   000CCC  6FFC               	movwf	convert_byte_to_string@str& (0+255),b
  5116   000CCE  5050               	movf	_keypad_value^0,w,c
  5117   000CD0  EC36  F010         	call	_convert_byte_to_string
  5118   000CD4                     
  5119                           ;function.c: 131:           lcd_4bit_send_string_pos(&lcd,3,display_counter,display_valu
      +                          e);
  5120   000CD4  0E51               	movlw	low _lcd
  5121   000CD6  0100               	movlb	0	; () banked
  5122   000CD8  6FE2               	movwf	lcd_4bit_send_string_pos@lcd& (0+255),b
  5123   000CDA  0E03               	movlw	3
  5124   000CDC  6FE3               	movwf	lcd_4bit_send_string_pos@row& (0+255),b
  5125   000CDE  C044  F0E4         	movff	_display_counter,lcd_4bit_send_string_pos@column
  5126   000CE2  0EB2               	movlw	low _display_value
  5127   000CE4  6FE5               	movwf	lcd_4bit_send_string_pos@str& (0+255),b
  5128   000CE6  6BE6               	clrf	(lcd_4bit_send_string_pos@str+1)& (0+255),b
  5129   000CE8  ECAE  F011         	call	_lcd_4bit_send_string_pos	;wreg free
  5130   000CEC                     
  5131                           ;function.c: 132:             _delay((unsigned long)((200)*(8000000UL/4000.0)));
  5132   000CEC  0E03               	movlw	3
  5133   000CEE  0100               	movlb	0	; () banked
  5134   000CF0  6FFF               	movwf	(??_Enter_password+1)& (0+255),b
  5135   000CF2  0E08               	movlw	8
  5136   000CF4  6FFE               	movwf	??_Enter_password& (0+255),b
  5137   000CF6  0E77               	movlw	119
  5138   000CF8                     u4597:
  5139   000CF8  2EE8               	decfsz	wreg,f,c
  5140   000CFA  D7FE               	bra	u4597
  5141   000CFC  2FFE               	decfsz	??_Enter_password& (0+255),f,b
  5142   000CFE  D7FC               	bra	u4597
  5143   000D00  2FFF               	decfsz	(??_Enter_password+1)& (0+255),f,b
  5144   000D02  D7FA               	bra	u4597
  5145   000D04                     
  5146                           ;function.c: 133:           lcd_4bit_send_string_pos(&lcd,3,display_counter,"*");
  5147   000D04  0E51               	movlw	low _lcd
  5148   000D06  0100               	movlb	0	; () banked
  5149   000D08  6FE2               	movwf	lcd_4bit_send_string_pos@lcd& (0+255),b
  5150   000D0A  0E03               	movlw	3
  5151   000D0C  6FE3               	movwf	lcd_4bit_send_string_pos@row& (0+255),b
  5152   000D0E  C044  F0E4         	movff	_display_counter,lcd_4bit_send_string_pos@column
  5153   000D12  0EFD               	movlw	low STR_12
  5154   000D14  6FE5               	movwf	lcd_4bit_send_string_pos@str& (0+255),b
  5155   000D16  0EFF               	movlw	high STR_12
  5156   000D18  6FE6               	movwf	(lcd_4bit_send_string_pos@str+1)& (0+255),b
  5157   000D1A  ECAE  F011         	call	_lcd_4bit_send_string_pos	;wreg free
  5158   000D1E                     
  5159                           ;function.c: 134:           display_counter++,password_counter++;
  5160   000D1E  2A44               	incf	_display_counter^0,f,c
  5161   000D20  2A46               	incf	_password_counter^0,f,c
  5162   000D22                     l5628:
  5163                           
  5164                           ;function.c: 136:            _delay((unsigned long)((200)*(8000000UL/4000.0)));
  5165   000D22  0E03               	movlw	3
  5166   000D24  0100               	movlb	0	; () banked
  5167   000D26  6FFF               	movwf	(??_Enter_password+1)& (0+255),b
  5168   000D28  0E08               	movlw	8
  5169   000D2A  6FFE               	movwf	??_Enter_password& (0+255),b
  5170   000D2C  0E77               	movlw	119
  5171   000D2E                     u4607:
  5172   000D2E  2EE8               	decfsz	wreg,f,c
  5173   000D30  D7FE               	bra	u4607
  5174   000D32  2FFE               	decfsz	??_Enter_password& (0+255),f,b
  5175   000D34  D7FC               	bra	u4607
  5176   000D36  2FFF               	decfsz	(??_Enter_password+1)& (0+255),f,b
  5177   000D38  D7FA               	bra	u4607
  5178   000D3A                     l5630:
  5179                           
  5180                           ;function.c: 125:    while(password_counter != 4){
  5181   000D3A  0E04               	movlw	4
  5182   000D3C  1846               	xorwf	_password_counter^0,w,c
  5183   000D3E  A4D8               	btfss	status,2,c
  5184   000D40  EFA4  F006         	goto	u4211
  5185   000D44  EFA6  F006         	goto	u4210
  5186   000D48                     u4211:
  5187   000D48  EF3E  F006         	goto	l5608
  5188   000D4C                     u4210:
  5189   000D4C                     
  5190                           ;function.c: 138:    password_counter=0;
  5191   000D4C  0E00               	movlw	0
  5192   000D4E  6E46               	movwf	_password_counter^0,c
  5193   000D50                     
  5194                           ;function.c: 139:    password();
  5195   000D50  ECC4  F004         	call	_password	;wreg free
  5196   000D54  0012               	return		;funcret
  5197   000D56                     __end_of_Enter_password:
  5198                           	callstack 0
  5199                           
  5200 ;; *************** function _password *****************
  5201 ;; Defined at:
  5202 ;;		line 184 in file "function.c"
  5203 ;; Parameters:    Size  Location     Type
  5204 ;;		None
  5205 ;; Auto vars:     Size  Location     Type
  5206 ;;		None
  5207 ;; Return value:  Size  Location     Type
  5208 ;;                  1    wreg      void 
  5209 ;; Registers used:
  5210 ;;		wreg, fsr0l, fsr0h, fsr2l, fsr2h, status,2, status,0, tblptrl, tblptrh, tblptru, prodl, prodh, cstack
  5211 ;; Tracked objects:
  5212 ;;		On entry : 0/0
  5213 ;;		On exit  : 0/0
  5214 ;;		Unchanged: 0/0
  5215 ;; Data sizes:     COMRAM   BANK0   BANK1   BANK2   BANK3   BANK4   BANK5   BANK6   BANK7   BANK8   BANK9  BANK10  BANK1
      +1  BANK12  BANK13  BANK14  BANK15
  5216 ;;      Params:         0       0       0       0       0       0       0       0       0       0       0       0       
      +0       0       0       0       0
  5217 ;;      Locals:         0       0       0       0       0       0       0       0       0       0       0       0       
      +0       0       0       0       0
  5218 ;;      Temps:          2       0       0       0       0       0       0       0       0       0       0       0       
      +0       0       0       0       0
  5219 ;;      Totals:         2       0       0       0       0       0       0       0       0       0       0       0       
      +0       0       0       0       0
  5220 ;;Total ram usage:        2 bytes
  5221 ;; Hardware stack levels used: 1
  5222 ;; Hardware stack levels required when called: 13
  5223 ;; This function calls:
  5224 ;;		_Data_EEPROM_ReadByte
  5225 ;;		___wmul
  5226 ;;		_gpio_pin_Write_logic
  5227 ;;		_lcd_4bit_send_command
  5228 ;;		_lcd_4bit_send_string_pos
  5229 ;;		_led_turn_off
  5230 ;;		_led_turn_on
  5231 ;;		_motor_move_right
  5232 ;;		_motor_stop
  5233 ;; This function is called by:
  5234 ;;		_Enter_password
  5235 ;; This function uses a non-reentrant model
  5236 ;;
  5237                           
  5238                           	psect	text26
  5239   000988                     __ptext26:
  5240                           	callstack 0
  5241   000988                     _password:
  5242                           	callstack 16
  5243   000988                     
  5244                           ;function.c: 186:     Data_EEPROM_ReadByte(0x3F9,&high_pass);
  5245   000988  0E03               	movlw	3
  5246   00098A  6E25               	movwf	(Data_EEPROM_ReadByte@bAdd+1)^0,c
  5247   00098C  0EF9               	movlw	249
  5248   00098E  6E24               	movwf	Data_EEPROM_ReadByte@bAdd^0,c
  5249   000990  0E4E               	movlw	low _high_pass
  5250   000992  6E26               	movwf	Data_EEPROM_ReadByte@bData^0,c
  5251   000994  EC54  F011         	call	_Data_EEPROM_ReadByte	;wreg free
  5252                           
  5253                           ;function.c: 187:     Data_EEPROM_ReadByte(0x3FA,&low_pass);
  5254   000998  0E03               	movlw	3
  5255   00099A  6E25               	movwf	(Data_EEPROM_ReadByte@bAdd+1)^0,c
  5256   00099C  0EFA               	movlw	250
  5257   00099E  6E24               	movwf	Data_EEPROM_ReadByte@bAdd^0,c
  5258   0009A0  0E4C               	movlw	low _low_pass
  5259   0009A2  6E26               	movwf	Data_EEPROM_ReadByte@bData^0,c
  5260   0009A4  EC54  F011         	call	_Data_EEPROM_ReadByte	;wreg free
  5261   0009A8                     
  5262                           ;function.c: 189:     memory_value=high_pass*100+low_pass;
  5263   0009A8  C04E  F024         	movff	_high_pass,___wmul@multiplier
  5264   0009AC  C04F  F025         	movff	_high_pass+1,___wmul@multiplier+1
  5265   0009B0  0E00               	movlw	0
  5266   0009B2  6E27               	movwf	(___wmul@multiplicand+1)^0,c
  5267   0009B4  0E64               	movlw	100
  5268   0009B6  6E26               	movwf	___wmul@multiplicand^0,c
  5269   0009B8  ECCB  F012         	call	___wmul	;wreg free
  5270   0009BC  504C               	movf	_low_pass^0,w,c
  5271   0009BE  2424               	addwf	?___wmul^0,w,c
  5272   0009C0  0100               	movlb	0	; () banked
  5273   0009C2  6FA4               	movwf	_memory_value& (0+255),b
  5274   0009C4  504D               	movf	(_low_pass+1)^0,w,c
  5275   0009C6  2025               	addwfc	(?___wmul+1)^0,w,c
  5276   0009C8  6FA5               	movwf	(_memory_value+1)& (0+255),b
  5277   0009CA                     
  5278                           ; BSR set to: 0
  5279                           ;function.c: 191:     if(memory_value==entered_value){
  5280   0009CA  51A6               	movf	_entered_value& (0+255),w,b
  5281   0009CC  19A4               	xorwf	_memory_value& (0+255),w,b
  5282   0009CE  E107               	bnz	u4191
  5283   0009D0  51A7               	movf	(_entered_value+1)& (0+255),w,b
  5284   0009D2  19A5               	xorwf	(_memory_value+1)& (0+255),w,b
  5285   0009D4  A4D8               	btfss	status,2,c
  5286   0009D6  EFEF  F004         	goto	u4191
  5287   0009DA  EFF1  F004         	goto	u4190
  5288   0009DE                     u4191:
  5289   0009DE  EF28  F005         	goto	l5570
  5290   0009E2                     u4190:
  5291   0009E2                     
  5292                           ; BSR set to: 0
  5293                           ;function.c: 192:      lcd_4bit_send_command(&lcd,0X01);
  5294   0009E2  0E51               	movlw	low _lcd
  5295   0009E4  6E2E               	movwf	lcd_4bit_send_command@lcd^0,c
  5296   0009E6  0E01               	movlw	1
  5297   0009E8  6E2F               	movwf	lcd_4bit_send_command@command^0,c
  5298   0009EA  ECC4  F00F         	call	_lcd_4bit_send_command	;wreg free
  5299   0009EE                     
  5300                           ;function.c: 193:      lcd_4bit_send_string_pos(&lcd,2,10," Password Correct");
  5301   0009EE  0E51               	movlw	low _lcd
  5302   0009F0  0100               	movlb	0	; () banked
  5303   0009F2  6FE2               	movwf	lcd_4bit_send_string_pos@lcd& (0+255),b
  5304   0009F4  0E02               	movlw	2
  5305   0009F6  6FE3               	movwf	lcd_4bit_send_string_pos@row& (0+255),b
  5306   0009F8  0E0A               	movlw	10
  5307   0009FA  6FE4               	movwf	lcd_4bit_send_string_pos@column& (0+255),b
  5308   0009FC  0E3E               	movlw	low STR_31
  5309   0009FE  6FE5               	movwf	lcd_4bit_send_string_pos@str& (0+255),b
  5310   000A00  0EFF               	movlw	high STR_31
  5311   000A02  6FE6               	movwf	(lcd_4bit_send_string_pos@str+1)& (0+255),b
  5312   000A04  ECAE  F011         	call	_lcd_4bit_send_string_pos	;wreg free
  5313   000A08                     
  5314                           ;function.c: 194:      led_turn_on(&green_led);
  5315   000A08  0E5A               	movlw	low _green_led
  5316   000A0A  6E2C               	movwf	led_turn_on@led^0,c
  5317   000A0C  ECD1  F00D         	call	_led_turn_on	;wreg free
  5318   000A10                     
  5319                           ;function.c: 195:      motor_move_right(&motor);
  5320   000A10  0E57               	movlw	low _motor
  5321   000A12  6E2C               	movwf	motor_move_right@motor^0,c
  5322   000A14  EC46  F012         	call	_motor_move_right	;wreg free
  5323   000A18                     
  5324                           ;function.c: 196:      _delay((unsigned long)((2500)*(8000000UL/4000.0)));
  5325   000A18  0E1A               	movlw	26
  5326   000A1A  6E36               	movwf	(??_password+1)^0,c
  5327   000A1C  0E5E               	movlw	94
  5328   000A1E  6E35               	movwf	??_password^0,c
  5329   000A20  0E6E               	movlw	110
  5330   000A22                     u4617:
  5331   000A22  2EE8               	decfsz	wreg,f,c
  5332   000A24  D7FE               	bra	u4617
  5333   000A26  2E35               	decfsz	??_password^0,f,c
  5334   000A28  D7FC               	bra	u4617
  5335   000A2A  2E36               	decfsz	(??_password+1)^0,f,c
  5336   000A2C  D7FA               	bra	u4617
  5337   000A2E  D000               	nop2	
  5338   000A30                     
  5339                           ;function.c: 197:      motor_stop(&motor);
  5340   000A30  0E57               	movlw	low _motor
  5341   000A32  6E2C               	movwf	motor_stop@motor^0,c
  5342   000A34  EC2F  F012         	call	_motor_stop	;wreg free
  5343   000A38                     
  5344                           ;function.c: 198:      led_turn_off(&green_led);
  5345   000A38  0E5A               	movlw	low _green_led
  5346   000A3A  6E2C               	movwf	led_turn_off@led^0,c
  5347   000A3C  EC06  F00E         	call	_led_turn_off	;wreg free
  5348   000A40                     l5568:
  5349                           
  5350                           ;function.c: 199:      lcd_4bit_send_command(&lcd,0X01);
  5351   000A40  0E51               	movlw	low _lcd
  5352   000A42  6E2E               	movwf	lcd_4bit_send_command@lcd^0,c
  5353   000A44  0E01               	movlw	1
  5354   000A46  6E2F               	movwf	lcd_4bit_send_command@command^0,c
  5355   000A48  ECC4  F00F         	call	_lcd_4bit_send_command	;wreg free
  5356                           
  5357                           ;function.c: 200:     }
  5358   000A4C  EF61  F005         	goto	l5588
  5359   000A50                     l5570:
  5360                           
  5361                           ; BSR set to: 0
  5362                           ;function.c: 202:      lcd_4bit_send_command(&lcd,0X01);
  5363   000A50  0E51               	movlw	low _lcd
  5364   000A52  6E2E               	movwf	lcd_4bit_send_command@lcd^0,c
  5365   000A54  0E01               	movlw	1
  5366   000A56  6E2F               	movwf	lcd_4bit_send_command@command^0,c
  5367   000A58  ECC4  F00F         	call	_lcd_4bit_send_command	;wreg free
  5368   000A5C                     
  5369                           ;function.c: 203:      lcd_4bit_send_string_pos(&lcd,2,10," Password Wrong!!");
  5370   000A5C  0E51               	movlw	low _lcd
  5371   000A5E  0100               	movlb	0	; () banked
  5372   000A60  6FE2               	movwf	lcd_4bit_send_string_pos@lcd& (0+255),b
  5373   000A62  0E02               	movlw	2
  5374   000A64  6FE3               	movwf	lcd_4bit_send_string_pos@row& (0+255),b
  5375   000A66  0E0A               	movlw	10
  5376   000A68  6FE4               	movwf	lcd_4bit_send_string_pos@column& (0+255),b
  5377   000A6A  0EF6               	movlw	low STR_32
  5378   000A6C  6FE5               	movwf	lcd_4bit_send_string_pos@str& (0+255),b
  5379   000A6E  0EFE               	movlw	high STR_32
  5380   000A70  6FE6               	movwf	(lcd_4bit_send_string_pos@str+1)& (0+255),b
  5381   000A72  ECAE  F011         	call	_lcd_4bit_send_string_pos	;wreg free
  5382   000A76                     
  5383                           ;function.c: 204:      led_turn_on(&red_led);
  5384   000A76  0E59               	movlw	low _red_led
  5385   000A78  6E2C               	movwf	led_turn_on@led^0,c
  5386   000A7A  ECD1  F00D         	call	_led_turn_on	;wreg free
  5387   000A7E                     
  5388                           ;function.c: 205:      gpio_pin_Write_logic(&buzzer,HIGH);
  5389   000A7E  0E5B               	movlw	low _buzzer
  5390   000A80  6E24               	movwf	gpio_pin_Write_logic@_pin_config^0,c
  5391   000A82  0E01               	movlw	1
  5392   000A84  6E25               	movwf	gpio_pin_Write_logic@logic^0,c
  5393   000A86  EC58  F008         	call	_gpio_pin_Write_logic	;wreg free
  5394   000A8A                     
  5395                           ;function.c: 206:      _delay((unsigned long)((2500)*(8000000UL/4000.0)));
  5396   000A8A  0E1A               	movlw	26
  5397   000A8C  6E36               	movwf	(??_password+1)^0,c
  5398   000A8E  0E5E               	movlw	94
  5399   000A90  6E35               	movwf	??_password^0,c
  5400   000A92  0E6E               	movlw	110
  5401   000A94                     u4627:
  5402   000A94  2EE8               	decfsz	wreg,f,c
  5403   000A96  D7FE               	bra	u4627
  5404   000A98  2E35               	decfsz	??_password^0,f,c
  5405   000A9A  D7FC               	bra	u4627
  5406   000A9C  2E36               	decfsz	(??_password+1)^0,f,c
  5407   000A9E  D7FA               	bra	u4627
  5408   000AA0  D000               	nop2	
  5409   000AA2                     
  5410                           ;function.c: 207:      motor_stop(&motor);
  5411   000AA2  0E57               	movlw	low _motor
  5412   000AA4  6E2C               	movwf	motor_stop@motor^0,c
  5413   000AA6  EC2F  F012         	call	_motor_stop	;wreg free
  5414   000AAA                     
  5415                           ;function.c: 208:      led_turn_off(&red_led);
  5416   000AAA  0E59               	movlw	low _red_led
  5417   000AAC  6E2C               	movwf	led_turn_off@led^0,c
  5418   000AAE  EC06  F00E         	call	_led_turn_off	;wreg free
  5419   000AB2                     
  5420                           ;function.c: 209:      gpio_pin_Write_logic(&buzzer,LOW);
  5421   000AB2  0E5B               	movlw	low _buzzer
  5422   000AB4  6E24               	movwf	gpio_pin_Write_logic@_pin_config^0,c
  5423   000AB6  0E00               	movlw	0
  5424   000AB8  6E25               	movwf	gpio_pin_Write_logic@logic^0,c
  5425   000ABA  EC58  F008         	call	_gpio_pin_Write_logic	;wreg free
  5426   000ABE  EF20  F005         	goto	l5568
  5427   000AC2                     l5588:
  5428                           
  5429                           ;function.c: 213:     entered_value=0,memory_value=0;
  5430   000AC2  0E00               	movlw	0
  5431   000AC4  0100               	movlb	0	; () banked
  5432   000AC6  6FA7               	movwf	(_entered_value+1)& (0+255),b
  5433   000AC8  0E00               	movlw	0
  5434   000ACA  6FA6               	movwf	_entered_value& (0+255),b
  5435   000ACC                     
  5436                           ; BSR set to: 0
  5437   000ACC  0E00               	movlw	0
  5438   000ACE  6FA5               	movwf	(_memory_value+1)& (0+255),b
  5439   000AD0  0E00               	movlw	0
  5440   000AD2  6FA4               	movwf	_memory_value& (0+255),b
  5441   000AD4                     
  5442                           ; BSR set to: 0
  5443   000AD4  0012               	return		;funcret
  5444   000AD6                     __end_of_password:
  5445                           	callstack 0
  5446                           
  5447 ;; *************** function _motor_stop *****************
  5448 ;; Defined at:
  5449 ;;		line 68 in file "ECU_LAYER/DC_MOTOR/ecu_dc_motor.c"
  5450 ;; Parameters:    Size  Location     Type
  5451 ;;  motor           1   43[COMRAM] PTR const struct .
  5452 ;;		 -> motor(2), 
  5453 ;; Auto vars:     Size  Location     Type
  5454 ;;  ret             1    0        unsigned char 
  5455 ;; Return value:  Size  Location     Type
  5456 ;;                  1    wreg      unsigned char 
  5457 ;; Registers used:
  5458 ;;		wreg, fsr2l, fsr2h, status,2, status,0, prodl, prodh, cstack
  5459 ;; Tracked objects:
  5460 ;;		On entry : 0/0
  5461 ;;		On exit  : 0/0
  5462 ;;		Unchanged: 0/0
  5463 ;; Data sizes:     COMRAM   BANK0   BANK1   BANK2   BANK3   BANK4   BANK5   BANK6   BANK7   BANK8   BANK9  BANK10  BANK1
      +1  BANK12  BANK13  BANK14  BANK15
  5464 ;;      Params:         1       0       0       0       0       0       0       0       0       0       0       0       
      +0       0       0       0       0
  5465 ;;      Locals:         0       0       0       0       0       0       0       0       0       0       0       0       
      +0       0       0       0       0
  5466 ;;      Temps:          0       0       0       0       0       0       0       0       0       0       0       0       
      +0       0       0       0       0
  5467 ;;      Totals:         1       0       0       0       0       0       0       0       0       0       0       0       
      +0       0       0       0       0
  5468 ;;Total ram usage:        1 bytes
  5469 ;; Hardware stack levels used: 1
  5470 ;; Hardware stack levels required when called: 9
  5471 ;; This function calls:
  5472 ;;		_gpio_pin_Write_logic
  5473 ;; This function is called by:
  5474 ;;		_password
  5475 ;; This function uses a non-reentrant model
  5476 ;;
  5477                           
  5478                           	psect	text27
  5479   00245E                     __ptext27:
  5480                           	callstack 0
  5481   00245E                     _motor_stop:
  5482                           	callstack 19
  5483   00245E                     
  5484                           ;ECU_LAYER/DC_MOTOR/ecu_dc_motor.c: 71:     if (((void*)0) == motor){
  5485   00245E  502C               	movf	motor_stop@motor^0,w,c
  5486   002460  A4D8               	btfss	status,2,c
  5487   002462  EF35  F012         	goto	u2561
  5488   002466  EF37  F012         	goto	u2560
  5489   00246A                     u2561:
  5490   00246A  EF39  F012         	goto	l3710
  5491   00246E                     u2560:
  5492   00246E                     
  5493                           ;ECU_LAYER/DC_MOTOR/ecu_dc_motor.c: 73:     }
  5494   00246E  EF45  F012         	goto	l48
  5495   002472                     l3710:
  5496                           
  5497                           ;ECU_LAYER/DC_MOTOR/ecu_dc_motor.c: 75:             gpio_pin_Write_logic(&(motor->motor_
      +                          config[0]),LOW);
  5498   002472  C02C  F024         	movff	motor_stop@motor,gpio_pin_Write_logic@_pin_config
  5499   002476  0E00               	movlw	0
  5500   002478  6E25               	movwf	gpio_pin_Write_logic@logic^0,c
  5501   00247A  EC58  F008         	call	_gpio_pin_Write_logic	;wreg free
  5502                           
  5503                           ;ECU_LAYER/DC_MOTOR/ecu_dc_motor.c: 76:              gpio_pin_Write_logic(&(motor->motor
      +                          _config[1]),LOW);
  5504   00247E  282C               	incf	motor_stop@motor^0,w,c
  5505   002480  6E24               	movwf	gpio_pin_Write_logic@_pin_config^0,c
  5506   002482  0E00               	movlw	0
  5507   002484  6E25               	movwf	gpio_pin_Write_logic@logic^0,c
  5508   002486  EC58  F008         	call	_gpio_pin_Write_logic	;wreg free
  5509   00248A                     l48:
  5510   00248A  0012               	return		;funcret
  5511   00248C                     __end_of_motor_stop:
  5512                           	callstack 0
  5513                           
  5514 ;; *************** function _motor_move_right *****************
  5515 ;; Defined at:
  5516 ;;		line 33 in file "ECU_LAYER/DC_MOTOR/ecu_dc_motor.c"
  5517 ;; Parameters:    Size  Location     Type
  5518 ;;  motor           1   43[COMRAM] PTR const struct .
  5519 ;;		 -> motor(2), 
  5520 ;; Auto vars:     Size  Location     Type
  5521 ;;  ret             1    0        unsigned char 
  5522 ;; Return value:  Size  Location     Type
  5523 ;;                  1    wreg      unsigned char 
  5524 ;; Registers used:
  5525 ;;		wreg, fsr2l, fsr2h, status,2, status,0, prodl, prodh, cstack
  5526 ;; Tracked objects:
  5527 ;;		On entry : 0/0
  5528 ;;		On exit  : 0/0
  5529 ;;		Unchanged: 0/0
  5530 ;; Data sizes:     COMRAM   BANK0   BANK1   BANK2   BANK3   BANK4   BANK5   BANK6   BANK7   BANK8   BANK9  BANK10  BANK1
      +1  BANK12  BANK13  BANK14  BANK15
  5531 ;;      Params:         1       0       0       0       0       0       0       0       0       0       0       0       
      +0       0       0       0       0
  5532 ;;      Locals:         0       0       0       0       0       0       0       0       0       0       0       0       
      +0       0       0       0       0
  5533 ;;      Temps:          0       0       0       0       0       0       0       0       0       0       0       0       
      +0       0       0       0       0
  5534 ;;      Totals:         1       0       0       0       0       0       0       0       0       0       0       0       
      +0       0       0       0       0
  5535 ;;Total ram usage:        1 bytes
  5536 ;; Hardware stack levels used: 1
  5537 ;; Hardware stack levels required when called: 9
  5538 ;; This function calls:
  5539 ;;		_gpio_pin_Write_logic
  5540 ;; This function is called by:
  5541 ;;		_password
  5542 ;; This function uses a non-reentrant model
  5543 ;;
  5544                           
  5545                           	psect	text28
  5546   00248C                     __ptext28:
  5547                           	callstack 0
  5548   00248C                     _motor_move_right:
  5549                           	callstack 19
  5550   00248C                     
  5551                           ;ECU_LAYER/DC_MOTOR/ecu_dc_motor.c: 37:     if (((void*)0) == motor){
  5552   00248C  502C               	movf	motor_move_right@motor^0,w,c
  5553   00248E  A4D8               	btfss	status,2,c
  5554   002490  EF4C  F012         	goto	u2551
  5555   002494  EF4E  F012         	goto	u2550
  5556   002498                     u2551:
  5557   002498  EF50  F012         	goto	l3702
  5558   00249C                     u2550:
  5559   00249C                     
  5560                           ;ECU_LAYER/DC_MOTOR/ecu_dc_motor.c: 39:     }
  5561   00249C  EF5C  F012         	goto	l38
  5562   0024A0                     l3702:
  5563                           
  5564                           ;ECU_LAYER/DC_MOTOR/ecu_dc_motor.c: 42:         gpio_pin_Write_logic(&(motor->motor_conf
      +                          ig[0]),HIGH);
  5565   0024A0  C02C  F024         	movff	motor_move_right@motor,gpio_pin_Write_logic@_pin_config
  5566   0024A4  0E01               	movlw	1
  5567   0024A6  6E25               	movwf	gpio_pin_Write_logic@logic^0,c
  5568   0024A8  EC58  F008         	call	_gpio_pin_Write_logic	;wreg free
  5569                           
  5570                           ;ECU_LAYER/DC_MOTOR/ecu_dc_motor.c: 43:         gpio_pin_Write_logic(&(motor->motor_conf
      +                          ig[1]),LOW);
  5571   0024AC  282C               	incf	motor_move_right@motor^0,w,c
  5572   0024AE  6E24               	movwf	gpio_pin_Write_logic@_pin_config^0,c
  5573   0024B0  0E00               	movlw	0
  5574   0024B2  6E25               	movwf	gpio_pin_Write_logic@logic^0,c
  5575   0024B4  EC58  F008         	call	_gpio_pin_Write_logic	;wreg free
  5576   0024B8                     l38:
  5577   0024B8  0012               	return		;funcret
  5578   0024BA                     __end_of_motor_move_right:
  5579                           	callstack 0
  5580                           
  5581 ;; *************** function _led_turn_on *****************
  5582 ;; Defined at:
  5583 ;;		line 35 in file "ECU_LAYER/LED/ecu_led.c"
  5584 ;; Parameters:    Size  Location     Type
  5585 ;;  led             1   43[COMRAM] PTR const struct .
  5586 ;;		 -> red_led(1), green_led(1), 
  5587 ;; Auto vars:     Size  Location     Type
  5588 ;;  pin_obj         1   45[COMRAM] struct .
  5589 ;;  ret             1    0        unsigned char 
  5590 ;; Return value:  Size  Location     Type
  5591 ;;                  1    wreg      unsigned char 
  5592 ;; Registers used:
  5593 ;;		wreg, fsr2l, fsr2h, status,2, status,0, prodl, prodh, cstack
  5594 ;; Tracked objects:
  5595 ;;		On entry : 0/0
  5596 ;;		On exit  : 0/0
  5597 ;;		Unchanged: 0/0
  5598 ;; Data sizes:     COMRAM   BANK0   BANK1   BANK2   BANK3   BANK4   BANK5   BANK6   BANK7   BANK8   BANK9  BANK10  BANK1
      +1  BANK12  BANK13  BANK14  BANK15
  5599 ;;      Params:         1       0       0       0       0       0       0       0       0       0       0       0       
      +0       0       0       0       0
  5600 ;;      Locals:         1       0       0       0       0       0       0       0       0       0       0       0       
      +0       0       0       0       0
  5601 ;;      Temps:          1       0       0       0       0       0       0       0       0       0       0       0       
      +0       0       0       0       0
  5602 ;;      Totals:         3       0       0       0       0       0       0       0       0       0       0       0       
      +0       0       0       0       0
  5603 ;;Total ram usage:        3 bytes
  5604 ;; Hardware stack levels used: 1
  5605 ;; Hardware stack levels required when called: 9
  5606 ;; This function calls:
  5607 ;;		_gpio_pin_Write_logic
  5608 ;; This function is called by:
  5609 ;;		_password
  5610 ;; This function uses a non-reentrant model
  5611 ;;
  5612                           
  5613                           	psect	text29
  5614   001BA2                     __ptext29:
  5615                           	callstack 0
  5616   001BA2                     _led_turn_on:
  5617                           	callstack 19
  5618   001BA2                     
  5619                           ;ECU_LAYER/LED/ecu_led.c: 38:     if (((void*)0) == led){
  5620   001BA2  502C               	movf	led_turn_on@led^0,w,c
  5621   001BA4  A4D8               	btfss	status,2,c
  5622   001BA6  EFD7  F00D         	goto	u2611
  5623   001BAA  EFD9  F00D         	goto	u2610
  5624   001BAE                     u2611:
  5625   001BAE  EFDB  F00D         	goto	l254
  5626   001BB2                     u2610:
  5627   001BB2                     
  5628                           ;ECU_LAYER/LED/ecu_led.c: 40:     }
  5629   001BB2  EF05  F00E         	goto	l258
  5630   001BB6                     l254:
  5631                           
  5632                           ;ECU_LAYER/LED/ecu_led.c: 42:           pin_config_t pin_obj={
  5633   001BB6  C049  F02E         	movff	led_turn_on@F3065,led_turn_on@pin_obj
  5634   001BBA  502C               	movf	led_turn_on@led^0,w,c
  5635   001BBC  6ED9               	movwf	fsr2l,c
  5636   001BBE  6ADA               	clrf	fsr2h,c
  5637   001BC0  50DF               	movf	223,w,c
  5638   001BC2  0B0F               	andlw	15
  5639   001BC4  6E2D               	movwf	??_led_turn_on^0,c
  5640   001BC6  502E               	movf	led_turn_on@pin_obj^0,w,c
  5641   001BC8  182D               	xorwf	??_led_turn_on^0,w,c
  5642   001BCA  0BF8               	andlw	-8
  5643   001BCC  182D               	xorwf	??_led_turn_on^0,w,c
  5644   001BCE  6E2E               	movwf	led_turn_on@pin_obj^0,c
  5645   001BD0  502C               	movf	led_turn_on@led^0,w,c
  5646   001BD2  6ED9               	movwf	fsr2l,c
  5647   001BD4  6ADA               	clrf	fsr2h,c
  5648   001BD6  38DF               	swapf	223,w,c
  5649   001BD8  0B07               	andlw	7
  5650   001BDA  6E2D               	movwf	??_led_turn_on^0,c
  5651   001BDC  462D               	rlncf	??_led_turn_on^0,f,c
  5652   001BDE  462D               	rlncf	??_led_turn_on^0,f,c
  5653   001BE0  462D               	rlncf	??_led_turn_on^0,f,c
  5654   001BE2  502E               	movf	led_turn_on@pin_obj^0,w,c
  5655   001BE4  182D               	xorwf	??_led_turn_on^0,w,c
  5656   001BE6  0BC7               	andlw	-57
  5657   001BE8  182D               	xorwf	??_led_turn_on^0,w,c
  5658   001BEA  6E2E               	movwf	led_turn_on@pin_obj^0,c
  5659   001BEC  9C2E               	bcf	led_turn_on@pin_obj^0,6,c
  5660   001BEE  502C               	movf	led_turn_on@led^0,w,c
  5661   001BF0  6ED9               	movwf	fsr2l,c
  5662   001BF2  6ADA               	clrf	fsr2h,c
  5663   001BF4  AEDF               	btfss	indf2,7,c
  5664   001BF6  D002               	bra	u2625
  5665   001BF8  8E2E               	bsf	led_turn_on@pin_obj^0,7,c
  5666   001BFA  D001               	bra	u2627
  5667   001BFC                     u2625:
  5668   001BFC  9E2E               	bcf	led_turn_on@pin_obj^0,7,c
  5669   001BFE                     u2627:
  5670   001BFE                     
  5671                           ;ECU_LAYER/LED/ecu_led.c: 50:         gpio_pin_Write_logic(&pin_obj,HIGH);
  5672   001BFE  0E2E               	movlw	low led_turn_on@pin_obj
  5673   001C00  6E24               	movwf	gpio_pin_Write_logic@_pin_config^0,c
  5674   001C02  0E01               	movlw	1
  5675   001C04  6E25               	movwf	gpio_pin_Write_logic@logic^0,c
  5676   001C06  EC58  F008         	call	_gpio_pin_Write_logic	;wreg free
  5677   001C0A                     l258:
  5678   001C0A  0012               	return		;funcret
  5679   001C0C                     __end_of_led_turn_on:
  5680                           	callstack 0
  5681                           
  5682 ;; *************** function _led_turn_off *****************
  5683 ;; Defined at:
  5684 ;;		line 57 in file "ECU_LAYER/LED/ecu_led.c"
  5685 ;; Parameters:    Size  Location     Type
  5686 ;;  led             1   43[COMRAM] PTR const struct .
  5687 ;;		 -> red_led(1), green_led(1), 
  5688 ;; Auto vars:     Size  Location     Type
  5689 ;;  pin_obj         1   45[COMRAM] struct .
  5690 ;;  ret             1    0        unsigned char 
  5691 ;; Return value:  Size  Location     Type
  5692 ;;                  1    wreg      unsigned char 
  5693 ;; Registers used:
  5694 ;;		wreg, fsr2l, fsr2h, status,2, status,0, prodl, prodh, cstack
  5695 ;; Tracked objects:
  5696 ;;		On entry : 0/0
  5697 ;;		On exit  : 0/0
  5698 ;;		Unchanged: 0/0
  5699 ;; Data sizes:     COMRAM   BANK0   BANK1   BANK2   BANK3   BANK4   BANK5   BANK6   BANK7   BANK8   BANK9  BANK10  BANK1
      +1  BANK12  BANK13  BANK14  BANK15
  5700 ;;      Params:         1       0       0       0       0       0       0       0       0       0       0       0       
      +0       0       0       0       0
  5701 ;;      Locals:         1       0       0       0       0       0       0       0       0       0       0       0       
      +0       0       0       0       0
  5702 ;;      Temps:          1       0       0       0       0       0       0       0       0       0       0       0       
      +0       0       0       0       0
  5703 ;;      Totals:         3       0       0       0       0       0       0       0       0       0       0       0       
      +0       0       0       0       0
  5704 ;;Total ram usage:        3 bytes
  5705 ;; Hardware stack levels used: 1
  5706 ;; Hardware stack levels required when called: 9
  5707 ;; This function calls:
  5708 ;;		_gpio_pin_Write_logic
  5709 ;; This function is called by:
  5710 ;;		_password
  5711 ;; This function uses a non-reentrant model
  5712 ;;
  5713                           
  5714                           	psect	text30
  5715   001C0C                     __ptext30:
  5716                           	callstack 0
  5717   001C0C                     _led_turn_off:
  5718                           	callstack 19
  5719   001C0C                     
  5720                           ;ECU_LAYER/LED/ecu_led.c: 60:     if (((void*)0) == led){
  5721   001C0C  502C               	movf	led_turn_off@led^0,w,c
  5722   001C0E  A4D8               	btfss	status,2,c
  5723   001C10  EF0C  F00E         	goto	u2631
  5724   001C14  EF0E  F00E         	goto	u2630
  5725   001C18                     u2631:
  5726   001C18  EF10  F00E         	goto	l261
  5727   001C1C                     u2630:
  5728   001C1C                     
  5729                           ;ECU_LAYER/LED/ecu_led.c: 62:     }
  5730   001C1C  EF3A  F00E         	goto	l265
  5731   001C20                     l261:
  5732                           
  5733                           ;ECU_LAYER/LED/ecu_led.c: 65:          pin_config_t pin_obj={
  5734   001C20  C048  F02E         	movff	led_turn_off@F3070,led_turn_off@pin_obj
  5735   001C24  502C               	movf	led_turn_off@led^0,w,c
  5736   001C26  6ED9               	movwf	fsr2l,c
  5737   001C28  6ADA               	clrf	fsr2h,c
  5738   001C2A  50DF               	movf	223,w,c
  5739   001C2C  0B0F               	andlw	15
  5740   001C2E  6E2D               	movwf	??_led_turn_off^0,c
  5741   001C30  502E               	movf	led_turn_off@pin_obj^0,w,c
  5742   001C32  182D               	xorwf	??_led_turn_off^0,w,c
  5743   001C34  0BF8               	andlw	-8
  5744   001C36  182D               	xorwf	??_led_turn_off^0,w,c
  5745   001C38  6E2E               	movwf	led_turn_off@pin_obj^0,c
  5746   001C3A  502C               	movf	led_turn_off@led^0,w,c
  5747   001C3C  6ED9               	movwf	fsr2l,c
  5748   001C3E  6ADA               	clrf	fsr2h,c
  5749   001C40  38DF               	swapf	223,w,c
  5750   001C42  0B07               	andlw	7
  5751   001C44  6E2D               	movwf	??_led_turn_off^0,c
  5752   001C46  462D               	rlncf	??_led_turn_off^0,f,c
  5753   001C48  462D               	rlncf	??_led_turn_off^0,f,c
  5754   001C4A  462D               	rlncf	??_led_turn_off^0,f,c
  5755   001C4C  502E               	movf	led_turn_off@pin_obj^0,w,c
  5756   001C4E  182D               	xorwf	??_led_turn_off^0,w,c
  5757   001C50  0BC7               	andlw	-57
  5758   001C52  182D               	xorwf	??_led_turn_off^0,w,c
  5759   001C54  6E2E               	movwf	led_turn_off@pin_obj^0,c
  5760   001C56  9C2E               	bcf	led_turn_off@pin_obj^0,6,c
  5761   001C58  502C               	movf	led_turn_off@led^0,w,c
  5762   001C5A  6ED9               	movwf	fsr2l,c
  5763   001C5C  6ADA               	clrf	fsr2h,c
  5764   001C5E  AEDF               	btfss	indf2,7,c
  5765   001C60  D002               	bra	u2645
  5766   001C62  8E2E               	bsf	led_turn_off@pin_obj^0,7,c
  5767   001C64  D001               	bra	u2647
  5768   001C66                     u2645:
  5769   001C66  9E2E               	bcf	led_turn_off@pin_obj^0,7,c
  5770   001C68                     u2647:
  5771   001C68                     
  5772                           ;ECU_LAYER/LED/ecu_led.c: 73:         gpio_pin_Write_logic(&pin_obj,LOW);
  5773   001C68  0E2E               	movlw	low led_turn_off@pin_obj
  5774   001C6A  6E24               	movwf	gpio_pin_Write_logic@_pin_config^0,c
  5775   001C6C  0E00               	movlw	0
  5776   001C6E  6E25               	movwf	gpio_pin_Write_logic@logic^0,c
  5777   001C70  EC58  F008         	call	_gpio_pin_Write_logic	;wreg free
  5778   001C74                     l265:
  5779   001C74  0012               	return		;funcret
  5780   001C76                     __end_of_led_turn_off:
  5781                           	callstack 0
  5782                           
  5783 ;; *************** function _lcd_4bit_send_string_pos *****************
  5784 ;; Defined at:
  5785 ;;		line 122 in file "ECU_LAYER/LCD/ecu_lcd.c"
  5786 ;; Parameters:    Size  Location     Type
  5787 ;;  lcd             1    0[BANK0 ] PTR const struct .
  5788 ;;		 -> lcd(6), 
  5789 ;;  row             1    1[BANK0 ] unsigned char 
  5790 ;;  column          1    2[BANK0 ] unsigned char 
  5791 ;;  str             2    3[BANK0 ] PTR unsigned char 
  5792 ;;		 -> STR_36(18), STR_35(16), STR_34(14), STR_33(18), 
  5793 ;;		 -> STR_32(18), STR_31(18), STR_30(18), STR_29(16), 
  5794 ;;		 -> STR_28(14), STR_27(14), STR_26(16), STR_25(16), 
  5795 ;;		 -> STR_24(2), STR_23(6), STR_22(16), STR_21(2), 
  5796 ;;		 -> STR_20(6), STR_19(20), STR_18(2), STR_17(6), 
  5797 ;;		 -> STR_16(20), STR_15(2), STR_14(6), STR_13(18), 
  5798 ;;		 -> STR_12(2), display_value(4), STR_11(6), STR_10(20), 
  5799 ;;		 -> STR_9(8), STR_8(16), STR_7(14), STR_6(20), 
  5800 ;;		 -> STR_5(18), STR_4(22), 
  5801 ;; Auto vars:     Size  Location     Type
  5802 ;;  ret             1    0        unsigned char 
  5803 ;; Return value:  Size  Location     Type
  5804 ;;                  1    wreg      unsigned char 
  5805 ;; Registers used:
  5806 ;;		wreg, fsr0l, fsr0h, fsr2l, fsr2h, status,2, status,0, tblptrl, tblptrh, tblptru, prodl, prodh, cstack
  5807 ;; Tracked objects:
  5808 ;;		On entry : 0/0
  5809 ;;		On exit  : 0/0
  5810 ;;		Unchanged: 0/0
  5811 ;; Data sizes:     COMRAM   BANK0   BANK1   BANK2   BANK3   BANK4   BANK5   BANK6   BANK7   BANK8   BANK9  BANK10  BANK1
      +1  BANK12  BANK13  BANK14  BANK15
  5812 ;;      Params:         0       5       0       0       0       0       0       0       0       0       0       0       
      +0       0       0       0       0
  5813 ;;      Locals:         0       0       0       0       0       0       0       0       0       0       0       0       
      +0       0       0       0       0
  5814 ;;      Temps:          0       0       0       0       0       0       0       0       0       0       0       0       
      +0       0       0       0       0
  5815 ;;      Totals:         0       5       0       0       0       0       0       0       0       0       0       0       
      +0       0       0       0       0
  5816 ;;Total ram usage:        5 bytes
  5817 ;; Hardware stack levels used: 1
  5818 ;; Hardware stack levels required when called: 12
  5819 ;; This function calls:
  5820 ;;		_lcd_4bit_send_string
  5821 ;;		_set_cursor_4bit
  5822 ;; This function is called by:
  5823 ;;		_main
  5824 ;;		_welcome_message
  5825 ;;		_Set_password
  5826 ;;		_Enter_password
  5827 ;;		_password_handler
  5828 ;;		_password
  5829 ;;		_password_reset
  5830 ;; This function uses a non-reentrant model
  5831 ;;
  5832                           
  5833                           	psect	text31
  5834   00235C                     __ptext31:
  5835                           	callstack 0
  5836   00235C                     _lcd_4bit_send_string_pos:
  5837                           	callstack 17
  5838   00235C                     
  5839                           ;ECU_LAYER/LCD/ecu_lcd.c: 126:     if (((void*)0) == lcd ){
  5840   00235C  0100               	movlb	0	; () banked
  5841   00235E  51E2               	movf	lcd_4bit_send_string_pos@lcd& (0+255),w,b
  5842   002360  A4D8               	btfss	status,2,c
  5843   002362  EFB5  F011         	goto	u4141
  5844   002366  EFB7  F011         	goto	u4140
  5845   00236A                     u4141:
  5846   00236A  EFB9  F011         	goto	l5430
  5847   00236E                     u4140:
  5848   00236E                     
  5849                           ; BSR set to: 0
  5850                           ;ECU_LAYER/LCD/ecu_lcd.c: 128:     }
  5851   00236E  EFC9  F011         	goto	l141
  5852   002372                     l5430:
  5853                           
  5854                           ; BSR set to: 0
  5855                           ;ECU_LAYER/LCD/ecu_lcd.c: 130:         set_cursor_4bit(lcd,row,column);
  5856   002372  C0E2  F030         	movff	lcd_4bit_send_string_pos@lcd,set_cursor_4bit@lcd
  5857   002376  C0E3  F031         	movff	lcd_4bit_send_string_pos@row,set_cursor_4bit@row
  5858   00237A  C0E4  F032         	movff	lcd_4bit_send_string_pos@column,set_cursor_4bit@column
  5859   00237E  EC19  F00C         	call	_set_cursor_4bit	;wreg free
  5860   002382                     
  5861                           ;ECU_LAYER/LCD/ecu_lcd.c: 131:         lcd_4bit_send_string(lcd,str);
  5862   002382  C0E2  F030         	movff	lcd_4bit_send_string_pos@lcd,lcd_4bit_send_string@lcd
  5863   002386  C0E5  F031         	movff	lcd_4bit_send_string_pos@str,lcd_4bit_send_string@str
  5864   00238A  C0E6  F032         	movff	lcd_4bit_send_string_pos@str+1,lcd_4bit_send_string@str+1
  5865   00238E  ECE7  F00C         	call	_lcd_4bit_send_string	;wreg free
  5866   002392                     l141:
  5867   002392  0012               	return		;funcret
  5868   002394                     __end_of_lcd_4bit_send_string_pos:
  5869                           	callstack 0
  5870                           
  5871 ;; *************** function _set_cursor_4bit *****************
  5872 ;; Defined at:
  5873 ;;		line 430 in file "ECU_LAYER/LCD/ecu_lcd.c"
  5874 ;; Parameters:    Size  Location     Type
  5875 ;;  lcd             1   47[COMRAM] PTR const struct .
  5876 ;;		 -> lcd(6), 
  5877 ;;  row             1   48[COMRAM] unsigned char 
  5878 ;;  column          1   49[COMRAM] unsigned char 
  5879 ;; Auto vars:     Size  Location     Type
  5880 ;;		None
  5881 ;; Return value:  Size  Location     Type
  5882 ;;                  1    wreg      void 
  5883 ;; Registers used:
  5884 ;;		wreg, fsr2l, fsr2h, status,2, status,0, prodl, prodh, cstack
  5885 ;; Tracked objects:
  5886 ;;		On entry : 0/0
  5887 ;;		On exit  : 0/0
  5888 ;;		Unchanged: 0/0
  5889 ;; Data sizes:     COMRAM   BANK0   BANK1   BANK2   BANK3   BANK4   BANK5   BANK6   BANK7   BANK8   BANK9  BANK10  BANK1
      +1  BANK12  BANK13  BANK14  BANK15
  5890 ;;      Params:         3       0       0       0       0       0       0       0       0       0       0       0       
      +0       0       0       0       0
  5891 ;;      Locals:         0       0       0       0       0       0       0       0       0       0       0       0       
      +0       0       0       0       0
  5892 ;;      Temps:          2       0       0       0       0       0       0       0       0       0       0       0       
      +0       0       0       0       0
  5893 ;;      Totals:         5       0       0       0       0       0       0       0       0       0       0       0       
      +0       0       0       0       0
  5894 ;;Total ram usage:        5 bytes
  5895 ;; Hardware stack levels used: 1
  5896 ;; Hardware stack levels required when called: 11
  5897 ;; This function calls:
  5898 ;;		_lcd_4bit_send_command
  5899 ;; This function is called by:
  5900 ;;		_lcd_4bit_send_string_pos
  5901 ;;		_lcd_4bit_send_data_pos
  5902 ;; This function uses a non-reentrant model
  5903 ;;
  5904                           
  5905                           	psect	text32
  5906   001832                     __ptext32:
  5907                           	callstack 0
  5908   001832                     _set_cursor_4bit:
  5909                           	callstack 17
  5910   001832                     
  5911                           ;ECU_LAYER/LCD/ecu_lcd.c: 431:     column--;
  5912   001832  0632               	decf	set_cursor_4bit@column^0,f,c
  5913                           
  5914                           ;ECU_LAYER/LCD/ecu_lcd.c: 432:     switch (row){
  5915   001834  EF40  F00C         	goto	l3598
  5916   001838                     l3590:
  5917   001838  C030  F02E         	movff	set_cursor_4bit@lcd,lcd_4bit_send_command@lcd
  5918   00183C  5032               	movf	set_cursor_4bit@column^0,w,c
  5919   00183E  0F80               	addlw	128
  5920   001840  6E2F               	movwf	lcd_4bit_send_command@command^0,c
  5921   001842  ECC4  F00F         	call	_lcd_4bit_send_command	;wreg free
  5922   001846  EF5D  F00C         	goto	l238
  5923   00184A                     l3592:
  5924   00184A  C030  F02E         	movff	set_cursor_4bit@lcd,lcd_4bit_send_command@lcd
  5925   00184E  5032               	movf	set_cursor_4bit@column^0,w,c
  5926   001850  0FC0               	addlw	192
  5927   001852  6E2F               	movwf	lcd_4bit_send_command@command^0,c
  5928   001854  ECC4  F00F         	call	_lcd_4bit_send_command	;wreg free
  5929   001858  EF5D  F00C         	goto	l238
  5930   00185C                     l3594:
  5931   00185C  C030  F02E         	movff	set_cursor_4bit@lcd,lcd_4bit_send_command@lcd
  5932   001860  5032               	movf	set_cursor_4bit@column^0,w,c
  5933   001862  0F94               	addlw	148
  5934   001864  6E2F               	movwf	lcd_4bit_send_command@command^0,c
  5935   001866  ECC4  F00F         	call	_lcd_4bit_send_command	;wreg free
  5936   00186A  EF5D  F00C         	goto	l238
  5937   00186E                     l3596:
  5938   00186E  C030  F02E         	movff	set_cursor_4bit@lcd,lcd_4bit_send_command@lcd
  5939   001872  5032               	movf	set_cursor_4bit@column^0,w,c
  5940   001874  0FD4               	addlw	212
  5941   001876  6E2F               	movwf	lcd_4bit_send_command@command^0,c
  5942   001878  ECC4  F00F         	call	_lcd_4bit_send_command	;wreg free
  5943   00187C  EF5D  F00C         	goto	l238
  5944   001880                     l3598:
  5945   001880  5031               	movf	set_cursor_4bit@row^0,w,c
  5946   001882  6E33               	movwf	??_set_cursor_4bit^0,c
  5947   001884  6A34               	clrf	(??_set_cursor_4bit+1)^0,c
  5948                           
  5949                           ; Switch on 2 bytes has been partitioned into a top level switch of size 1, and 1 sub-sw
      +                          itches
  5950                           ; Switch size 1, requested type "simple"
  5951                           ; Number of cases is 1, Range of values is 0 to 0
  5952                           ; switch strategies available:
  5953                           ; Name         Instructions Cycles
  5954                           ; simple_byte            4     3 (average)
  5955                           ;	Chosen strategy is simple_byte
  5956   001886  5034               	movf	(??_set_cursor_4bit+1)^0,w,c
  5957   001888  0A00               	xorlw	0	; case 0
  5958   00188A  B4D8               	btfsc	status,2,c
  5959   00188C  EF4A  F00C         	goto	l6086
  5960   001890  EF5D  F00C         	goto	l238
  5961   001894                     l6086:
  5962                           
  5963                           ; Switch size 1, requested type "simple"
  5964                           ; Number of cases is 4, Range of values is 1 to 4
  5965                           ; switch strategies available:
  5966                           ; Name         Instructions Cycles
  5967                           ; simple_byte           13     7 (average)
  5968                           ;	Chosen strategy is simple_byte
  5969   001894  5033               	movf	??_set_cursor_4bit^0,w,c
  5970   001896  0A01               	xorlw	1	; case 1
  5971   001898  B4D8               	btfsc	status,2,c
  5972   00189A  EF1C  F00C         	goto	l3590
  5973   00189E  0A03               	xorlw	3	; case 2
  5974   0018A0  B4D8               	btfsc	status,2,c
  5975   0018A2  EF25  F00C         	goto	l3592
  5976   0018A6  0A01               	xorlw	1	; case 3
  5977   0018A8  B4D8               	btfsc	status,2,c
  5978   0018AA  EF2E  F00C         	goto	l3594
  5979   0018AE  0A07               	xorlw	7	; case 4
  5980   0018B0  B4D8               	btfsc	status,2,c
  5981   0018B2  EF37  F00C         	goto	l3596
  5982   0018B6  EF5D  F00C         	goto	l238
  5983   0018BA                     l238:
  5984   0018BA  0012               	return		;funcret
  5985   0018BC                     __end_of_set_cursor_4bit:
  5986                           	callstack 0
  5987                           
  5988 ;; *************** function _lcd_4bit_send_command *****************
  5989 ;; Defined at:
  5990 ;;		line 52 in file "ECU_LAYER/LCD/ecu_lcd.c"
  5991 ;; Parameters:    Size  Location     Type
  5992 ;;  lcd             1   45[COMRAM] PTR const struct .
  5993 ;;		 -> lcd(6), 
  5994 ;;  command         1   46[COMRAM] unsigned char 
  5995 ;; Auto vars:     Size  Location     Type
  5996 ;;  ret             1    0        unsigned char 
  5997 ;; Return value:  Size  Location     Type
  5998 ;;                  1    wreg      unsigned char 
  5999 ;; Registers used:
  6000 ;;		wreg, fsr2l, fsr2h, status,2, status,0, prodl, prodh, cstack
  6001 ;; Tracked objects:
  6002 ;;		On entry : 0/0
  6003 ;;		On exit  : 0/0
  6004 ;;		Unchanged: 0/0
  6005 ;; Data sizes:     COMRAM   BANK0   BANK1   BANK2   BANK3   BANK4   BANK5   BANK6   BANK7   BANK8   BANK9  BANK10  BANK1
      +1  BANK12  BANK13  BANK14  BANK15
  6006 ;;      Params:         2       0       0       0       0       0       0       0       0       0       0       0       
      +0       0       0       0       0
  6007 ;;      Locals:         0       0       0       0       0       0       0       0       0       0       0       0       
      +0       0       0       0       0
  6008 ;;      Temps:          0       0       0       0       0       0       0       0       0       0       0       0       
      +0       0       0       0       0
  6009 ;;      Totals:         2       0       0       0       0       0       0       0       0       0       0       0       
      +0       0       0       0       0
  6010 ;;Total ram usage:        2 bytes
  6011 ;; Hardware stack levels used: 1
  6012 ;; Hardware stack levels required when called: 10
  6013 ;; This function calls:
  6014 ;;		_gpio_pin_Write_logic
  6015 ;;		_send_4bit
  6016 ;;		_send_4bit_enable_signal
  6017 ;; This function is called by:
  6018 ;;		_lcd_4bit_intialize
  6019 ;;		_set_cursor_4bit
  6020 ;;		_main
  6021 ;;		_welcome_message
  6022 ;;		_Set_password
  6023 ;;		_Enter_password
  6024 ;;		_password_handler
  6025 ;;		_password
  6026 ;;		_password_reset
  6027 ;;		_lcd_4bit_send_custom_char
  6028 ;; This function uses a non-reentrant model
  6029 ;;
  6030                           
  6031                           	psect	text33
  6032   001F88                     __ptext33:
  6033                           	callstack 0
  6034   001F88                     _lcd_4bit_send_command:
  6035                           	callstack 17
  6036   001F88                     
  6037                           ;ECU_LAYER/LCD/ecu_lcd.c: 57:     if (((void*)0) == lcd ){
  6038   001F88  502E               	movf	lcd_4bit_send_command@lcd^0,w,c
  6039   001F8A  A4D8               	btfss	status,2,c
  6040   001F8C  EFCA  F00F         	goto	u2191
  6041   001F90  EFCC  F00F         	goto	u2190
  6042   001F94                     u2191:
  6043   001F94  EFCE  F00F         	goto	l3488
  6044   001F98                     u2190:
  6045   001F98                     
  6046                           ;ECU_LAYER/LCD/ecu_lcd.c: 59:     }
  6047   001F98  EFE9  F00F         	goto	l118
  6048   001F9C                     l3488:
  6049                           
  6050                           ;ECU_LAYER/LCD/ecu_lcd.c: 61:         gpio_pin_Write_logic(&(lcd->lcd_rs),LOW);
  6051   001F9C  C02E  F024         	movff	lcd_4bit_send_command@lcd,gpio_pin_Write_logic@_pin_config
  6052   001FA0  0E00               	movlw	0
  6053   001FA2  6E25               	movwf	gpio_pin_Write_logic@logic^0,c
  6054   001FA4  EC58  F008         	call	_gpio_pin_Write_logic	;wreg free
  6055                           
  6056                           ;ECU_LAYER/LCD/ecu_lcd.c: 62:         send_4bit(lcd,command>>4);
  6057   001FA8  C02E  F02C         	movff	lcd_4bit_send_command@lcd,send_4bit@lcd
  6058   001FAC  382F               	swapf	lcd_4bit_send_command@command^0,w,c
  6059   001FAE  0B0F               	andlw	15
  6060   001FB0  6E2D               	movwf	send_4bit@_data_command^0,c
  6061   001FB2  EC10  F010         	call	_send_4bit	;wreg free
  6062                           
  6063                           ;ECU_LAYER/LCD/ecu_lcd.c: 63:         send_4bit_enable_signal(lcd);
  6064   001FB6  C02E  F02C         	movff	lcd_4bit_send_command@lcd,send_4bit_enable_signal@lcd
  6065   001FBA  ECDE  F012         	call	_send_4bit_enable_signal	;wreg free
  6066                           
  6067                           ;ECU_LAYER/LCD/ecu_lcd.c: 64:         send_4bit(lcd,command);
  6068   001FBE  C02E  F02C         	movff	lcd_4bit_send_command@lcd,send_4bit@lcd
  6069   001FC2  C02F  F02D         	movff	lcd_4bit_send_command@command,send_4bit@_data_command
  6070   001FC6  EC10  F010         	call	_send_4bit	;wreg free
  6071                           
  6072                           ;ECU_LAYER/LCD/ecu_lcd.c: 65:         send_4bit_enable_signal(lcd);
  6073   001FCA  C02E  F02C         	movff	lcd_4bit_send_command@lcd,send_4bit_enable_signal@lcd
  6074   001FCE  ECDE  F012         	call	_send_4bit_enable_signal	;wreg free
  6075   001FD2                     l118:
  6076   001FD2  0012               	return		;funcret
  6077   001FD4                     __end_of_lcd_4bit_send_command:
  6078                           	callstack 0
  6079                           
  6080 ;; *************** function _lcd_4bit_send_string *****************
  6081 ;; Defined at:
  6082 ;;		line 105 in file "ECU_LAYER/LCD/ecu_lcd.c"
  6083 ;; Parameters:    Size  Location     Type
  6084 ;;  lcd             1   47[COMRAM] PTR const struct .
  6085 ;;		 -> lcd(6), 
  6086 ;;  str             2   48[COMRAM] PTR unsigned char 
  6087 ;;		 -> STR_36(18), STR_35(16), STR_34(14), STR_33(18), 
  6088 ;;		 -> STR_32(18), STR_31(18), STR_30(18), STR_29(16), 
  6089 ;;		 -> STR_28(14), STR_27(14), STR_26(16), STR_25(16), 
  6090 ;;		 -> STR_24(2), STR_23(6), STR_22(16), STR_21(2), 
  6091 ;;		 -> STR_20(6), STR_19(20), STR_18(2), STR_17(6), 
  6092 ;;		 -> STR_16(20), STR_15(2), STR_14(6), STR_13(18), 
  6093 ;;		 -> STR_12(2), display_value(4), STR_11(6), STR_10(20), 
  6094 ;;		 -> STR_9(8), STR_8(16), STR_7(14), STR_6(20), 
  6095 ;;		 -> STR_5(18), STR_4(22), 
  6096 ;; Auto vars:     Size  Location     Type
  6097 ;;  ret             1    0        unsigned char 
  6098 ;; Return value:  Size  Location     Type
  6099 ;;                  1    wreg      unsigned char 
  6100 ;; Registers used:
  6101 ;;		wreg, fsr0l, fsr0h, fsr2l, fsr2h, status,2, status,0, tblptrl, tblptrh, tblptru, prodl, prodh, cstack
  6102 ;; Tracked objects:
  6103 ;;		On entry : 0/0
  6104 ;;		On exit  : 0/0
  6105 ;;		Unchanged: 0/0
  6106 ;; Data sizes:     COMRAM   BANK0   BANK1   BANK2   BANK3   BANK4   BANK5   BANK6   BANK7   BANK8   BANK9  BANK10  BANK1
      +1  BANK12  BANK13  BANK14  BANK15
  6107 ;;      Params:         3       0       0       0       0       0       0       0       0       0       0       0       
      +0       0       0       0       0
  6108 ;;      Locals:         0       0       0       0       0       0       0       0       0       0       0       0       
      +0       0       0       0       0
  6109 ;;      Temps:          0       0       0       0       0       0       0       0       0       0       0       0       
      +0       0       0       0       0
  6110 ;;      Totals:         3       0       0       0       0       0       0       0       0       0       0       0       
      +0       0       0       0       0
  6111 ;;Total ram usage:        3 bytes
  6112 ;; Hardware stack levels used: 1
  6113 ;; Hardware stack levels required when called: 11
  6114 ;; This function calls:
  6115 ;;		_lcd_4bit_send_data
  6116 ;; This function is called by:
  6117 ;;		_lcd_4bit_send_string_pos
  6118 ;; This function uses a non-reentrant model
  6119 ;;
  6120                           
  6121                           	psect	text34
  6122   0019CE                     __ptext34:
  6123                           	callstack 0
  6124   0019CE                     _lcd_4bit_send_string:
  6125                           	callstack 17
  6126   0019CE                     
  6127                           ;ECU_LAYER/LCD/ecu_lcd.c: 109:     if (((void*)0) == lcd ){
  6128   0019CE  5030               	movf	lcd_4bit_send_string@lcd^0,w,c
  6129   0019D0  A4D8               	btfss	status,2,c
  6130   0019D2  EFED  F00C         	goto	u2391
  6131   0019D6  EFEF  F00C         	goto	u2390
  6132   0019DA                     u2391:
  6133   0019DA  EF09  F00D         	goto	l3612
  6134   0019DE                     u2390:
  6135   0019DE                     
  6136                           ;ECU_LAYER/LCD/ecu_lcd.c: 111:     }
  6137   0019DE  EF22  F00D         	goto	l136
  6138   0019E2                     l3608:
  6139                           
  6140                           ;ECU_LAYER/LCD/ecu_lcd.c: 114:             lcd_4bit_send_data(lcd,*str++);
  6141   0019E2  C030  F02E         	movff	lcd_4bit_send_string@lcd,lcd_4bit_send_data@lcd
  6142   0019E6  C031  FFF6         	movff	lcd_4bit_send_string@str,tblptrl
  6143   0019EA  C032  FFF7         	movff	lcd_4bit_send_string@str+1,tblptrh
  6144   0019EE  0E00               	movlw	low (__mediumconst shr (0+16))
  6145   0019F0  6EF8               	movwf	tblptru,c
  6146   0019F2  0E0F               	movlw	(high __ramtop+-1)
  6147   0019F4  64F7               	cpfsgt	tblptrh,c
  6148   0019F6  D003               	bra	u2407
  6149   0019F8  0008               	tblrd		*
  6150   0019FA  50F5               	movf	tablat,w,c
  6151   0019FC  D005               	bra	u2400
  6152   0019FE                     u2407:
  6153   0019FE  CFF6 FFE9          	movff	tblptrl,fsr0l
  6154   001A02  CFF7 FFEA          	movff	tblptrh,fsr0h
  6155   001A06  50EF               	movf	indf0,w,c
  6156   001A08                     u2400:
  6157   001A08  6E2F               	movwf	lcd_4bit_send_data@data^0,c
  6158   001A0A  ECEA  F00F         	call	_lcd_4bit_send_data	;wreg free
  6159   001A0E  4A31               	infsnz	lcd_4bit_send_string@str^0,f,c
  6160   001A10  2A32               	incf	(lcd_4bit_send_string@str+1)^0,f,c
  6161   001A12                     l3612:
  6162                           
  6163                           ;ECU_LAYER/LCD/ecu_lcd.c: 113:         while(*str){
  6164   001A12  C031  FFF6         	movff	lcd_4bit_send_string@str,tblptrl
  6165   001A16  C032  FFF7         	movff	lcd_4bit_send_string@str+1,tblptrh
  6166   001A1A  0E00               	movlw	low (__mediumconst shr (0+16))
  6167   001A1C  6EF8               	movwf	tblptru,c
  6168   001A1E  0E0F               	movlw	(high __ramtop+-1)
  6169   001A20  64F7               	cpfsgt	tblptrh,c
  6170   001A22  D003               	bra	u2417
  6171   001A24  0008               	tblrd		*
  6172   001A26  50F5               	movf	tablat,w,c
  6173   001A28  D005               	bra	u2410
  6174   001A2A                     u2417:
  6175   001A2A  CFF6 FFE9          	movff	tblptrl,fsr0l
  6176   001A2E  CFF7 FFEA          	movff	tblptrh,fsr0h
  6177   001A32  50EF               	movf	indf0,w,c
  6178   001A34                     u2410:
  6179   001A34  0900               	iorlw	0
  6180   001A36  A4D8               	btfss	status,2,c
  6181   001A38  EF20  F00D         	goto	u2421
  6182   001A3C  EF22  F00D         	goto	u2420
  6183   001A40                     u2421:
  6184   001A40  EFF1  F00C         	goto	l3608
  6185   001A44                     u2420:
  6186   001A44                     l136:
  6187   001A44  0012               	return		;funcret
  6188   001A46                     __end_of_lcd_4bit_send_string:
  6189                           	callstack 0
  6190                           
  6191 ;; *************** function _lcd_4bit_send_data *****************
  6192 ;; Defined at:
  6193 ;;		line 72 in file "ECU_LAYER/LCD/ecu_lcd.c"
  6194 ;; Parameters:    Size  Location     Type
  6195 ;;  lcd             1   45[COMRAM] PTR const struct .
  6196 ;;		 -> lcd(6), 
  6197 ;;  data            1   46[COMRAM] unsigned char 
  6198 ;; Auto vars:     Size  Location     Type
  6199 ;;  ret             1    0        unsigned char 
  6200 ;; Return value:  Size  Location     Type
  6201 ;;                  1    wreg      unsigned char 
  6202 ;; Registers used:
  6203 ;;		wreg, fsr2l, fsr2h, status,2, status,0, prodl, prodh, cstack
  6204 ;; Tracked objects:
  6205 ;;		On entry : 0/0
  6206 ;;		On exit  : 0/0
  6207 ;;		Unchanged: 0/0
  6208 ;; Data sizes:     COMRAM   BANK0   BANK1   BANK2   BANK3   BANK4   BANK5   BANK6   BANK7   BANK8   BANK9  BANK10  BANK1
      +1  BANK12  BANK13  BANK14  BANK15
  6209 ;;      Params:         2       0       0       0       0       0       0       0       0       0       0       0       
      +0       0       0       0       0
  6210 ;;      Locals:         0       0       0       0       0       0       0       0       0       0       0       0       
      +0       0       0       0       0
  6211 ;;      Temps:          0       0       0       0       0       0       0       0       0       0       0       0       
      +0       0       0       0       0
  6212 ;;      Totals:         2       0       0       0       0       0       0       0       0       0       0       0       
      +0       0       0       0       0
  6213 ;;Total ram usage:        2 bytes
  6214 ;; Hardware stack levels used: 1
  6215 ;; Hardware stack levels required when called: 10
  6216 ;; This function calls:
  6217 ;;		_gpio_pin_Write_logic
  6218 ;;		_send_4bit
  6219 ;;		_send_4bit_enable_signal
  6220 ;; This function is called by:
  6221 ;;		_lcd_4bit_send_string
  6222 ;;		_lcd_4bit_send_data_pos
  6223 ;;		_lcd_4bit_send_custom_char
  6224 ;; This function uses a non-reentrant model
  6225 ;;
  6226                           
  6227                           	psect	text35
  6228   001FD4                     __ptext35:
  6229                           	callstack 0
  6230   001FD4                     _lcd_4bit_send_data:
  6231                           	callstack 17
  6232   001FD4                     
  6233                           ;ECU_LAYER/LCD/ecu_lcd.c: 76:     if (((void*)0) == lcd ){
  6234   001FD4  502E               	movf	lcd_4bit_send_data@lcd^0,w,c
  6235   001FD6  A4D8               	btfss	status,2,c
  6236   001FD8  EFF0  F00F         	goto	u2201
  6237   001FDC  EFF2  F00F         	goto	u2200
  6238   001FE0                     u2201:
  6239   001FE0  EFF4  F00F         	goto	l3496
  6240   001FE4                     u2200:
  6241   001FE4                     
  6242                           ;ECU_LAYER/LCD/ecu_lcd.c: 78:     }
  6243   001FE4  EF0F  F010         	goto	l123
  6244   001FE8                     l3496:
  6245                           
  6246                           ;ECU_LAYER/LCD/ecu_lcd.c: 80:       gpio_pin_Write_logic(&(lcd->lcd_rs),HIGH);
  6247   001FE8  C02E  F024         	movff	lcd_4bit_send_data@lcd,gpio_pin_Write_logic@_pin_config
  6248   001FEC  0E01               	movlw	1
  6249   001FEE  6E25               	movwf	gpio_pin_Write_logic@logic^0,c
  6250   001FF0  EC58  F008         	call	_gpio_pin_Write_logic	;wreg free
  6251                           
  6252                           ;ECU_LAYER/LCD/ecu_lcd.c: 81:         send_4bit(lcd,data>>4);
  6253   001FF4  C02E  F02C         	movff	lcd_4bit_send_data@lcd,send_4bit@lcd
  6254   001FF8  382F               	swapf	lcd_4bit_send_data@data^0,w,c
  6255   001FFA  0B0F               	andlw	15
  6256   001FFC  6E2D               	movwf	send_4bit@_data_command^0,c
  6257   001FFE  EC10  F010         	call	_send_4bit	;wreg free
  6258                           
  6259                           ;ECU_LAYER/LCD/ecu_lcd.c: 82:         send_4bit_enable_signal(lcd);
  6260   002002  C02E  F02C         	movff	lcd_4bit_send_data@lcd,send_4bit_enable_signal@lcd
  6261   002006  ECDE  F012         	call	_send_4bit_enable_signal	;wreg free
  6262                           
  6263                           ;ECU_LAYER/LCD/ecu_lcd.c: 83:         send_4bit(lcd,data);
  6264   00200A  C02E  F02C         	movff	lcd_4bit_send_data@lcd,send_4bit@lcd
  6265   00200E  C02F  F02D         	movff	lcd_4bit_send_data@data,send_4bit@_data_command
  6266   002012  EC10  F010         	call	_send_4bit	;wreg free
  6267                           
  6268                           ;ECU_LAYER/LCD/ecu_lcd.c: 84:         send_4bit_enable_signal(lcd);
  6269   002016  C02E  F02C         	movff	lcd_4bit_send_data@lcd,send_4bit_enable_signal@lcd
  6270   00201A  ECDE  F012         	call	_send_4bit_enable_signal	;wreg free
  6271   00201E                     l123:
  6272   00201E  0012               	return		;funcret
  6273   002020                     __end_of_lcd_4bit_send_data:
  6274                           	callstack 0
  6275                           
  6276 ;; *************** function _send_4bit_enable_signal *****************
  6277 ;; Defined at:
  6278 ;;		line 400 in file "ECU_LAYER/LCD/ecu_lcd.c"
  6279 ;; Parameters:    Size  Location     Type
  6280 ;;  lcd             1   43[COMRAM] PTR const struct .
  6281 ;;		 -> lcd(6), 
  6282 ;; Auto vars:     Size  Location     Type
  6283 ;;		None
  6284 ;; Return value:  Size  Location     Type
  6285 ;;                  1    wreg      void 
  6286 ;; Registers used:
  6287 ;;		wreg, fsr2l, fsr2h, status,2, status,0, prodl, prodh, cstack
  6288 ;; Tracked objects:
  6289 ;;		On entry : 0/0
  6290 ;;		On exit  : 0/0
  6291 ;;		Unchanged: 0/0
  6292 ;; Data sizes:     COMRAM   BANK0   BANK1   BANK2   BANK3   BANK4   BANK5   BANK6   BANK7   BANK8   BANK9  BANK10  BANK1
      +1  BANK12  BANK13  BANK14  BANK15
  6293 ;;      Params:         1       0       0       0       0       0       0       0       0       0       0       0       
      +0       0       0       0       0
  6294 ;;      Locals:         0       0       0       0       0       0       0       0       0       0       0       0       
      +0       0       0       0       0
  6295 ;;      Temps:          0       0       0       0       0       0       0       0       0       0       0       0       
      +0       0       0       0       0
  6296 ;;      Totals:         1       0       0       0       0       0       0       0       0       0       0       0       
      +0       0       0       0       0
  6297 ;;Total ram usage:        1 bytes
  6298 ;; Hardware stack levels used: 1
  6299 ;; Hardware stack levels required when called: 9
  6300 ;; This function calls:
  6301 ;;		_gpio_pin_Write_logic
  6302 ;; This function is called by:
  6303 ;;		_lcd_4bit_send_command
  6304 ;;		_lcd_4bit_send_data
  6305 ;; This function uses a non-reentrant model
  6306 ;;
  6307                           
  6308                           	psect	text36
  6309   0025BC                     __ptext36:
  6310                           	callstack 0
  6311   0025BC                     _send_4bit_enable_signal:
  6312                           	callstack 17
  6313   0025BC                     
  6314                           ;ECU_LAYER/LCD/ecu_lcd.c: 402:     gpio_pin_Write_logic(&(lcd->lcd_en),HIGH);
  6315   0025BC  282C               	incf	send_4bit_enable_signal@lcd^0,w,c
  6316   0025BE  6E24               	movwf	gpio_pin_Write_logic@_pin_config^0,c
  6317   0025C0  0E01               	movlw	1
  6318   0025C2  6E25               	movwf	gpio_pin_Write_logic@logic^0,c
  6319   0025C4  EC58  F008         	call	_gpio_pin_Write_logic	;wreg free
  6320   0025C8                     
  6321                           ;ECU_LAYER/LCD/ecu_lcd.c: 403:     _delay((unsigned long)((5)*(8000000UL/4000000.0)));
  6322   0025C8  0E03               	movlw	3
  6323   0025CA                     u4637:
  6324   0025CA  2EE8               	decfsz	wreg,f,c
  6325   0025CC  D7FE               	bra	u4637
  6326   0025CE  0000               	nop	
  6327   0025D0                     
  6328                           ;ECU_LAYER/LCD/ecu_lcd.c: 404:     gpio_pin_Write_logic(&(lcd->lcd_en),LOW);
  6329   0025D0  282C               	incf	send_4bit_enable_signal@lcd^0,w,c
  6330   0025D2  6E24               	movwf	gpio_pin_Write_logic@_pin_config^0,c
  6331   0025D4  0E00               	movlw	0
  6332   0025D6  6E25               	movwf	gpio_pin_Write_logic@logic^0,c
  6333   0025D8  EC58  F008         	call	_gpio_pin_Write_logic	;wreg free
  6334   0025DC  0012               	return		;funcret
  6335   0025DE                     __end_of_send_4bit_enable_signal:
  6336                           	callstack 0
  6337                           
  6338 ;; *************** function _send_4bit *****************
  6339 ;; Defined at:
  6340 ;;		line 390 in file "ECU_LAYER/LCD/ecu_lcd.c"
  6341 ;; Parameters:    Size  Location     Type
  6342 ;;  lcd             1   43[COMRAM] PTR const struct .
  6343 ;;		 -> lcd(6), 
  6344 ;;  _data_comman    1   44[COMRAM] unsigned char 
  6345 ;; Auto vars:     Size  Location     Type
  6346 ;;		None
  6347 ;; Return value:  Size  Location     Type
  6348 ;;                  1    wreg      void 
  6349 ;; Registers used:
  6350 ;;		wreg, fsr2l, fsr2h, status,2, status,0, prodl, prodh, cstack
  6351 ;; Tracked objects:
  6352 ;;		On entry : 0/0
  6353 ;;		On exit  : 0/0
  6354 ;;		Unchanged: 0/0
  6355 ;; Data sizes:     COMRAM   BANK0   BANK1   BANK2   BANK3   BANK4   BANK5   BANK6   BANK7   BANK8   BANK9  BANK10  BANK1
      +1  BANK12  BANK13  BANK14  BANK15
  6356 ;;      Params:         2       0       0       0       0       0       0       0       0       0       0       0       
      +0       0       0       0       0
  6357 ;;      Locals:         0       0       0       0       0       0       0       0       0       0       0       0       
      +0       0       0       0       0
  6358 ;;      Temps:          0       0       0       0       0       0       0       0       0       0       0       0       
      +0       0       0       0       0
  6359 ;;      Totals:         2       0       0       0       0       0       0       0       0       0       0       0       
      +0       0       0       0       0
  6360 ;;Total ram usage:        2 bytes
  6361 ;; Hardware stack levels used: 1
  6362 ;; Hardware stack levels required when called: 9
  6363 ;; This function calls:
  6364 ;;		_gpio_pin_Write_logic
  6365 ;; This function is called by:
  6366 ;;		_lcd_4bit_send_command
  6367 ;;		_lcd_4bit_send_data
  6368 ;; This function uses a non-reentrant model
  6369 ;;
  6370                           
  6371                           	psect	text37
  6372   002020                     __ptext37:
  6373                           	callstack 0
  6374   002020                     _send_4bit:
  6375                           	callstack 17
  6376   002020                     
  6377                           ;ECU_LAYER/LCD/ecu_lcd.c: 391:     gpio_pin_Write_logic(&(lcd->lcd_data[0]),(_data_comma
      +                          nd>>0)&0x01);
  6378   002020  502C               	movf	send_4bit@lcd^0,w,c
  6379   002022  0F02               	addlw	2
  6380   002024  6E24               	movwf	gpio_pin_Write_logic@_pin_config^0,c
  6381   002026  502D               	movf	send_4bit@_data_command^0,w,c
  6382   002028  0B01               	andlw	1
  6383   00202A  6E25               	movwf	gpio_pin_Write_logic@logic^0,c
  6384   00202C  EC58  F008         	call	_gpio_pin_Write_logic	;wreg free
  6385                           
  6386                           ;ECU_LAYER/LCD/ecu_lcd.c: 392:     gpio_pin_Write_logic(&(lcd->lcd_data[1]),(_data_comma
      +                          nd>>1)&0x01);
  6387   002030  502C               	movf	send_4bit@lcd^0,w,c
  6388   002032  0F03               	addlw	3
  6389   002034  6E24               	movwf	gpio_pin_Write_logic@_pin_config^0,c
  6390   002036  90D8               	bcf	status,0,c
  6391   002038  302D               	rrcf	send_4bit@_data_command^0,w,c
  6392   00203A  0B01               	andlw	1
  6393   00203C  6E25               	movwf	gpio_pin_Write_logic@logic^0,c
  6394   00203E  EC58  F008         	call	_gpio_pin_Write_logic	;wreg free
  6395                           
  6396                           ;ECU_LAYER/LCD/ecu_lcd.c: 393:     gpio_pin_Write_logic(&(lcd->lcd_data[2]),(_data_comma
      +                          nd>>2)&0x01);
  6397   002042  502C               	movf	send_4bit@lcd^0,w,c
  6398   002044  0F04               	addlw	4
  6399   002046  6E24               	movwf	gpio_pin_Write_logic@_pin_config^0,c
  6400   002048  402D               	rrncf	send_4bit@_data_command^0,w,c
  6401   00204A  42E8               	rrncf	wreg,f,c
  6402   00204C  0B3F               	andlw	63
  6403   00204E  0B01               	andlw	1
  6404   002050  6E25               	movwf	gpio_pin_Write_logic@logic^0,c
  6405   002052  EC58  F008         	call	_gpio_pin_Write_logic	;wreg free
  6406                           
  6407                           ;ECU_LAYER/LCD/ecu_lcd.c: 394:     gpio_pin_Write_logic(&(lcd->lcd_data[3]),(_data_comma
      +                          nd>>3)&0x01);
  6408   002056  502C               	movf	send_4bit@lcd^0,w,c
  6409   002058  0F05               	addlw	5
  6410   00205A  6E24               	movwf	gpio_pin_Write_logic@_pin_config^0,c
  6411   00205C  382D               	swapf	send_4bit@_data_command^0,w,c
  6412   00205E  46E8               	rlncf	wreg,f,c
  6413   002060  0B1F               	andlw	31
  6414   002062  0B01               	andlw	1
  6415   002064  6E25               	movwf	gpio_pin_Write_logic@logic^0,c
  6416   002066  EC58  F008         	call	_gpio_pin_Write_logic	;wreg free
  6417   00206A  0012               	return		;funcret
  6418   00206C                     __end_of_send_4bit:
  6419                           	callstack 0
  6420                           
  6421 ;; *************** function ___wmul *****************
  6422 ;; Defined at:
  6423 ;;		line 15 in file "D:\Program Files\Microchip\xc8\v2.45\pic\sources\c99\common\Umul16.c"
  6424 ;; Parameters:    Size  Location     Type
  6425 ;;  multiplier      2   35[COMRAM] unsigned int 
  6426 ;;  multiplicand    2   37[COMRAM] unsigned int 
  6427 ;; Auto vars:     Size  Location     Type
  6428 ;;  product         2   39[COMRAM] unsigned int 
  6429 ;; Return value:  Size  Location     Type
  6430 ;;                  2   35[COMRAM] unsigned int 
  6431 ;; Registers used:
  6432 ;;		wreg, status,2, status,0, prodl, prodh
  6433 ;; Tracked objects:
  6434 ;;		On entry : 0/0
  6435 ;;		On exit  : 0/0
  6436 ;;		Unchanged: 0/0
  6437 ;; Data sizes:     COMRAM   BANK0   BANK1   BANK2   BANK3   BANK4   BANK5   BANK6   BANK7   BANK8   BANK9  BANK10  BANK1
      +1  BANK12  BANK13  BANK14  BANK15
  6438 ;;      Params:         4       0       0       0       0       0       0       0       0       0       0       0       
      +0       0       0       0       0
  6439 ;;      Locals:         2       0       0       0       0       0       0       0       0       0       0       0       
      +0       0       0       0       0
  6440 ;;      Temps:          0       0       0       0       0       0       0       0       0       0       0       0       
      +0       0       0       0       0
  6441 ;;      Totals:         6       0       0       0       0       0       0       0       0       0       0       0       
      +0       0       0       0       0
  6442 ;;Total ram usage:        6 bytes
  6443 ;; Hardware stack levels used: 1
  6444 ;; Hardware stack levels required when called: 8
  6445 ;; This function calls:
  6446 ;;		Nothing
  6447 ;; This function is called by:
  6448 ;;		_Set_password
  6449 ;;		_Enter_password
  6450 ;;		_password
  6451 ;;		_password_reset
  6452 ;; This function uses a non-reentrant model
  6453 ;;
  6454                           
  6455                           	psect	text38
  6456   002596                     __ptext38:
  6457                           	callstack 0
  6458   002596                     ___wmul:
  6459                           	callstack 20
  6460   002596  5024               	movf	___wmul@multiplier^0,w,c
  6461   002598  0226               	mulwf	___wmul@multiplicand^0,c
  6462   00259A  CFF3 F028          	movff	prodl,___wmul@product
  6463   00259E  CFF4 F029          	movff	prodh,___wmul@product+1
  6464   0025A2  5024               	movf	___wmul@multiplier^0,w,c
  6465   0025A4  0227               	mulwf	(___wmul@multiplicand+1)^0,c
  6466   0025A6  50F3               	movf	243,w,c
  6467   0025A8  2629               	addwf	(___wmul@product+1)^0,f,c
  6468   0025AA  5025               	movf	(___wmul@multiplier+1)^0,w,c
  6469   0025AC  0226               	mulwf	___wmul@multiplicand^0,c
  6470   0025AE  50F3               	movf	243,w,c
  6471   0025B0  2629               	addwf	(___wmul@product+1)^0,f,c
  6472   0025B2  C028  F024         	movff	___wmul@product,?___wmul
  6473   0025B6  C029  F025         	movff	___wmul@product+1,?___wmul+1
  6474   0025BA  0012               	return		;funcret
  6475   0025BC                     __end_of___wmul:
  6476                           	callstack 0
  6477                           
  6478 ;; *************** function _Data_EEPROM_ReadByte *****************
  6479 ;; Defined at:
  6480 ;;		line 42 in file "MCAL_LAYER/EEPROM/eeprom.c"
  6481 ;; Parameters:    Size  Location     Type
  6482 ;;  bAdd            2   35[COMRAM] unsigned short 
  6483 ;;  bData           1   37[COMRAM] PTR unsigned short 
  6484 ;;		 -> low_pass(2), high_pass(2), 
  6485 ;; Auto vars:     Size  Location     Type
  6486 ;;  ret             1    0        unsigned char 
  6487 ;; Return value:  Size  Location     Type
  6488 ;;                  1    wreg      unsigned char 
  6489 ;; Registers used:
  6490 ;;		wreg, fsr2l, fsr2h, status,2, status,0
  6491 ;; Tracked objects:
  6492 ;;		On entry : 0/0
  6493 ;;		On exit  : 0/0
  6494 ;;		Unchanged: 0/0
  6495 ;; Data sizes:     COMRAM   BANK0   BANK1   BANK2   BANK3   BANK4   BANK5   BANK6   BANK7   BANK8   BANK9  BANK10  BANK1
      +1  BANK12  BANK13  BANK14  BANK15
  6496 ;;      Params:         3       0       0       0       0       0       0       0       0       0       0       0       
      +0       0       0       0       0
  6497 ;;      Locals:         0       0       0       0       0       0       0       0       0       0       0       0       
      +0       0       0       0       0
  6498 ;;      Temps:          2       0       0       0       0       0       0       0       0       0       0       0       
      +0       0       0       0       0
  6499 ;;      Totals:         5       0       0       0       0       0       0       0       0       0       0       0       
      +0       0       0       0       0
  6500 ;;Total ram usage:        5 bytes
  6501 ;; Hardware stack levels used: 1
  6502 ;; Hardware stack levels required when called: 8
  6503 ;; This function calls:
  6504 ;;		Nothing
  6505 ;; This function is called by:
  6506 ;;		_password
  6507 ;;		_password_reset
  6508 ;; This function uses a non-reentrant model
  6509 ;;
  6510                           
  6511                           	psect	text39
  6512   0022A8                     __ptext39:
  6513                           	callstack 0
  6514   0022A8                     _Data_EEPROM_ReadByte:
  6515                           	callstack 20
  6516   0022A8                     
  6517                           ;MCAL_LAYER/EEPROM/eeprom.c: 45:     if (((void*)0) == bData ){
  6518   0022A8  5026               	movf	Data_EEPROM_ReadByte@bData^0,w,c
  6519   0022AA  A4D8               	btfss	status,2,c
  6520   0022AC  EF5A  F011         	goto	u2671
  6521   0022B0  EF5C  F011         	goto	u2670
  6522   0022B4                     u2671:
  6523   0022B4  EF5E  F011         	goto	l3812
  6524   0022B8                     u2670:
  6525   0022B8                     
  6526                           ;MCAL_LAYER/EEPROM/eeprom.c: 47:     }
  6527   0022B8  EF72  F011         	goto	l297
  6528   0022BC                     l3812:
  6529                           
  6530                           ;MCAL_LAYER/EEPROM/eeprom.c: 50:         EEADRH = (uint_8)((bAdd >> 8) & 0x03);
  6531   0022BC  5025               	movf	(Data_EEPROM_ReadByte@bAdd+1)^0,w,c
  6532   0022BE  0B03               	andlw	3
  6533   0022C0  6EAA               	movwf	170,c	;volatile
  6534   0022C2                     
  6535                           ;MCAL_LAYER/EEPROM/eeprom.c: 51:         EEADR = (uint_8)(bAdd & 0xFF);
  6536   0022C2  C024  FFA9         	movff	Data_EEPROM_ReadByte@bAdd,4009	;volatile
  6537   0022C6                     
  6538                           ;MCAL_LAYER/EEPROM/eeprom.c: 53:         EECON1bits.EEPGD = 0;
  6539   0022C6  9EA6               	bcf	166,7,c	;volsfr
  6540   0022C8                     
  6541                           ;MCAL_LAYER/EEPROM/eeprom.c: 54:         EECON1bits.CFGS = 0;
  6542   0022C8  9CA6               	bcf	166,6,c	;volsfr
  6543   0022CA                     
  6544                           ;MCAL_LAYER/EEPROM/eeprom.c: 56:         EECON1bits.RD = 1;
  6545   0022CA  80A6               	bsf	166,0,c	;volsfr
  6546   0022CC                     
  6547                           ;MCAL_LAYER/EEPROM/eeprom.c: 57:         __nop();
  6548   0022CC  0000               	nop	
  6549   0022CE                     
  6550                           ;MCAL_LAYER/EEPROM/eeprom.c: 58:         __nop();
  6551   0022CE  0000               	nop	
  6552   0022D0                     
  6553                           ;MCAL_LAYER/EEPROM/eeprom.c: 60:         *bData = EEDATA;
  6554   0022D0  50A8               	movf	168,w,c	;volatile
  6555   0022D2  6E27               	movwf	??_Data_EEPROM_ReadByte^0,c
  6556   0022D4  6A28               	clrf	(??_Data_EEPROM_ReadByte+1)^0,c
  6557   0022D6  5026               	movf	Data_EEPROM_ReadByte@bData^0,w,c
  6558   0022D8  6ED9               	movwf	fsr2l,c
  6559   0022DA  6ADA               	clrf	fsr2h,c
  6560   0022DC  C027  FFDE         	movff	??_Data_EEPROM_ReadByte,postinc2
  6561   0022E0  C028  FFDD         	movff	??_Data_EEPROM_ReadByte+1,postdec2
  6562   0022E4                     l297:
  6563   0022E4  0012               	return		;funcret
  6564   0022E6                     __end_of_Data_EEPROM_ReadByte:
  6565                           	callstack 0
  6566                           
  6567 ;; *************** function _keypad_get_value *****************
  6568 ;; Defined at:
  6569 ;;		line 36 in file "ECU_LAYER/KEYPAD/ecu_keypad.c"
  6570 ;; Parameters:    Size  Location     Type
  6571 ;;  keypad_obj      1   43[COMRAM] PTR const struct .
  6572 ;;		 -> keypad(8), 
  6573 ;;  value           1   44[COMRAM] PTR unsigned char 
  6574 ;;		 -> keypad_value(1), 
  6575 ;; Auto vars:     Size  Location     Type
  6576 ;;  columns_coun    1   50[COMRAM] unsigned char 
  6577 ;;  rows_counter    1   49[COMRAM] unsigned char 
  6578 ;;  rows_counter    1   48[COMRAM] unsigned char 
  6579 ;;  col_val         1   47[COMRAM] unsigned char 
  6580 ;;  ret             1    0        unsigned char 
  6581 ;; Return value:  Size  Location     Type
  6582 ;;                  1    wreg      unsigned char 
  6583 ;; Registers used:
  6584 ;;		wreg, fsr1l, fsr1h, fsr2l, fsr2h, status,2, status,0, tblptrl, tblptrh, tblptru, prodl, prodh, cstack
  6585 ;; Tracked objects:
  6586 ;;		On entry : 0/0
  6587 ;;		On exit  : 0/0
  6588 ;;		Unchanged: 0/0
  6589 ;; Data sizes:     COMRAM   BANK0   BANK1   BANK2   BANK3   BANK4   BANK5   BANK6   BANK7   BANK8   BANK9  BANK10  BANK1
      +1  BANK12  BANK13  BANK14  BANK15
  6590 ;;      Params:         2       0       0       0       0       0       0       0       0       0       0       0       
      +0       0       0       0       0
  6591 ;;      Locals:         4       0       0       0       0       0       0       0       0       0       0       0       
      +0       0       0       0       0
  6592 ;;      Temps:          2       0       0       0       0       0       0       0       0       0       0       0       
      +0       0       0       0       0
  6593 ;;      Totals:         8       0       0       0       0       0       0       0       0       0       0       0       
      +0       0       0       0       0
  6594 ;;Total ram usage:        8 bytes
  6595 ;; Hardware stack levels used: 1
  6596 ;; Hardware stack levels required when called: 9
  6597 ;; This function calls:
  6598 ;;		_gpio_pin_Read_logic
  6599 ;;		_gpio_pin_Write_logic
  6600 ;; This function is called by:
  6601 ;;		_main
  6602 ;;		_Set_password
  6603 ;;		_Enter_password
  6604 ;; This function uses a non-reentrant model
  6605 ;;
  6606                           
  6607                           	psect	text40
  6608   0012C6                     __ptext40:
  6609                           	callstack 0
  6610   0012C6                     _keypad_get_value:
  6611                           	callstack 21
  6612   0012C6                     
  6613                           ;ECU_LAYER/KEYPAD/ecu_keypad.c: 40:        uint_8 rows_counter=0, rows_counter2=0,column
      +                          s_counter=0,col_val=0;
  6614   0012C6  0E00               	movlw	0
  6615   0012C8  6E32               	movwf	keypad_get_value@rows_counter^0,c
  6616   0012CA  0E00               	movlw	0
  6617   0012CC  6E31               	movwf	keypad_get_value@rows_counter2^0,c
  6618   0012CE  0E00               	movlw	0
  6619   0012D0  6E33               	movwf	keypad_get_value@columns_counter^0,c
  6620   0012D2  0E00               	movlw	0
  6621   0012D4  6E30               	movwf	keypad_get_value@col_val^0,c
  6622                           
  6623                           ;ECU_LAYER/KEYPAD/ecu_keypad.c: 41:     if (((void*)0) == keypad_obj && (((void*)0) == v
      +                          alue)){
  6624   0012D6  502C               	movf	keypad_get_value@keypad_obj^0,w,c
  6625   0012D8  A4D8               	btfss	status,2,c
  6626   0012DA  EF71  F009         	goto	u2941
  6627   0012DE  EF73  F009         	goto	u2940
  6628   0012E2                     u2941:
  6629   0012E2  EF7D  F009         	goto	l4078
  6630   0012E6                     u2940:
  6631   0012E6  502D               	movf	keypad_get_value@value^0,w,c
  6632   0012E8  A4D8               	btfss	status,2,c
  6633   0012EA  EF79  F009         	goto	u2951
  6634   0012EE  EF7B  F009         	goto	u2950
  6635   0012F2                     u2951:
  6636   0012F2  EF7D  F009         	goto	l4078
  6637   0012F6                     u2950:
  6638   0012F6                     
  6639                           ;ECU_LAYER/KEYPAD/ecu_keypad.c: 43:     }
  6640   0012F6  EFDA  F009         	goto	l79
  6641   0012FA                     l4078:
  6642                           
  6643                           ;ECU_LAYER/KEYPAD/ecu_keypad.c: 46:      for(rows_counter=0;rows_counter<4;rows_counter+
      +                          +){
  6644   0012FA  0E00               	movlw	0
  6645   0012FC  6E32               	movwf	keypad_get_value@rows_counter^0,c
  6646   0012FE                     l4084:
  6647                           
  6648                           ;ECU_LAYER/KEYPAD/ecu_keypad.c: 47:          for(rows_counter2=0;rows_counter2<4;rows_co
      +                          unter2++){
  6649   0012FE  0E00               	movlw	0
  6650   001300  6E31               	movwf	keypad_get_value@rows_counter2^0,c
  6651   001302                     l4090:
  6652   001302  502C               	movf	keypad_get_value@keypad_obj^0,w,c
  6653   001304  2431               	addwf	keypad_get_value@rows_counter2^0,w,c
  6654   001306  6E24               	movwf	gpio_pin_Write_logic@_pin_config^0,c
  6655   001308  0E00               	movlw	0
  6656   00130A  6E25               	movwf	gpio_pin_Write_logic@logic^0,c
  6657   00130C  EC58  F008         	call	_gpio_pin_Write_logic	;wreg free
  6658   001310                     
  6659                           ;ECU_LAYER/KEYPAD/ecu_keypad.c: 49:         }
  6660   001310  2A31               	incf	keypad_get_value@rows_counter2^0,f,c
  6661   001312  0E03               	movlw	3
  6662   001314  6431               	cpfsgt	keypad_get_value@rows_counter2^0,c
  6663   001316  EF8F  F009         	goto	u2961
  6664   00131A  EF91  F009         	goto	u2960
  6665   00131E                     u2961:
  6666   00131E  EF81  F009         	goto	l4090
  6667   001322                     u2960:
  6668   001322  502C               	movf	keypad_get_value@keypad_obj^0,w,c
  6669   001324  2432               	addwf	keypad_get_value@rows_counter^0,w,c
  6670   001326  6E24               	movwf	gpio_pin_Write_logic@_pin_config^0,c
  6671   001328  0E01               	movlw	1
  6672   00132A  6E25               	movwf	gpio_pin_Write_logic@logic^0,c
  6673   00132C  EC58  F008         	call	_gpio_pin_Write_logic	;wreg free
  6674   001330                     
  6675                           ;ECU_LAYER/KEYPAD/ecu_keypad.c: 51:          for(columns_counter=0;columns_counter<4;col
      +                          umns_counter++){
  6676   001330  0E00               	movlw	0
  6677   001332  6E33               	movwf	keypad_get_value@columns_counter^0,c
  6678   001334                     l4104:
  6679   001334  502C               	movf	keypad_get_value@keypad_obj^0,w,c
  6680   001336  2433               	addwf	keypad_get_value@columns_counter^0,w,c
  6681   001338  0F04               	addlw	4
  6682   00133A  6E24               	movwf	gpio_pin_Read_logic@_pin_config^0,c
  6683   00133C  0E30               	movlw	low keypad_get_value@col_val
  6684   00133E  6E25               	movwf	gpio_pin_Read_logic@logic^0,c
  6685   001340  ECDB  F009         	call	_gpio_pin_Read_logic	;wreg free
  6686   001344                     
  6687                           ;ECU_LAYER/KEYPAD/ecu_keypad.c: 53:              if (HIGH == col_val){
  6688   001344  0430               	decf	keypad_get_value@col_val^0,w,c
  6689   001346  A4D8               	btfss	status,2,c
  6690   001348  EFA8  F009         	goto	u2971
  6691   00134C  EFAA  F009         	goto	u2970
  6692   001350                     u2971:
  6693   001350  EFC3  F009         	goto	l4114
  6694   001354                     u2970:
  6695   001354                     
  6696                           ;ECU_LAYER/KEYPAD/ecu_keypad.c: 54:                  *value= keypad_value[rows_counter][
      +                          columns_counter];
  6697   001354  5032               	movf	keypad_get_value@rows_counter^0,w,c
  6698   001356  0D04               	mullw	4
  6699   001358  0E7F               	movlw	low _keypad_value@ecu_keypad$F125
  6700   00135A  24F3               	addwf	243,w,c
  6701   00135C  6E2E               	movwf	??_keypad_get_value^0,c
  6702   00135E  0EFE               	movlw	high _keypad_value@ecu_keypad$F125
  6703   001360  20F4               	addwfc	prodh,w,c
  6704   001362  6E2F               	movwf	(??_keypad_get_value+1)^0,c
  6705   001364  5033               	movf	keypad_get_value@columns_counter^0,w,c
  6706   001366  262E               	addwf	??_keypad_get_value^0,f,c
  6707   001368  0E00               	movlw	0
  6708   00136A  222F               	addwfc	(??_keypad_get_value+1)^0,f,c
  6709   00136C  C02E  FFF6         	movff	??_keypad_get_value,tblptrl
  6710   001370  C02F  FFF7         	movff	??_keypad_get_value+1,tblptrh
  6711   001374                     	if	1	;Program memory is < 0x10000, tblptru is always zero
  6712   001374  6AF8               	clrf	tblptru,c
  6713   001376                     	endif
  6714   001376                     	if	0	;tblptru may be non-zero
  6715   001376                     	endif
  6716   001376  502D               	movf	keypad_get_value@value^0,w,c
  6717   001378  6ED9               	movwf	fsr2l,c
  6718   00137A  6ADA               	clrf	fsr2h,c
  6719   00137C  0008               	tblrd		*
  6720   00137E  CFF5 FFDF          	movff	tablat,indf2
  6721   001382  EFDA  F009         	goto	l79
  6722   001386                     l4114:
  6723                           
  6724                           ;ECU_LAYER/KEYPAD/ecu_keypad.c: 58:                  *value=int_value;
  6725   001386  502D               	movf	keypad_get_value@value^0,w,c
  6726   001388  6ED9               	movwf	fsr2l,c
  6727   00138A  6ADA               	clrf	fsr2h,c
  6728   00138C  0EFF               	movlw	255
  6729   00138E  6EDF               	movwf	indf2,c
  6730   001390                     
  6731                           ;ECU_LAYER/KEYPAD/ecu_keypad.c: 61:         }
  6732   001390  2A33               	incf	keypad_get_value@columns_counter^0,f,c
  6733   001392  0E03               	movlw	3
  6734   001394  6433               	cpfsgt	keypad_get_value@columns_counter^0,c
  6735   001396  EFCF  F009         	goto	u2981
  6736   00139A  EFD1  F009         	goto	u2980
  6737   00139E                     u2981:
  6738   00139E  EF9A  F009         	goto	l4104
  6739   0013A2                     u2980:
  6740   0013A2                     
  6741                           ;ECU_LAYER/KEYPAD/ecu_keypad.c: 62:      }
  6742   0013A2  2A32               	incf	keypad_get_value@rows_counter^0,f,c
  6743   0013A4  0E03               	movlw	3
  6744   0013A6  6432               	cpfsgt	keypad_get_value@rows_counter^0,c
  6745   0013A8  EFD8  F009         	goto	u2991
  6746   0013AC  EFDA  F009         	goto	u2990
  6747   0013B0                     u2991:
  6748   0013B0  EF7F  F009         	goto	l4084
  6749   0013B4                     u2990:
  6750   0013B4                     l79:
  6751   0013B4  0012               	return		;funcret
  6752   0013B6                     __end_of_keypad_get_value:
  6753                           	callstack 0
  6754                           
  6755 ;; *************** function _gpio_pin_Write_logic *****************
  6756 ;; Defined at:
  6757 ;;		line 32 in file "MCAL_LAYER/GPIO/hal_gpio.c"
  6758 ;; Parameters:    Size  Location     Type
  6759 ;;  _pin_config     1   35[COMRAM] PTR const struct .
  6760 ;;		 -> buzzer(1), keypad$rows_pins(4), keypad(8), lcd$lcd_data(4), 
  6761 ;;		 -> lcd(6), motor$motor_config(2), motor(2), led_turn_off@pin_obj(1), 
  6762 ;;		 -> led_turn_on@pin_obj(1), 
  6763 ;;  logic           1   36[COMRAM] enum E2980
  6764 ;; Auto vars:     Size  Location     Type
  6765 ;;  ret             1   42[COMRAM] unsigned char 
  6766 ;; Return value:  Size  Location     Type
  6767 ;;                  1    wreg      unsigned char 
  6768 ;; Registers used:
  6769 ;;		wreg, fsr2l, fsr2h, status,2, status,0, prodl, prodh
  6770 ;; Tracked objects:
  6771 ;;		On entry : 0/0
  6772 ;;		On exit  : 0/0
  6773 ;;		Unchanged: 0/0
  6774 ;; Data sizes:     COMRAM   BANK0   BANK1   BANK2   BANK3   BANK4   BANK5   BANK6   BANK7   BANK8   BANK9  BANK10  BANK1
      +1  BANK12  BANK13  BANK14  BANK15
  6775 ;;      Params:         2       0       0       0       0       0       0       0       0       0       0       0       
      +0       0       0       0       0
  6776 ;;      Locals:         1       0       0       0       0       0       0       0       0       0       0       0       
      +0       0       0       0       0
  6777 ;;      Temps:          5       0       0       0       0       0       0       0       0       0       0       0       
      +0       0       0       0       0
  6778 ;;      Totals:         8       0       0       0       0       0       0       0       0       0       0       0       
      +0       0       0       0       0
  6779 ;;Total ram usage:        8 bytes
  6780 ;; Hardware stack levels used: 1
  6781 ;; Hardware stack levels required when called: 8
  6782 ;; This function calls:
  6783 ;;		Nothing
  6784 ;; This function is called by:
  6785 ;;		_motor_move_right
  6786 ;;		_motor_stop
  6787 ;;		_keypad_get_value
  6788 ;;		_lcd_4bit_send_command
  6789 ;;		_lcd_4bit_send_data
  6790 ;;		_send_4bit
  6791 ;;		_send_4bit_enable_signal
  6792 ;;		_led_turn_on
  6793 ;;		_led_turn_off
  6794 ;;		_gpio_pin_intialize
  6795 ;;		_password
  6796 ;;		_motor_move_left
  6797 ;;		_lcd_8bit_send_command
  6798 ;;		_lcd_8bit_send_data
  6799 ;;		_send_8bit_enable_signal
  6800 ;; This function uses a non-reentrant model
  6801 ;;
  6802                           
  6803                           	psect	text41
  6804   0010B0                     __ptext41:
  6805                           	callstack 0
  6806   0010B0                     _gpio_pin_Write_logic:
  6807                           	callstack 17
  6808   0010B0                     
  6809                           ;MCAL_LAYER/GPIO/hal_gpio.c: 34: Std_ReturnType ret = (Std_ReturnType) 0x01;
  6810   0010B0  0E01               	movlw	1
  6811   0010B2  6E2B               	movwf	gpio_pin_Write_logic@ret^0,c
  6812                           
  6813                           ;MCAL_LAYER/GPIO/hal_gpio.c: 35:     if (((void*)0) == _pin_config || _pin_config->pin >
      +                           (8 -1)){
  6814   0010B4  5024               	movf	gpio_pin_Write_logic@_pin_config^0,w,c
  6815   0010B6  B4D8               	btfsc	status,2,c
  6816   0010B8  EF60  F008         	goto	u1941
  6817   0010BC  EF62  F008         	goto	u1940
  6818   0010C0                     u1941:
  6819   0010C0  EF72  F008         	goto	l3334
  6820   0010C4                     u1940:
  6821   0010C4  5024               	movf	gpio_pin_Write_logic@_pin_config^0,w,c
  6822   0010C6  6ED9               	movwf	fsr2l,c
  6823   0010C8  6ADA               	clrf	fsr2h,c
  6824   0010CA  30DF               	rrcf	223,w,c
  6825   0010CC  32E8               	rrcf	wreg,f,c
  6826   0010CE  32E8               	rrcf	wreg,f,c
  6827   0010D0  0B07               	andlw	7
  6828   0010D2  6E26               	movwf	??_gpio_pin_Write_logic^0,c
  6829   0010D4  0E07               	movlw	7
  6830   0010D6  6426               	cpfsgt	??_gpio_pin_Write_logic^0,c
  6831   0010D8  EF70  F008         	goto	u1951
  6832   0010DC  EF72  F008         	goto	u1950
  6833   0010E0                     u1951:
  6834   0010E0  EFC9  F008         	goto	l3342
  6835   0010E4                     u1950:
  6836   0010E4                     l3334:
  6837                           
  6838                           ;MCAL_LAYER/GPIO/hal_gpio.c: 36:         ret=(Std_ReturnType) 0x00;
  6839   0010E4  0E00               	movlw	0
  6840   0010E6  6E2B               	movwf	gpio_pin_Write_logic@ret^0,c
  6841                           
  6842                           ;MCAL_LAYER/GPIO/hal_gpio.c: 37:     }
  6843   0010E8  EFDE  F008         	goto	l3344
  6844   0010EC                     l3336:
  6845                           
  6846                           ;MCAL_LAYER/GPIO/hal_gpio.c: 44:               (*lat_registers[_pin_config->port] &= ~((
      +                          uint_8)1<<_pin_config->pin));
  6847   0010EC  5024               	movf	gpio_pin_Write_logic@_pin_config^0,w,c
  6848   0010EE  6ED9               	movwf	fsr2l,c
  6849   0010F0  6ADA               	clrf	fsr2h,c
  6850   0010F2  30DF               	rrcf	223,w,c
  6851   0010F4  32E8               	rrcf	wreg,f,c
  6852   0010F6  32E8               	rrcf	wreg,f,c
  6853   0010F8  0B07               	andlw	7
  6854   0010FA  6E26               	movwf	??_gpio_pin_Write_logic^0,c
  6855   0010FC  0E01               	movlw	1
  6856   0010FE  6E27               	movwf	(??_gpio_pin_Write_logic+1)^0,c
  6857   001100  2A26               	incf	??_gpio_pin_Write_logic^0,f,c
  6858   001102  EF85  F008         	goto	u1964
  6859   001106                     u1965:
  6860   001106  90D8               	bcf	status,0,c
  6861   001108  3627               	rlcf	(??_gpio_pin_Write_logic+1)^0,f,c
  6862   00110A                     u1964:
  6863   00110A  2E26               	decfsz	??_gpio_pin_Write_logic^0,f,c
  6864   00110C  EF83  F008         	goto	u1965
  6865   001110  5027               	movf	(??_gpio_pin_Write_logic+1)^0,w,c
  6866   001112  0AFF               	xorlw	255
  6867   001114  6E28               	movwf	(??_gpio_pin_Write_logic+2)^0,c
  6868   001116  5024               	movf	gpio_pin_Write_logic@_pin_config^0,w,c
  6869   001118  6ED9               	movwf	fsr2l,c
  6870   00111A  6ADA               	clrf	fsr2h,c
  6871   00111C  50DF               	movf	223,w,c
  6872   00111E  0B07               	andlw	7
  6873   001120  0D02               	mullw	2
  6874   001122  50F3               	movf	243,w,c
  6875   001124  0FC0               	addlw	low _lat_registers
  6876   001126  6ED9               	movwf	fsr2l,c
  6877   001128  6ADA               	clrf	fsr2h,c
  6878   00112A  CFDE F029          	movff	postinc2,??_gpio_pin_Write_logic+3
  6879   00112E  CFDD F02A          	movff	postdec2,??_gpio_pin_Write_logic+4
  6880   001132  C029  FFD9         	movff	??_gpio_pin_Write_logic+3,fsr2l
  6881   001136  C02A  FFDA         	movff	??_gpio_pin_Write_logic+4,fsr2h
  6882   00113A  5028               	movf	(??_gpio_pin_Write_logic+2)^0,w,c
  6883   00113C  16DF               	andwf	indf2,f,c
  6884                           
  6885                           ;MCAL_LAYER/GPIO/hal_gpio.c: 46:               break;
  6886   00113E  EFDE  F008         	goto	l3344
  6887   001142                     l3338:
  6888                           
  6889                           ;MCAL_LAYER/GPIO/hal_gpio.c: 50:             (*lat_registers[_pin_config->port] |= ((uin
      +                          t_8)1<<_pin_config->pin));
  6890   001142  5024               	movf	gpio_pin_Write_logic@_pin_config^0,w,c
  6891   001144  6ED9               	movwf	fsr2l,c
  6892   001146  6ADA               	clrf	fsr2h,c
  6893   001148  30DF               	rrcf	223,w,c
  6894   00114A  32E8               	rrcf	wreg,f,c
  6895   00114C  32E8               	rrcf	wreg,f,c
  6896   00114E  0B07               	andlw	7
  6897   001150  6E26               	movwf	??_gpio_pin_Write_logic^0,c
  6898   001152  0E01               	movlw	1
  6899   001154  6E27               	movwf	(??_gpio_pin_Write_logic+1)^0,c
  6900   001156  2A26               	incf	??_gpio_pin_Write_logic^0,f,c
  6901   001158  EFB0  F008         	goto	u1974
  6902   00115C                     u1975:
  6903   00115C  90D8               	bcf	status,0,c
  6904   00115E  3627               	rlcf	(??_gpio_pin_Write_logic+1)^0,f,c
  6905   001160                     u1974:
  6906   001160  2E26               	decfsz	??_gpio_pin_Write_logic^0,f,c
  6907   001162  EFAE  F008         	goto	u1975
  6908   001166  5024               	movf	gpio_pin_Write_logic@_pin_config^0,w,c
  6909   001168  6ED9               	movwf	fsr2l,c
  6910   00116A  6ADA               	clrf	fsr2h,c
  6911   00116C  50DF               	movf	223,w,c
  6912   00116E  0B07               	andlw	7
  6913   001170  0D02               	mullw	2
  6914   001172  50F3               	movf	243,w,c
  6915   001174  0FC0               	addlw	low _lat_registers
  6916   001176  6ED9               	movwf	fsr2l,c
  6917   001178  6ADA               	clrf	fsr2h,c
  6918   00117A  CFDE F028          	movff	postinc2,??_gpio_pin_Write_logic+2
  6919   00117E  CFDD F029          	movff	postdec2,??_gpio_pin_Write_logic+3
  6920   001182  C028  FFD9         	movff	??_gpio_pin_Write_logic+2,fsr2l
  6921   001186  C029  FFDA         	movff	??_gpio_pin_Write_logic+3,fsr2h
  6922   00118A  5027               	movf	(??_gpio_pin_Write_logic+1)^0,w,c
  6923   00118C  12DF               	iorwf	indf2,f,c
  6924                           
  6925                           ;MCAL_LAYER/GPIO/hal_gpio.c: 52:               break;
  6926   00118E  EFDE  F008         	goto	l3344
  6927   001192                     l3342:
  6928   001192  5025               	movf	gpio_pin_Write_logic@logic^0,w,c
  6929   001194  6E26               	movwf	??_gpio_pin_Write_logic^0,c
  6930   001196  6A27               	clrf	(??_gpio_pin_Write_logic+1)^0,c
  6931                           
  6932                           ; Switch on 2 bytes has been partitioned into a top level switch of size 1, and 1 sub-sw
      +                          itches
  6933                           ; Switch size 1, requested type "simple"
  6934                           ; Number of cases is 1, Range of values is 0 to 0
  6935                           ; switch strategies available:
  6936                           ; Name         Instructions Cycles
  6937                           ; simple_byte            4     3 (average)
  6938                           ;	Chosen strategy is simple_byte
  6939   001198  5027               	movf	(??_gpio_pin_Write_logic+1)^0,w,c
  6940   00119A  0A00               	xorlw	0	; case 0
  6941   00119C  B4D8               	btfsc	status,2,c
  6942   00119E  EFD3  F008         	goto	l6088
  6943   0011A2  EF72  F008         	goto	l3334
  6944   0011A6                     l6088:
  6945                           
  6946                           ; Switch size 1, requested type "simple"
  6947                           ; Number of cases is 2, Range of values is 0 to 1
  6948                           ; switch strategies available:
  6949                           ; Name         Instructions Cycles
  6950                           ; simple_byte            7     4 (average)
  6951                           ;	Chosen strategy is simple_byte
  6952   0011A6  5026               	movf	??_gpio_pin_Write_logic^0,w,c
  6953   0011A8  0A00               	xorlw	0	; case 0
  6954   0011AA  B4D8               	btfsc	status,2,c
  6955   0011AC  EF76  F008         	goto	l3336
  6956   0011B0  0A01               	xorlw	1	; case 1
  6957   0011B2  B4D8               	btfsc	status,2,c
  6958   0011B4  EFA1  F008         	goto	l3338
  6959   0011B8  EF72  F008         	goto	l3334
  6960   0011BC                     l3344:
  6961                           
  6962                           ;MCAL_LAYER/GPIO/hal_gpio.c: 58: return ret;
  6963   0011BC  502B               	movf	gpio_pin_Write_logic@ret^0,w,c
  6964   0011BE  0012               	return		;funcret
  6965   0011C0                     __end_of_gpio_pin_Write_logic:
  6966                           	callstack 0
  6967                           
  6968 ;; *************** function _gpio_pin_Read_logic *****************
  6969 ;; Defined at:
  6970 ;;		line 16 in file "MCAL_LAYER/GPIO/hal_gpio.c"
  6971 ;; Parameters:    Size  Location     Type
  6972 ;;  _pin_config     1   35[COMRAM] PTR const struct .
  6973 ;;		 -> keypad$columns_pins(4), keypad(8), 
  6974 ;;  logic           1   36[COMRAM] PTR enum E2980
  6975 ;;		 -> keypad_get_value@col_val(1), button_Read@status(1), 
  6976 ;; Auto vars:     Size  Location     Type
  6977 ;;  ret             1   41[COMRAM] unsigned char 
  6978 ;; Return value:  Size  Location     Type
  6979 ;;                  1    wreg      unsigned char 
  6980 ;; Registers used:
  6981 ;;		wreg, fsr1l, fsr1h, fsr2l, fsr2h, status,2, status,0, prodl, prodh
  6982 ;; Tracked objects:
  6983 ;;		On entry : 0/0
  6984 ;;		On exit  : 0/0
  6985 ;;		Unchanged: 0/0
  6986 ;; Data sizes:     COMRAM   BANK0   BANK1   BANK2   BANK3   BANK4   BANK5   BANK6   BANK7   BANK8   BANK9  BANK10  BANK1
      +1  BANK12  BANK13  BANK14  BANK15
  6987 ;;      Params:         2       0       0       0       0       0       0       0       0       0       0       0       
      +0       0       0       0       0
  6988 ;;      Locals:         1       0       0       0       0       0       0       0       0       0       0       0       
      +0       0       0       0       0
  6989 ;;      Temps:          4       0       0       0       0       0       0       0       0       0       0       0       
      +0       0       0       0       0
  6990 ;;      Totals:         7       0       0       0       0       0       0       0       0       0       0       0       
      +0       0       0       0       0
  6991 ;;Total ram usage:        7 bytes
  6992 ;; Hardware stack levels used: 1
  6993 ;; Hardware stack levels required when called: 8
  6994 ;; This function calls:
  6995 ;;		Nothing
  6996 ;; This function is called by:
  6997 ;;		_keypad_get_value
  6998 ;;		_button_Read
  6999 ;; This function uses a non-reentrant model
  7000 ;;
  7001                           
  7002                           	psect	text42
  7003   0013B6                     __ptext42:
  7004                           	callstack 0
  7005   0013B6                     _gpio_pin_Read_logic:
  7006                           	callstack 21
  7007   0013B6                     
  7008                           ;MCAL_LAYER/GPIO/hal_gpio.c: 18:     Std_ReturnType ret = (Std_ReturnType) 0x01;
  7009   0013B6  0E01               	movlw	1
  7010   0013B8  6E2A               	movwf	gpio_pin_Read_logic@ret^0,c
  7011                           
  7012                           ;MCAL_LAYER/GPIO/hal_gpio.c: 19:     if (((void*)0) == _pin_config || _pin_config->pin >
      +                           (8 -1)){
  7013   0013BA  5024               	movf	gpio_pin_Read_logic@_pin_config^0,w,c
  7014   0013BC  B4D8               	btfsc	status,2,c
  7015   0013BE  EFE3  F009         	goto	u2511
  7016   0013C2  EFE5  F009         	goto	u2510
  7017   0013C6                     u2511:
  7018   0013C6  EFF5  F009         	goto	l3690
  7019   0013CA                     u2510:
  7020   0013CA  5024               	movf	gpio_pin_Read_logic@_pin_config^0,w,c
  7021   0013CC  6ED9               	movwf	fsr2l,c
  7022   0013CE  6ADA               	clrf	fsr2h,c
  7023   0013D0  30DF               	rrcf	223,w,c
  7024   0013D2  32E8               	rrcf	wreg,f,c
  7025   0013D4  32E8               	rrcf	wreg,f,c
  7026   0013D6  0B07               	andlw	7
  7027   0013D8  6E26               	movwf	??_gpio_pin_Read_logic^0,c
  7028   0013DA  0E07               	movlw	7
  7029   0013DC  6426               	cpfsgt	??_gpio_pin_Read_logic^0,c
  7030   0013DE  EFF3  F009         	goto	u2521
  7031   0013E2  EFF5  F009         	goto	u2520
  7032   0013E6                     u2521:
  7033   0013E6  EFF9  F009         	goto	l3692
  7034   0013EA                     u2520:
  7035   0013EA                     l3690:
  7036                           
  7037                           ;MCAL_LAYER/GPIO/hal_gpio.c: 20:         ret=(Std_ReturnType) 0x00;
  7038   0013EA  0E00               	movlw	0
  7039   0013EC  6E2A               	movwf	gpio_pin_Read_logic@ret^0,c
  7040                           
  7041                           ;MCAL_LAYER/GPIO/hal_gpio.c: 21:     }
  7042   0013EE  EF4D  F00A         	goto	l3694
  7043   0013F2                     l3692:
  7044                           
  7045                           ;MCAL_LAYER/GPIO/hal_gpio.c: 23:         *logic=((*port_registers[_pin_config->port] >> 
      +                          _pin_config->pin)&(uint_8)1);
  7046   0013F2  5025               	movf	gpio_pin_Read_logic@logic^0,w,c
  7047   0013F4  6ED9               	movwf	fsr2l,c
  7048   0013F6  6ADA               	clrf	fsr2h,c
  7049   0013F8  5024               	movf	gpio_pin_Read_logic@_pin_config^0,w,c
  7050   0013FA  6EE1               	movwf	fsr1l,c
  7051   0013FC  6AE2               	clrf	fsr1h,c
  7052   0013FE  30E7               	rrcf	231,w,c
  7053   001400  32E8               	rrcf	wreg,f,c
  7054   001402  32E8               	rrcf	wreg,f,c
  7055   001404  0B07               	andlw	7
  7056   001406  6E26               	movwf	??_gpio_pin_Read_logic^0,c
  7057   001408  5024               	movf	gpio_pin_Read_logic@_pin_config^0,w,c
  7058   00140A  6EE1               	movwf	fsr1l,c
  7059   00140C  6AE2               	clrf	fsr1h,c
  7060   00140E  50E7               	movf	231,w,c
  7061   001410  0B07               	andlw	7
  7062   001412  0D02               	mullw	2
  7063   001414  50F3               	movf	243,w,c
  7064   001416  0FB6               	addlw	low _port_registers
  7065   001418  6EE1               	movwf	fsr1l,c
  7066   00141A  6AE2               	clrf	fsr1h,c
  7067   00141C  CFE6 F027          	movff	postinc1,??_gpio_pin_Read_logic+1
  7068   001420  CFE5 F028          	movff	postdec1,??_gpio_pin_Read_logic+2
  7069   001424  C027  FFE1         	movff	??_gpio_pin_Read_logic+1,fsr1l
  7070   001428  C028  FFE2         	movff	??_gpio_pin_Read_logic+2,fsr1h
  7071   00142C  50E7               	movf	indf1,w,c
  7072   00142E  6E29               	movwf	(??_gpio_pin_Read_logic+3)^0,c
  7073   001430  2A26               	incf	??_gpio_pin_Read_logic^0,f,c
  7074   001432  EF1D  F00A         	goto	u2534
  7075   001436                     u2535:
  7076   001436  90D8               	bcf	status,0,c
  7077   001438  3229               	rrcf	(??_gpio_pin_Read_logic+3)^0,f,c
  7078   00143A                     u2534:
  7079   00143A  2E26               	decfsz	??_gpio_pin_Read_logic^0,f,c
  7080   00143C  EF1B  F00A         	goto	u2535
  7081   001440  5029               	movf	(??_gpio_pin_Read_logic+3)^0,w,c
  7082   001442  0B01               	andlw	1
  7083   001444  6EDF               	movwf	indf2,c
  7084                           
  7085                           ;MCAL_LAYER/GPIO/hal_gpio.c: 24:         *logic=((*port_registers[_pin_config->port] >> 
      +                          _pin_config->pin)&(uint_8)1);
  7086   001446  5025               	movf	gpio_pin_Read_logic@logic^0,w,c
  7087   001448  6ED9               	movwf	fsr2l,c
  7088   00144A  6ADA               	clrf	fsr2h,c
  7089   00144C  5024               	movf	gpio_pin_Read_logic@_pin_config^0,w,c
  7090   00144E  6EE1               	movwf	fsr1l,c
  7091   001450  6AE2               	clrf	fsr1h,c
  7092   001452  30E7               	rrcf	231,w,c
  7093   001454  32E8               	rrcf	wreg,f,c
  7094   001456  32E8               	rrcf	wreg,f,c
  7095   001458  0B07               	andlw	7
  7096   00145A  6E26               	movwf	??_gpio_pin_Read_logic^0,c
  7097   00145C  5024               	movf	gpio_pin_Read_logic@_pin_config^0,w,c
  7098   00145E  6EE1               	movwf	fsr1l,c
  7099   001460  6AE2               	clrf	fsr1h,c
  7100   001462  50E7               	movf	231,w,c
  7101   001464  0B07               	andlw	7
  7102   001466  0D02               	mullw	2
  7103   001468  50F3               	movf	243,w,c
  7104   00146A  0FB6               	addlw	low _port_registers
  7105   00146C  6EE1               	movwf	fsr1l,c
  7106   00146E  6AE2               	clrf	fsr1h,c
  7107   001470  CFE6 F027          	movff	postinc1,??_gpio_pin_Read_logic+1
  7108   001474  CFE5 F028          	movff	postdec1,??_gpio_pin_Read_logic+2
  7109   001478  C027  FFE1         	movff	??_gpio_pin_Read_logic+1,fsr1l
  7110   00147C  C028  FFE2         	movff	??_gpio_pin_Read_logic+2,fsr1h
  7111   001480  50E7               	movf	indf1,w,c
  7112   001482  6E29               	movwf	(??_gpio_pin_Read_logic+3)^0,c
  7113   001484  2A26               	incf	??_gpio_pin_Read_logic^0,f,c
  7114   001486  EF47  F00A         	goto	u2544
  7115   00148A                     u2545:
  7116   00148A  90D8               	bcf	status,0,c
  7117   00148C  3229               	rrcf	(??_gpio_pin_Read_logic+3)^0,f,c
  7118   00148E                     u2544:
  7119   00148E  2E26               	decfsz	??_gpio_pin_Read_logic^0,f,c
  7120   001490  EF45  F00A         	goto	u2545
  7121   001494  5029               	movf	(??_gpio_pin_Read_logic+3)^0,w,c
  7122   001496  0B01               	andlw	1
  7123   001498  6EDF               	movwf	indf2,c
  7124   00149A                     l3694:
  7125                           
  7126                           ;MCAL_LAYER/GPIO/hal_gpio.c: 27:     return ret;
  7127   00149A  502A               	movf	gpio_pin_Read_logic@ret^0,w,c
  7128   00149C  0012               	return		;funcret
  7129   00149E                     __end_of_gpio_pin_Read_logic:
  7130                           	callstack 0
  7131                           
  7132 ;; *************** function _convert_byte_to_string *****************
  7133 ;; Defined at:
  7134 ;;		line 337 in file "ECU_LAYER/LCD/ecu_lcd.c"
  7135 ;; Parameters:    Size  Location     Type
  7136 ;;  value           1    wreg     unsigned char 
  7137 ;;  str             1   26[BANK0 ] PTR unsigned char 
  7138 ;;		 -> display_value(4), 
  7139 ;; Auto vars:     Size  Location     Type
  7140 ;;  value           1   27[BANK0 ] unsigned char 
  7141 ;;  ret             1    0        unsigned char 
  7142 ;; Return value:  Size  Location     Type
  7143 ;;                  1    wreg      void 
  7144 ;; Registers used:
  7145 ;;		wreg, fsr1l, fsr1h, fsr2l, fsr2h, status,2, status,0, tblptrl, tblptrh, tblptru, cstack
  7146 ;; Tracked objects:
  7147 ;;		On entry : 0/0
  7148 ;;		On exit  : 0/0
  7149 ;;		Unchanged: 0/0
  7150 ;; Data sizes:     COMRAM   BANK0   BANK1   BANK2   BANK3   BANK4   BANK5   BANK6   BANK7   BANK8   BANK9  BANK10  BANK1
      +1  BANK12  BANK13  BANK14  BANK15
  7151 ;;      Params:         0       1       0       0       0       0       0       0       0       0       0       0       
      +0       0       0       0       0
  7152 ;;      Locals:         0       1       0       0       0       0       0       0       0       0       0       0       
      +0       0       0       0       0
  7153 ;;      Temps:          0       0       0       0       0       0       0       0       0       0       0       0       
      +0       0       0       0       0
  7154 ;;      Totals:         0       2       0       0       0       0       0       0       0       0       0       0       
      +0       0       0       0       0
  7155 ;;Total ram usage:        2 bytes
  7156 ;; Hardware stack levels used: 1
  7157 ;; Hardware stack levels required when called: 13
  7158 ;; This function calls:
  7159 ;;		_memset
  7160 ;;		_sprintf
  7161 ;; This function is called by:
  7162 ;;		_Set_password
  7163 ;;		_Enter_password
  7164 ;; This function uses a non-reentrant model
  7165 ;;
  7166                           
  7167                           	psect	text43
  7168   00206C                     __ptext43:
  7169                           	callstack 0
  7170   00206C                     _convert_byte_to_string:
  7171                           	callstack 16
  7172                           
  7173                           ;incstack = 0
  7174                           ;convert_byte_to_string@value stored from wreg
  7175   00206C  0100               	movlb	0	; () banked
  7176   00206E  6FFD               	movwf	convert_byte_to_string@value& (0+255),b
  7177   002070                     
  7178                           ;ECU_LAYER/LCD/ecu_lcd.c: 341:     if (((void*)0) == str ){
  7179   002070  0100               	movlb	0	; () banked
  7180   002072  51FC               	movf	convert_byte_to_string@str& (0+255),w,b
  7181   002074  A4D8               	btfss	status,2,c
  7182   002076  EF3F  F010         	goto	u4161
  7183   00207A  EF41  F010         	goto	u4160
  7184   00207E                     u4161:
  7185   00207E  EF43  F010         	goto	l5462
  7186   002082                     u4160:
  7187   002082                     
  7188                           ; BSR set to: 0
  7189                           ;ECU_LAYER/LCD/ecu_lcd.c: 343:     }
  7190   002082  EF5B  F010         	goto	l199
  7191   002086                     l5462:
  7192                           
  7193                           ; BSR set to: 0
  7194                           ;ECU_LAYER/LCD/ecu_lcd.c: 345:         memset(str,'\0',4);
  7195   002086  C0FC  F024         	movff	convert_byte_to_string@str,memset@dest
  7196   00208A  0E00               	movlw	0
  7197   00208C  6E26               	movwf	(memset@c+1)^0,c
  7198   00208E  0E00               	movlw	0
  7199   002090  6E25               	movwf	memset@c^0,c
  7200   002092  0E00               	movlw	0
  7201   002094  6E28               	movwf	(memset@n+1)^0,c
  7202   002096  0E04               	movlw	4
  7203   002098  6E27               	movwf	memset@n^0,c
  7204   00209A  ECFF  F011         	call	_memset	;wreg free
  7205   00209E                     
  7206                           ;ECU_LAYER/LCD/ecu_lcd.c: 346:         sprintf(str,"%i",value);
  7207   00209E  C0FC  F0EA         	movff	convert_byte_to_string@str,sprintf@s
  7208   0020A2  0EFA               	movlw	low STR_1
  7209   0020A4  0100               	movlb	0	; () banked
  7210   0020A6  6FEB               	movwf	sprintf@fmt& (0+255),b
  7211   0020A8  0EFF               	movlw	high STR_1
  7212   0020AA  6FEC               	movwf	(sprintf@fmt+1)& (0+255),b
  7213   0020AC  C0FD  F0ED         	movff	convert_byte_to_string@value,?_sprintf+3
  7214   0020B0  6BEE               	clrf	(?_sprintf+4)& (0+255),b
  7215   0020B2  EC73  F011         	call	_sprintf	;wreg free
  7216   0020B6                     l199:
  7217   0020B6  0012               	return		;funcret
  7218   0020B8                     __end_of_convert_byte_to_string:
  7219                           	callstack 0
  7220                           
  7221 ;; *************** function _sprintf *****************
  7222 ;; Defined at:
  7223 ;;		line 9 in file "D:\Program Files\Microchip\xc8\v2.45\pic\sources\c99\common\nf_sprintf.c"
  7224 ;; Parameters:    Size  Location     Type
  7225 ;;  s               1    8[BANK0 ] PTR unsigned char 
  7226 ;;		 -> display_value(4), 
  7227 ;;  fmt             2    9[BANK0 ] PTR const unsigned char 
  7228 ;;		 -> STR_3(3), STR_2(3), STR_1(3), 
  7229 ;; Auto vars:     Size  Location     Type
  7230 ;;  f              12   14[BANK0 ] struct _IO_FILE
  7231 ;;  ret             2    0        int 
  7232 ;;  ap              1   13[BANK0 ] PTR void [1]
  7233 ;;		 -> ?_sprintf(2), 
  7234 ;; Return value:  Size  Location     Type
  7235 ;;                  2    8[BANK0 ] int 
  7236 ;; Registers used:
  7237 ;;		wreg, fsr1l, fsr1h, fsr2l, fsr2h, status,2, status,0, tblptrl, tblptrh, tblptru, cstack
  7238 ;; Tracked objects:
  7239 ;;		On entry : 0/0
  7240 ;;		On exit  : 0/0
  7241 ;;		Unchanged: 0/0
  7242 ;; Data sizes:     COMRAM   BANK0   BANK1   BANK2   BANK3   BANK4   BANK5   BANK6   BANK7   BANK8   BANK9  BANK10  BANK1
      +1  BANK12  BANK13  BANK14  BANK15
  7243 ;;      Params:         0       5       0       0       0       0       0       0       0       0       0       0       
      +0       0       0       0       0
  7244 ;;      Locals:         0      13       0       0       0       0       0       0       0       0       0       0       
      +0       0       0       0       0
  7245 ;;      Temps:          0       0       0       0       0       0       0       0       0       0       0       0       
      +0       0       0       0       0
  7246 ;;      Totals:         0      18       0       0       0       0       0       0       0       0       0       0       
      +0       0       0       0       0
  7247 ;;Total ram usage:       18 bytes
  7248 ;; Hardware stack levels used: 1
  7249 ;; Hardware stack levels required when called: 12
  7250 ;; This function calls:
  7251 ;;		_vfprintf
  7252 ;; This function is called by:
  7253 ;;		_convert_byte_to_string
  7254 ;;		_convert_short_to_string
  7255 ;;		_convert_int_to_string
  7256 ;; This function uses a non-reentrant model
  7257 ;;
  7258                           
  7259                           	psect	text44
  7260   0022E6                     __ptext44:
  7261                           	callstack 0
  7262   0022E6                     _sprintf:
  7263                           	callstack 16
  7264   0022E6  0EED               	movlw	low (?_sprintf+3)
  7265   0022E8  0100               	movlb	0	; () banked
  7266   0022EA  6FEF               	movwf	sprintf@ap& (0+255),b
  7267   0022EC  C0EA  F0F0         	movff	sprintf@s,sprintf@f
  7268   0022F0                     
  7269                           ; BSR set to: 0
  7270   0022F0  0E00               	movlw	0
  7271   0022F2  6FF4               	movwf	(sprintf@f+4)& (0+255),b
  7272   0022F4  0E00               	movlw	0
  7273   0022F6  6FF3               	movwf	(sprintf@f+3)& (0+255),b
  7274   0022F8                     
  7275                           ; BSR set to: 0
  7276   0022F8  0E00               	movlw	0
  7277   0022FA  6FFB               	movwf	(sprintf@f+11)& (0+255),b
  7278   0022FC  0E00               	movlw	0
  7279   0022FE  6FFA               	movwf	(sprintf@f+10)& (0+255),b
  7280   002300                     
  7281                           ; BSR set to: 0
  7282   002300  0EF0               	movlw	low sprintf@f
  7283   002302  6E33               	movwf	vfprintf@fp^0,c
  7284   002304  C0EB  F034         	movff	sprintf@fmt,vfprintf@fmt
  7285   002308  C0EC  F035         	movff	sprintf@fmt+1,vfprintf@fmt+1
  7286   00230C  0EEF               	movlw	low sprintf@ap
  7287   00230E  6E36               	movwf	vfprintf@ap^0,c
  7288   002310  EC13  F011         	call	_vfprintf	;wreg free
  7289   002314  0100               	movlb	0	; () banked
  7290   002316  51EA               	movf	sprintf@s& (0+255),w,b
  7291   002318  25F3               	addwf	(sprintf@f+3)& (0+255),w,b
  7292   00231A  6ED9               	movwf	fsr2l,c
  7293   00231C  6ADA               	clrf	fsr2h,c
  7294   00231E  6ADF               	clrf	indf2,c
  7295   002320                     
  7296                           ; BSR set to: 0
  7297   002320  0012               	return		;funcret
  7298   002322                     __end_of_sprintf:
  7299                           	callstack 0
  7300                           
  7301 ;; *************** function _vfprintf *****************
  7302 ;; Defined at:
  7303 ;;		line 1817 in file "D:\Program Files\Microchip\xc8\v2.45\pic\sources\c99\common\doprnt.c"
  7304 ;; Parameters:    Size  Location     Type
  7305 ;;  fp              1   50[COMRAM] PTR struct _IO_FILE
  7306 ;;		 -> sprintf@f(12), 
  7307 ;;  fmt             2   51[COMRAM] PTR const unsigned char 
  7308 ;;		 -> STR_3(3), STR_2(3), STR_1(3), 
  7309 ;;  ap              1   53[COMRAM] PTR PTR void 
  7310 ;;		 -> sprintf@ap(1), 
  7311 ;; Auto vars:     Size  Location     Type
  7312 ;;  cfmt            2   54[COMRAM] PTR unsigned char 
  7313 ;;		 -> STR_3(3), STR_2(3), STR_1(3), 
  7314 ;; Return value:  Size  Location     Type
  7315 ;;                  2   50[COMRAM] int 
  7316 ;; Registers used:
  7317 ;;		wreg, fsr1l, fsr1h, fsr2l, fsr2h, status,2, status,0, tblptrl, tblptrh, tblptru, cstack
  7318 ;; Tracked objects:
  7319 ;;		On entry : 0/0
  7320 ;;		On exit  : 0/0
  7321 ;;		Unchanged: 0/0
  7322 ;; Data sizes:     COMRAM   BANK0   BANK1   BANK2   BANK3   BANK4   BANK5   BANK6   BANK7   BANK8   BANK9  BANK10  BANK1
      +1  BANK12  BANK13  BANK14  BANK15
  7323 ;;      Params:         4       0       0       0       0       0       0       0       0       0       0       0       
      +0       0       0       0       0
  7324 ;;      Locals:         2       0       0       0       0       0       0       0       0       0       0       0       
      +0       0       0       0       0
  7325 ;;      Temps:          0       0       0       0       0       0       0       0       0       0       0       0       
      +0       0       0       0       0
  7326 ;;      Totals:         6       0       0       0       0       0       0       0       0       0       0       0       
      +0       0       0       0       0
  7327 ;;Total ram usage:        6 bytes
  7328 ;; Hardware stack levels used: 1
  7329 ;; Hardware stack levels required when called: 11
  7330 ;; This function calls:
  7331 ;;		_vfpfcnvrt
  7332 ;; This function is called by:
  7333 ;;		_sprintf
  7334 ;; This function uses a non-reentrant model
  7335 ;;
  7336                           
  7337                           	psect	text45
  7338   002226                     __ptext45:
  7339                           	callstack 0
  7340   002226                     _vfprintf:
  7341                           	callstack 16
  7342   002226                     
  7343                           ;D:\Program Files\Microchip\xc8\v2.45\pic\sources\c99\common\doprnt.c: 1817: int vfprint
      +                          f(FILE *fp, const char *fmt, va_list ap);D:\Program Files\Microchip\xc8\v2.45\pic\source
      +                          s\c99\common\doprnt.c: 1818: {;D:\Program Files\Microchip\xc8\v2.45\pic\sources\c99\comm
      +                          on\doprnt.c: 1820:     char *cfmt;;D:\Program Files\Microchip\xc8\v2.45\pic\sources\c99\
      +                          common\doprnt.c: 1822:     cfmt = (char *)fmt;
  7344   002226  C034  F037         	movff	vfprintf@fmt,vfprintf@cfmt
  7345   00222A  C035  F038         	movff	vfprintf@fmt+1,vfprintf@cfmt+1
  7346                           
  7347                           ;D:\Program Files\Microchip\xc8\v2.45\pic\sources\c99\common\doprnt.c: 1826:     while (
      +                          *cfmt) {
  7348   00222E  EF21  F011         	goto	l5420
  7349   002232                     l5418:
  7350                           
  7351                           ;D:\Program Files\Microchip\xc8\v2.45\pic\sources\c99\common\doprnt.c: 1830:    vfpfcnvr
      +                          t(fp, &cfmt, ap);
  7352   002232  C033  F02E         	movff	vfprintf@fp,vfpfcnvrt@fp
  7353   002236  0E37               	movlw	low vfprintf@cfmt
  7354   002238  6E2F               	movwf	vfpfcnvrt@fmt^0,c
  7355   00223A  C036  F030         	movff	vfprintf@ap,vfpfcnvrt@ap
  7356   00223E  EC59  F002         	call	_vfpfcnvrt	;wreg free
  7357   002242                     l5420:
  7358                           
  7359                           ;D:\Program Files\Microchip\xc8\v2.45\pic\sources\c99\common\doprnt.c: 1826:     while (
      +                          *cfmt) {
  7360   002242  C037  FFF6         	movff	vfprintf@cfmt,tblptrl
  7361   002246  C038  FFF7         	movff	vfprintf@cfmt+1,tblptrh
  7362   00224A                     	if	1	;Program memory is < 0x10000, tblptru is always zero
  7363   00224A  6AF8               	clrf	tblptru,c
  7364   00224C                     	endif
  7365   00224C                     	if	0	;tblptru may be non-zero
  7366   00224C                     	endif
  7367   00224C  0008               	tblrd		*
  7368   00224E  50F5               	movf	tablat,w,c
  7369   002250  0900               	iorlw	0
  7370   002252  A4D8               	btfss	status,2,c
  7371   002254  EF2E  F011         	goto	u4131
  7372   002258  EF30  F011         	goto	u4130
  7373   00225C                     u4131:
  7374   00225C  EF19  F011         	goto	l5418
  7375   002260                     u4130:
  7376   002260                     
  7377                           ;D:\Program Files\Microchip\xc8\v2.45\pic\sources\c99\common\doprnt.c: 1835:  return 0;
  7378   002260  0E00               	movlw	0
  7379   002262  6E34               	movwf	(?_vfprintf+1)^0,c
  7380   002264  0E00               	movlw	0
  7381   002266  6E33               	movwf	?_vfprintf^0,c
  7382   002268  0012               	return		;funcret
  7383   00226A                     __end_of_vfprintf:
  7384                           	callstack 0
  7385                           
  7386 ;; *************** function _vfpfcnvrt *****************
  7387 ;; Defined at:
  7388 ;;		line 1177 in file "D:\Program Files\Microchip\xc8\v2.45\pic\sources\c99\common\doprnt.c"
  7389 ;; Parameters:    Size  Location     Type
  7390 ;;  fp              1   45[COMRAM] PTR struct _IO_FILE
  7391 ;;		 -> sprintf@f(12), 
  7392 ;;  fmt             1   46[COMRAM] PTR PTR unsigned char 
  7393 ;;		 -> vfprintf@cfmt(2), 
  7394 ;;  ap              1   47[COMRAM] PTR PTR void 
  7395 ;;		 -> sprintf@ap(1), 
  7396 ;; Auto vars:     Size  Location     Type
  7397 ;;  convarg         4    3[BANK0 ] struct .
  7398 ;;  cp              2    1[BANK0 ] PTR unsigned char 
  7399 ;;		 -> STR_3(3), STR_2(3), STR_1(3), 
  7400 ;;  c               1    7[BANK0 ] unsigned char 
  7401 ;;  done            1    0[BANK0 ] _Bool 
  7402 ;; Return value:  Size  Location     Type
  7403 ;;                  1    wreg      void 
  7404 ;; Registers used:
  7405 ;;		wreg, fsr1l, fsr1h, fsr2l, fsr2h, status,2, status,0, tblptrl, tblptrh, tblptru, cstack
  7406 ;; Tracked objects:
  7407 ;;		On entry : 0/0
  7408 ;;		On exit  : 0/0
  7409 ;;		Unchanged: 0/0
  7410 ;; Data sizes:     COMRAM   BANK0   BANK1   BANK2   BANK3   BANK4   BANK5   BANK6   BANK7   BANK8   BANK9  BANK10  BANK1
      +1  BANK12  BANK13  BANK14  BANK15
  7411 ;;      Params:         3       0       0       0       0       0       0       0       0       0       0       0       
      +0       0       0       0       0
  7412 ;;      Locals:         0       8       0       0       0       0       0       0       0       0       0       0       
      +0       0       0       0       0
  7413 ;;      Temps:          2       0       0       0       0       0       0       0       0       0       0       0       
      +0       0       0       0       0
  7414 ;;      Totals:         5       8       0       0       0       0       0       0       0       0       0       0       
      +0       0       0       0       0
  7415 ;;Total ram usage:       13 bytes
  7416 ;; Hardware stack levels used: 1
  7417 ;; Hardware stack levels required when called: 10
  7418 ;; This function calls:
  7419 ;;		___awdiv
  7420 ;;		___awmod
  7421 ;;		_abs
  7422 ;;		_fputc
  7423 ;; This function is called by:
  7424 ;;		_vfprintf
  7425 ;; This function uses a non-reentrant model
  7426 ;;
  7427                           
  7428                           	psect	text46
  7429   0004B2                     __ptext46:
  7430                           	callstack 0
  7431   0004B2                     _vfpfcnvrt:
  7432                           	callstack 16
  7433   0004B2                     
  7434                           ;D:\Program Files\Microchip\xc8\v2.45\pic\sources\c99\common\doprnt.c: 1177: vfpfcnvrt(F
      +                          ILE *fp, char *fmt[], va_list ap);D:\Program Files\Microchip\xc8\v2.45\pic\sources\c99\c
      +                          ommon\doprnt.c: 1178: {;D:\Program Files\Microchip\xc8\v2.45\pic\sources\c99\common\dopr
      +                          nt.c: 1179:     char c, *cp;;D:\Program Files\Microchip\xc8\v2.45\pic\sources\c99\common
      +                          \doprnt.c: 1180:     _Bool done;;D:\Program Files\Microchip\xc8\v2.45\pic\sources\c99\co
      +                          mmon\doprnt.c: 1188:  } convarg;;D:\Program Files\Microchip\xc8\v2.45\pic\sources\c99\co
      +                          mmon\doprnt.c: 1201:     if ((*fmt)[0] == '%') {
  7435   0004B2  502F               	movf	vfpfcnvrt@fmt^0,w,c
  7436   0004B4  6ED9               	movwf	fsr2l,c
  7437   0004B6  6ADA               	clrf	fsr2h,c
  7438   0004B8  CFDE FFF6          	movff	postinc2,tblptrl
  7439   0004BC  CFDD FFF7          	movff	postdec2,tblptrh
  7440   0004C0                     	if	1	;Program memory is < 0x10000, tblptru is always zero
  7441   0004C0  6AF8               	clrf	tblptru,c
  7442   0004C2                     	endif
  7443   0004C2                     	if	0	;tblptru may be non-zero
  7444   0004C2                     	endif
  7445   0004C2  0008               	tblrd		*
  7446   0004C4  50F5               	movf	tablat,w,c
  7447   0004C6  0A25               	xorlw	37
  7448   0004C8  A4D8               	btfss	status,2,c
  7449   0004CA  EF69  F002         	goto	u4031
  7450   0004CE  EF6B  F002         	goto	u4030
  7451   0004D2                     u4031:
  7452   0004D2  EF37  F003         	goto	l5410
  7453   0004D6                     u4030:
  7454   0004D6                     
  7455                           ;D:\Program Files\Microchip\xc8\v2.45\pic\sources\c99\common\doprnt.c: 1202:         ++*
      +                          fmt;
  7456   0004D6  502F               	movf	vfpfcnvrt@fmt^0,w,c
  7457   0004D8  6ED9               	movwf	fsr2l,c
  7458   0004DA  6ADA               	clrf	fsr2h,c
  7459   0004DC  2ADE               	incf	postinc2,f,c
  7460   0004DE  0E00               	movlw	0
  7461   0004E0  22DD               	addwfc	postdec2,f,c
  7462   0004E2                     
  7463                           ;D:\Program Files\Microchip\xc8\v2.45\pic\sources\c99\common\doprnt.c: 1204:         fla
      +                          gs = width = 0;
  7464   0004E2  0E00               	movlw	0
  7465   0004E4  0100               	movlb	0	; () banked
  7466   0004E6  6FA1               	movwf	(_width+1)& (0+255),b
  7467   0004E8  0E00               	movlw	0
  7468   0004EA  6FA0               	movwf	_width& (0+255),b
  7469   0004EC  C0A0  F041         	movff	_width,_flags
  7470   0004F0                     
  7471                           ; BSR set to: 0
  7472                           ;D:\Program Files\Microchip\xc8\v2.45\pic\sources\c99\common\doprnt.c: 1205:         pre
      +                          c = -1;
  7473   0004F0  69A2               	setf	_prec& (0+255),b
  7474   0004F2  69A3               	setf	(_prec+1)& (0+255),b
  7475   0004F4                     
  7476                           ; BSR set to: 0
  7477                           ;D:\Program Files\Microchip\xc8\v2.45\pic\sources\c99\common\doprnt.c: 1291:   cp = *fmt
      +                          ;
  7478   0004F4  502F               	movf	vfpfcnvrt@fmt^0,w,c
  7479   0004F6  6ED9               	movwf	fsr2l,c
  7480   0004F8  6ADA               	clrf	fsr2h,c
  7481   0004FA  CFDE F0E3          	movff	postinc2,vfpfcnvrt@cp
  7482   0004FE  CFDD F0E4          	movff	postdec2,vfpfcnvrt@cp+1
  7483   000502                     
  7484                           ; BSR set to: 0
  7485                           ;D:\Program Files\Microchip\xc8\v2.45\pic\sources\c99\common\doprnt.c: 1361:   if (*cp =
      +                          = 'd' || *cp == 'i') {
  7486   000502  C0E3  FFF6         	movff	vfpfcnvrt@cp,tblptrl
  7487   000506  C0E4  FFF7         	movff	vfpfcnvrt@cp+1,tblptrh
  7488   00050A                     	if	1	;Program memory is < 0x10000, tblptru is always zero
  7489   00050A  6AF8               	clrf	tblptru,c
  7490   00050C                     	endif
  7491   00050C                     	if	0	;tblptru may be non-zero
  7492   00050C                     	endif
  7493   00050C  0008               	tblrd		*
  7494   00050E  50F5               	movf	tablat,w,c
  7495   000510  0A64               	xorlw	100
  7496   000512  B4D8               	btfsc	status,2,c
  7497   000514  EF8E  F002         	goto	u4041
  7498   000518  EF90  F002         	goto	u4040
  7499   00051C                     u4041:
  7500   00051C  EF9F  F002         	goto	l5380
  7501   000520                     u4040:
  7502   000520                     
  7503                           ; BSR set to: 0
  7504   000520  C0E3  FFF6         	movff	vfpfcnvrt@cp,tblptrl
  7505   000524  C0E4  FFF7         	movff	vfpfcnvrt@cp+1,tblptrh
  7506   000528                     	if	1	;Program memory is < 0x10000, tblptru is always zero
  7507   000528  6AF8               	clrf	tblptru,c
  7508   00052A                     	endif
  7509   00052A                     	if	0	;tblptru may be non-zero
  7510   00052A                     	endif
  7511   00052A  0008               	tblrd		*
  7512   00052C  50F5               	movf	tablat,w,c
  7513   00052E  0A69               	xorlw	105
  7514   000530  A4D8               	btfss	status,2,c
  7515   000532  EF9D  F002         	goto	u4051
  7516   000536  EF9F  F002         	goto	u4050
  7517   00053A                     u4051:
  7518   00053A  EF2F  F003         	goto	l5406
  7519   00053E                     u4050:
  7520   00053E                     l5380:
  7521                           
  7522                           ; BSR set to: 0
  7523                           ;D:\Program Files\Microchip\xc8\v2.45\pic\sources\c99\common\doprnt.c: 1404:    convarg.
      +                          sint = (vfpf_sint_t)(int)(*(int *)__va_arg(*(int **)ap, (int)0));
  7524   00053E  5030               	movf	vfpfcnvrt@ap^0,w,c
  7525   000540  6ED9               	movwf	fsr2l,c
  7526   000542  6ADA               	clrf	fsr2h,c
  7527   000544  0E02               	movlw	2
  7528   000546  26DF               	addwf	indf2,f,c
  7529   000548  5CDF               	subwf	indf2,w,c
  7530   00054A  6ED9               	movwf	fsr2l,c
  7531   00054C  6ADA               	clrf	fsr2h,c
  7532   00054E  CFDE F0E5          	movff	postinc2,vfpfcnvrt@convarg
  7533   000552  CFDE F0E6          	movff	postinc2,vfpfcnvrt@convarg+1
  7534   000556                     
  7535                           ; BSR set to: 0
  7536                           ;D:\Program Files\Microchip\xc8\v2.45\pic\sources\c99\common\doprnt.c: 1406:    *fmt = c
      +                          p+1;
  7537   000556  0E01               	movlw	1
  7538   000558  25E3               	addwf	vfpfcnvrt@cp& (0+255),w,b
  7539   00055A  6E31               	movwf	??_vfpfcnvrt^0,c
  7540   00055C  0E00               	movlw	0
  7541   00055E  21E4               	addwfc	(vfpfcnvrt@cp+1)& (0+255),w,b
  7542   000560  6E32               	movwf	(??_vfpfcnvrt+1)^0,c
  7543   000562  502F               	movf	vfpfcnvrt@fmt^0,w,c
  7544   000564  6ED9               	movwf	fsr2l,c
  7545   000566  6ADA               	clrf	fsr2h,c
  7546   000568  C031  FFDE         	movff	??_vfpfcnvrt,postinc2
  7547   00056C  C032  FFDD         	movff	??_vfpfcnvrt+1,postdec2
  7548   000570                     
  7549                           ; BSR set to: 0
  7550                           ;D:\Program Files\Microchip\xc8\v2.45\pic\sources\c99\common\doprnt.c: 1408:    c = size
      +                          of(dbuf);
  7551   000570  0E20               	movlw	32
  7552   000572  6FE9               	movwf	vfpfcnvrt@c& (0+255),b
  7553                           
  7554                           ;D:\Program Files\Microchip\xc8\v2.45\pic\sources\c99\common\doprnt.c: 1409:    done = c
      +                          onvarg.sint < 0;
  7555   000574  BFE6               	btfsc	(vfpfcnvrt@convarg+1)& (0+255),7,b
  7556   000576  EFBF  F002         	goto	u4061
  7557   00057A  EFC2  F002         	goto	u4060
  7558   00057E                     u4061:
  7559   00057E  0E01               	movlw	1
  7560   000580  EFC3  F002         	goto	u4070
  7561   000584                     u4060:
  7562   000584  0E00               	movlw	0
  7563   000586                     u4070:
  7564   000586  6FE2               	movwf	vfpfcnvrt@done& (0+255),b
  7565   000588                     l5386:
  7566                           
  7567                           ; BSR set to: 0
  7568                           ;D:\Program Files\Microchip\xc8\v2.45\pic\sources\c99\common\doprnt.c: 1411:     dbuf[--
      +                          c] = abs(convarg.sint % 10) + '0';
  7569   000588  07E9               	decf	vfpfcnvrt@c& (0+255),f,b
  7570   00058A  51E9               	movf	vfpfcnvrt@c& (0+255),w,b
  7571   00058C  0F80               	addlw	low _dbuf
  7572   00058E  6ED9               	movwf	fsr2l,c
  7573   000590  6ADA               	clrf	fsr2h,c
  7574   000592  C0E5  F024         	movff	vfpfcnvrt@convarg,___awmod@dividend
  7575   000596  C0E6  F025         	movff	vfpfcnvrt@convarg+1,___awmod@dividend+1
  7576   00059A  0E00               	movlw	0
  7577   00059C  6E27               	movwf	(___awmod@divisor+1)^0,c
  7578   00059E  0E0A               	movlw	10
  7579   0005A0  6E26               	movwf	___awmod@divisor^0,c
  7580   0005A2  EC22  F00B         	call	___awmod	;wreg free
  7581   0005A6  C024  F02A         	movff	?___awmod,abs@a
  7582   0005AA  C025  F02B         	movff	?___awmod+1,abs@a+1
  7583   0005AE  ECE5  F011         	call	_abs	;wreg free
  7584   0005B2  502A               	movf	?_abs^0,w,c
  7585   0005B4  0F30               	addlw	48
  7586   0005B6  6EDF               	movwf	indf2,c
  7587   0005B8                     
  7588                           ;D:\Program Files\Microchip\xc8\v2.45\pic\sources\c99\common\doprnt.c: 1412:     convarg
      +                          .sint /= 10;
  7589   0005B8  C0E5  F024         	movff	vfpfcnvrt@convarg,___awdiv@dividend
  7590   0005BC  C0E6  F025         	movff	vfpfcnvrt@convarg+1,___awdiv@dividend+1
  7591   0005C0  0E00               	movlw	0
  7592   0005C2  6E27               	movwf	(___awdiv@divisor+1)^0,c
  7593   0005C4  0E0A               	movlw	10
  7594   0005C6  6E26               	movwf	___awdiv@divisor^0,c
  7595   0005C8  ECC0  F00A         	call	___awdiv	;wreg free
  7596   0005CC  C024  F0E5         	movff	?___awdiv,vfpfcnvrt@convarg
  7597   0005D0  C025  F0E6         	movff	?___awdiv+1,vfpfcnvrt@convarg+1
  7598   0005D4                     
  7599                           ;D:\Program Files\Microchip\xc8\v2.45\pic\sources\c99\common\doprnt.c: 1416:    } while 
      +                          (convarg.sint != 0 && c != 0);
  7600   0005D4  0100               	movlb	0	; () banked
  7601   0005D6  51E5               	movf	vfpfcnvrt@convarg& (0+255),w,b
  7602   0005D8  11E6               	iorwf	(vfpfcnvrt@convarg+1)& (0+255),w,b
  7603   0005DA  B4D8               	btfsc	status,2,c
  7604   0005DC  EFF2  F002         	goto	u4081
  7605   0005E0  EFF4  F002         	goto	u4080
  7606   0005E4                     u4081:
  7607   0005E4  EFFC  F002         	goto	l5394
  7608   0005E8                     u4080:
  7609   0005E8                     
  7610                           ; BSR set to: 0
  7611   0005E8  51E9               	movf	vfpfcnvrt@c& (0+255),w,b
  7612   0005EA  A4D8               	btfss	status,2,c
  7613   0005EC  EFFA  F002         	goto	u4091
  7614   0005F0  EFFC  F002         	goto	u4090
  7615   0005F4                     u4091:
  7616   0005F4  EFC4  F002         	goto	l5386
  7617   0005F8                     u4090:
  7618   0005F8                     l5394:
  7619                           
  7620                           ; BSR set to: 0
  7621                           ;D:\Program Files\Microchip\xc8\v2.45\pic\sources\c99\common\doprnt.c: 1417:    if (c !=
      +                           0 && done) {
  7622   0005F8  51E9               	movf	vfpfcnvrt@c& (0+255),w,b
  7623   0005FA  B4D8               	btfsc	status,2,c
  7624   0005FC  EF02  F003         	goto	u4101
  7625   000600  EF04  F003         	goto	u4100
  7626   000604                     u4101:
  7627   000604  EF24  F003         	goto	l5404
  7628   000608                     u4100:
  7629   000608                     
  7630                           ; BSR set to: 0
  7631   000608  51E2               	movf	vfpfcnvrt@done& (0+255),w,b
  7632   00060A  B4D8               	btfsc	status,2,c
  7633   00060C  EF0A  F003         	goto	u4111
  7634   000610  EF0C  F003         	goto	u4110
  7635   000614                     u4111:
  7636   000614  EF24  F003         	goto	l5404
  7637   000618                     u4110:
  7638   000618                     
  7639                           ; BSR set to: 0
  7640                           ;D:\Program Files\Microchip\xc8\v2.45\pic\sources\c99\common\doprnt.c: 1418:     dbuf[--
      +                          c] = '-';
  7641   000618  07E9               	decf	vfpfcnvrt@c& (0+255),f,b
  7642   00061A  51E9               	movf	vfpfcnvrt@c& (0+255),w,b
  7643   00061C  0F80               	addlw	low _dbuf
  7644   00061E  6ED9               	movwf	fsr2l,c
  7645   000620  6ADA               	clrf	fsr2h,c
  7646   000622  0E2D               	movlw	45
  7647   000624  6EDF               	movwf	indf2,c
  7648   000626  EF24  F003         	goto	l5404
  7649   00062A                     l5400:
  7650                           
  7651                           ; BSR set to: 0
  7652                           ;D:\Program Files\Microchip\xc8\v2.45\pic\sources\c99\common\doprnt.c: 1424:     fputc(d
      +                          buf[c++], fp);
  7653   00062A  51E9               	movf	vfpfcnvrt@c& (0+255),w,b
  7654   00062C  0F80               	addlw	low _dbuf
  7655   00062E  6ED9               	movwf	fsr2l,c
  7656   000630  6ADA               	clrf	fsr2h,c
  7657   000632  50DF               	movf	indf2,w,c
  7658   000634  6E31               	movwf	??_vfpfcnvrt^0,c
  7659   000636  5031               	movf	??_vfpfcnvrt^0,w,c
  7660   000638  6E24               	movwf	fputc@c^0,c
  7661   00063A  6A25               	clrf	(fputc@c+1)^0,c
  7662   00063C  C02E  F026         	movff	vfpfcnvrt@fp,fputc@fp
  7663   000640  EC7A  F00B         	call	_fputc	;wreg free
  7664   000644  0100               	movlb	0	; () banked
  7665   000646  2BE9               	incf	vfpfcnvrt@c& (0+255),f,b
  7666   000648                     l5404:
  7667                           
  7668                           ; BSR set to: 0
  7669                           ;D:\Program Files\Microchip\xc8\v2.45\pic\sources\c99\common\doprnt.c: 1423:    while (c
      +                           != sizeof(dbuf)) {
  7670   000648  0E20               	movlw	32
  7671   00064A  19E9               	xorwf	vfpfcnvrt@c& (0+255),w,b
  7672   00064C  A4D8               	btfss	status,2,c
  7673   00064E  EF2B  F003         	goto	u4121
  7674   000652  EF2D  F003         	goto	u4120
  7675   000656                     u4121:
  7676   000656  EF15  F003         	goto	l5400
  7677   00065A                     u4120:
  7678   00065A  EF49  F003         	goto	l1534
  7679   00065E                     l5406:
  7680                           
  7681                           ;D:\Program Files\Microchip\xc8\v2.45\pic\sources\c99\common\doprnt.c: 1806:         ++*
      +                          fmt;
  7682   00065E  502F               	movf	vfpfcnvrt@fmt^0,w,c
  7683   000660  6ED9               	movwf	fsr2l,c
  7684   000662  6ADA               	clrf	fsr2h,c
  7685   000664  2ADE               	incf	postinc2,f,c
  7686   000666  0E00               	movlw	0
  7687   000668  22DD               	addwfc	postdec2,f,c
  7688   00066A  EF49  F003         	goto	l1534
  7689   00066E                     l5410:
  7690                           
  7691                           ;D:\Program Files\Microchip\xc8\v2.45\pic\sources\c99\common\doprnt.c: 1811:     fputc((
      +                          int)(*fmt)[0], fp);
  7692   00066E  502F               	movf	vfpfcnvrt@fmt^0,w,c
  7693   000670  6ED9               	movwf	fsr2l,c
  7694   000672  6ADA               	clrf	fsr2h,c
  7695   000674  CFDE FFF6          	movff	postinc2,tblptrl
  7696   000678  CFDD FFF7          	movff	postdec2,tblptrh
  7697   00067C                     	if	1	;Program memory is < 0x10000, tblptru is always zero
  7698   00067C  6AF8               	clrf	tblptru,c
  7699   00067E                     	endif
  7700   00067E                     	if	0	;tblptru may be non-zero
  7701   00067E                     	endif
  7702   00067E  0008               	tblrd		*
  7703   000680  50F5               	movf	tablat,w,c
  7704   000682  6E24               	movwf	fputc@c^0,c
  7705   000684  6A25               	clrf	(fputc@c+1)^0,c
  7706   000686  C02E  F026         	movff	vfpfcnvrt@fp,fputc@fp
  7707   00068A  EC7A  F00B         	call	_fputc	;wreg free
  7708   00068E  EF2F  F003         	goto	l5406
  7709   000692                     l1534:
  7710   000692  0012               	return		;funcret
  7711   000694                     __end_of_vfpfcnvrt:
  7712                           	callstack 0
  7713                           
  7714 ;; *************** function _fputc *****************
  7715 ;; Defined at:
  7716 ;;		line 8 in file "D:\Program Files\Microchip\xc8\v2.45\pic\sources\c99\common\nf_fputc.c"
  7717 ;; Parameters:    Size  Location     Type
  7718 ;;  c               2   35[COMRAM] int 
  7719 ;;  fp              1   37[COMRAM] PTR struct _IO_FILE
  7720 ;;		 -> sprintf@f(12), 
  7721 ;; Auto vars:     Size  Location     Type
  7722 ;;		None
  7723 ;; Return value:  Size  Location     Type
  7724 ;;                  2   35[COMRAM] int 
  7725 ;; Registers used:
  7726 ;;		wreg, fsr1l, fsr1h, fsr2l, fsr2h, status,2, status,0, cstack
  7727 ;; Tracked objects:
  7728 ;;		On entry : 0/0
  7729 ;;		On exit  : 0/0
  7730 ;;		Unchanged: 0/0
  7731 ;; Data sizes:     COMRAM   BANK0   BANK1   BANK2   BANK3   BANK4   BANK5   BANK6   BANK7   BANK8   BANK9  BANK10  BANK1
      +1  BANK12  BANK13  BANK14  BANK15
  7732 ;;      Params:         3       0       0       0       0       0       0       0       0       0       0       0       
      +0       0       0       0       0
  7733 ;;      Locals:         0       0       0       0       0       0       0       0       0       0       0       0       
      +0       0       0       0       0
  7734 ;;      Temps:          5       0       0       0       0       0       0       0       0       0       0       0       
      +0       0       0       0       0
  7735 ;;      Totals:         8       0       0       0       0       0       0       0       0       0       0       0       
      +0       0       0       0       0
  7736 ;;Total ram usage:        8 bytes
  7737 ;; Hardware stack levels used: 1
  7738 ;; Hardware stack levels required when called: 9
  7739 ;; This function calls:
  7740 ;;		_putch
  7741 ;; This function is called by:
  7742 ;;		_vfpfcnvrt
  7743 ;; This function uses a non-reentrant model
  7744 ;;
  7745                           
  7746                           	psect	text47
  7747   0016F4                     __ptext47:
  7748                           	callstack 0
  7749   0016F4                     _fputc:
  7750                           	callstack 16
  7751   0016F4  5026               	movf	fputc@fp^0,w,c
  7752   0016F6  B4D8               	btfsc	status,2,c
  7753   0016F8  EF80  F00B         	goto	u3981
  7754   0016FC  EF82  F00B         	goto	u3980
  7755   001700                     u3981:
  7756   001700  EF8A  F00B         	goto	l5352
  7757   001704                     u3980:
  7758   001704  5026               	movf	fputc@fp^0,w,c
  7759   001706  A4D8               	btfss	status,2,c
  7760   001708  EF88  F00B         	goto	u3991
  7761   00170C  EF8A  F00B         	goto	u3990
  7762   001710                     u3991:
  7763   001710  EF8F  F00B         	goto	l5354
  7764   001714                     u3990:
  7765   001714                     l5352:
  7766   001714  5024               	movf	fputc@c^0,w,c
  7767   001716  EC48  F013         	call	_putch
  7768   00171A  EFCE  F00B         	goto	l1559
  7769   00171E                     l5354:
  7770   00171E  5026               	movf	fputc@fp^0,w,c
  7771   001720  6ED9               	movwf	fsr2l,c
  7772   001722  6ADA               	clrf	fsr2h,c
  7773   001724  0E0A               	movlw	10
  7774   001726  26D9               	addwf	fsr2l,f,c
  7775   001728  50DE               	movf	postinc2,w,c
  7776   00172A  10DE               	iorwf	postinc2,w,c
  7777   00172C  B4D8               	btfsc	status,2,c
  7778   00172E  EF9B  F00B         	goto	u4001
  7779   001732  EF9D  F00B         	goto	u4000
  7780   001736                     u4001:
  7781   001736  EFB6  F00B         	goto	l5358
  7782   00173A                     u4000:
  7783   00173A  5026               	movf	fputc@fp^0,w,c
  7784   00173C  6ED9               	movwf	fsr2l,c
  7785   00173E  6ADA               	clrf	fsr2h,c
  7786   001740  0E0A               	movlw	10
  7787   001742  26D9               	addwf	fsr2l,f,c
  7788   001744  5026               	movf	fputc@fp^0,w,c
  7789   001746  6EE1               	movwf	fsr1l,c
  7790   001748  6AE2               	clrf	fsr1h,c
  7791   00174A  0E03               	movlw	3
  7792   00174C  26E1               	addwf	fsr1l,f,c
  7793   00174E  50DE               	movf	postinc2,w,c
  7794   001750  5CE6               	subwf	postinc1,w,c
  7795   001752  50E6               	movf	postinc1,w,c
  7796   001754  0A80               	xorlw	128
  7797   001756  6E2B               	movwf	(??_fputc+4)^0,c
  7798   001758  50DE               	movf	postinc2,w,c
  7799   00175A  0A80               	xorlw	128
  7800   00175C  582B               	subwfb	(??_fputc+4)^0,w,c
  7801   00175E  B0D8               	btfsc	status,0,c
  7802   001760  EFB4  F00B         	goto	u4011
  7803   001764  EFB6  F00B         	goto	u4010
  7804   001768                     u4011:
  7805   001768  EFCE  F00B         	goto	l1559
  7806   00176C                     u4010:
  7807   00176C                     l5358:
  7808   00176C  5026               	movf	fputc@fp^0,w,c
  7809   00176E  6ED9               	movwf	fsr2l,c
  7810   001770  6ADA               	clrf	fsr2h,c
  7811   001772  0E03               	movlw	3
  7812   001774  26D9               	addwf	fsr2l,f,c
  7813   001776  50DF               	movf	indf2,w,c
  7814   001778  6E27               	movwf	??_fputc^0,c
  7815   00177A  5026               	movf	fputc@fp^0,w,c
  7816   00177C  6ED9               	movwf	fsr2l,c
  7817   00177E  6ADA               	clrf	fsr2h,c
  7818   001780  50DF               	movf	indf2,w,c
  7819   001782  2427               	addwf	??_fputc^0,w,c
  7820   001784  6ED9               	movwf	fsr2l,c
  7821   001786  6ADA               	clrf	fsr2h,c
  7822   001788  C024  FFDF         	movff	fputc@c,indf2
  7823   00178C  5026               	movf	fputc@fp^0,w,c
  7824   00178E  6ED9               	movwf	fsr2l,c
  7825   001790  6ADA               	clrf	fsr2h,c
  7826   001792  0E03               	movlw	3
  7827   001794  26D9               	addwf	fsr2l,f,c
  7828   001796  2ADE               	incf	postinc2,f,c
  7829   001798  0E00               	movlw	0
  7830   00179A  22DD               	addwfc	postdec2,f,c
  7831   00179C                     l1559:
  7832   00179C  0012               	return		;funcret
  7833   00179E                     __end_of_fputc:
  7834                           	callstack 0
  7835                           
  7836 ;; *************** function _putch *****************
  7837 ;; Defined at:
  7838 ;;		line 7 in file "D:\Program Files\Microchip\xc8\v2.45\pic\sources\c99\common\putch.c"
  7839 ;; Parameters:    Size  Location     Type
  7840 ;;  c               1    wreg     unsigned char 
  7841 ;; Auto vars:     Size  Location     Type
  7842 ;;  c               1    0[COMRAM] unsigned char 
  7843 ;; Return value:  Size  Location     Type
  7844 ;;                  1    wreg      void 
  7845 ;; Registers used:
  7846 ;;		wreg
  7847 ;; Tracked objects:
  7848 ;;		On entry : 0/0
  7849 ;;		On exit  : 0/0
  7850 ;;		Unchanged: 0/0
  7851 ;; Data sizes:     COMRAM   BANK0   BANK1   BANK2   BANK3   BANK4   BANK5   BANK6   BANK7   BANK8   BANK9  BANK10  BANK1
      +1  BANK12  BANK13  BANK14  BANK15
  7852 ;;      Params:         0       0       0       0       0       0       0       0       0       0       0       0       
      +0       0       0       0       0
  7853 ;;      Locals:         0       0       0       0       0       0       0       0       0       0       0       0       
      +0       0       0       0       0
  7854 ;;      Temps:          0       0       0       0       0       0       0       0       0       0       0       0       
      +0       0       0       0       0
  7855 ;;      Totals:         0       0       0       0       0       0       0       0       0       0       0       0       
      +0       0       0       0       0
  7856 ;;Total ram usage:        0 bytes
  7857 ;; Hardware stack levels used: 1
  7858 ;; Hardware stack levels required when called: 8
  7859 ;; This function calls:
  7860 ;;		Nothing
  7861 ;; This function is called by:
  7862 ;;		_fputc
  7863 ;; This function uses a non-reentrant model
  7864 ;;
  7865                           
  7866                           	psect	text48
  7867   002690                     __ptext48:
  7868                           	callstack 0
  7869   002690                     _putch:
  7870                           	callstack 16
  7871   002690  0012               	return		;funcret
  7872   002692                     __end_of_putch:
  7873                           	callstack 0
  7874                           
  7875 ;; *************** function _abs *****************
  7876 ;; Defined at:
  7877 ;;		line 1 in file "D:\Program Files\Microchip\xc8\v2.45\pic\sources\c99\common\abs.c"
  7878 ;; Parameters:    Size  Location     Type
  7879 ;;  a               2   41[COMRAM] int 
  7880 ;; Auto vars:     Size  Location     Type
  7881 ;;		None
  7882 ;; Return value:  Size  Location     Type
  7883 ;;                  2   41[COMRAM] int 
  7884 ;; Registers used:
  7885 ;;		wreg, status,2, status,0
  7886 ;; Tracked objects:
  7887 ;;		On entry : 0/0
  7888 ;;		On exit  : 0/0
  7889 ;;		Unchanged: 0/0
  7890 ;; Data sizes:     COMRAM   BANK0   BANK1   BANK2   BANK3   BANK4   BANK5   BANK6   BANK7   BANK8   BANK9  BANK10  BANK1
      +1  BANK12  BANK13  BANK14  BANK15
  7891 ;;      Params:         2       0       0       0       0       0       0       0       0       0       0       0       
      +0       0       0       0       0
  7892 ;;      Locals:         0       0       0       0       0       0       0       0       0       0       0       0       
      +0       0       0       0       0
  7893 ;;      Temps:          2       0       0       0       0       0       0       0       0       0       0       0       
      +0       0       0       0       0
  7894 ;;      Totals:         4       0       0       0       0       0       0       0       0       0       0       0       
      +0       0       0       0       0
  7895 ;;Total ram usage:        4 bytes
  7896 ;; Hardware stack levels used: 1
  7897 ;; Hardware stack levels required when called: 8
  7898 ;; This function calls:
  7899 ;;		Nothing
  7900 ;; This function is called by:
  7901 ;;		_vfpfcnvrt
  7902 ;; This function uses a non-reentrant model
  7903 ;;
  7904                           
  7905                           	psect	text49
  7906   0023CA                     __ptext49:
  7907                           	callstack 0
  7908   0023CA                     _abs:
  7909                           	callstack 17
  7910   0023CA  BE2B               	btfsc	(abs@a+1)^0,7,c
  7911   0023CC  EFEA  F011         	goto	u4021
  7912   0023D0  EFEC  F011         	goto	u4020
  7913   0023D4                     u4021:
  7914   0023D4  EFF2  F011         	goto	l1544
  7915   0023D8                     u4020:
  7916   0023D8  C02A  F02A         	movff	abs@a,?_abs
  7917   0023DC  C02B  F02B         	movff	abs@a+1,?_abs+1
  7918   0023E0  EFFE  F011         	goto	l1547
  7919   0023E4                     l1544:
  7920   0023E4  C02A  F02C         	movff	abs@a,??_abs
  7921   0023E8  C02B  F02D         	movff	abs@a+1,??_abs+1
  7922   0023EC  1E2C               	comf	??_abs^0,f,c
  7923   0023EE  1E2D               	comf	(??_abs+1)^0,f,c
  7924   0023F0  4A2C               	infsnz	??_abs^0,f,c
  7925   0023F2  2A2D               	incf	(??_abs+1)^0,f,c
  7926   0023F4  C02C  F02A         	movff	??_abs,?_abs
  7927   0023F8  C02D  F02B         	movff	??_abs+1,?_abs+1
  7928   0023FC                     l1547:
  7929   0023FC  0012               	return		;funcret
  7930   0023FE                     __end_of_abs:
  7931                           	callstack 0
  7932                           
  7933 ;; *************** function ___awmod *****************
  7934 ;; Defined at:
  7935 ;;		line 7 in file "D:\Program Files\Microchip\xc8\v2.45\pic\sources\c99\common\awmod.c"
  7936 ;; Parameters:    Size  Location     Type
  7937 ;;  dividend        2   35[COMRAM] int 
  7938 ;;  divisor         2   37[COMRAM] int 
  7939 ;; Auto vars:     Size  Location     Type
  7940 ;;  sign            1   40[COMRAM] unsigned char 
  7941 ;;  counter         1   39[COMRAM] unsigned char 
  7942 ;; Return value:  Size  Location     Type
  7943 ;;                  2   35[COMRAM] int 
  7944 ;; Registers used:
  7945 ;;		wreg, status,2, status,0
  7946 ;; Tracked objects:
  7947 ;;		On entry : 0/0
  7948 ;;		On exit  : 0/0
  7949 ;;		Unchanged: 0/0
  7950 ;; Data sizes:     COMRAM   BANK0   BANK1   BANK2   BANK3   BANK4   BANK5   BANK6   BANK7   BANK8   BANK9  BANK10  BANK1
      +1  BANK12  BANK13  BANK14  BANK15
  7951 ;;      Params:         4       0       0       0       0       0       0       0       0       0       0       0       
      +0       0       0       0       0
  7952 ;;      Locals:         2       0       0       0       0       0       0       0       0       0       0       0       
      +0       0       0       0       0
  7953 ;;      Temps:          0       0       0       0       0       0       0       0       0       0       0       0       
      +0       0       0       0       0
  7954 ;;      Totals:         6       0       0       0       0       0       0       0       0       0       0       0       
      +0       0       0       0       0
  7955 ;;Total ram usage:        6 bytes
  7956 ;; Hardware stack levels used: 1
  7957 ;; Hardware stack levels required when called: 8
  7958 ;; This function calls:
  7959 ;;		Nothing
  7960 ;; This function is called by:
  7961 ;;		_vfpfcnvrt
  7962 ;; This function uses a non-reentrant model
  7963 ;;
  7964                           
  7965                           	psect	text50
  7966   001644                     __ptext50:
  7967                           	callstack 0
  7968   001644                     ___awmod:
  7969                           	callstack 17
  7970   001644  0E00               	movlw	0
  7971   001646  6E29               	movwf	___awmod@sign^0,c
  7972   001648  BE25               	btfsc	(___awmod@dividend+1)^0,7,c
  7973   00164A  EF2B  F00B         	goto	u3920
  7974   00164E  EF29  F00B         	goto	u3921
  7975   001652                     u3921:
  7976   001652  EF31  F00B         	goto	l5320
  7977   001656                     u3920:
  7978   001656  6C24               	negf	___awmod@dividend^0,c
  7979   001658  1E25               	comf	(___awmod@dividend+1)^0,f,c
  7980   00165A  B0D8               	btfsc	status,0,c
  7981   00165C  2A25               	incf	(___awmod@dividend+1)^0,f,c
  7982   00165E  0E01               	movlw	1
  7983   001660  6E29               	movwf	___awmod@sign^0,c
  7984   001662                     l5320:
  7985   001662  BE27               	btfsc	(___awmod@divisor+1)^0,7,c
  7986   001664  EF38  F00B         	goto	u3930
  7987   001668  EF36  F00B         	goto	u3931
  7988   00166C                     u3931:
  7989   00166C  EF3C  F00B         	goto	l5324
  7990   001670                     u3930:
  7991   001670  6C26               	negf	___awmod@divisor^0,c
  7992   001672  1E27               	comf	(___awmod@divisor+1)^0,f,c
  7993   001674  B0D8               	btfsc	status,0,c
  7994   001676  2A27               	incf	(___awmod@divisor+1)^0,f,c
  7995   001678                     l5324:
  7996   001678  5026               	movf	___awmod@divisor^0,w,c
  7997   00167A  1027               	iorwf	(___awmod@divisor+1)^0,w,c
  7998   00167C  B4D8               	btfsc	status,2,c
  7999   00167E  EF43  F00B         	goto	u3941
  8000   001682  EF45  F00B         	goto	u3940
  8001   001686                     u3941:
  8002   001686  EF69  F00B         	goto	l5340
  8003   00168A                     u3940:
  8004   00168A  0E01               	movlw	1
  8005   00168C  6E28               	movwf	___awmod@counter^0,c
  8006   00168E  EF4D  F00B         	goto	l5330
  8007   001692                     l5328:
  8008   001692  90D8               	bcf	status,0,c
  8009   001694  3626               	rlcf	___awmod@divisor^0,f,c
  8010   001696  3627               	rlcf	(___awmod@divisor+1)^0,f,c
  8011   001698  2A28               	incf	___awmod@counter^0,f,c
  8012   00169A                     l5330:
  8013   00169A  AE27               	btfss	(___awmod@divisor+1)^0,7,c
  8014   00169C  EF52  F00B         	goto	u3951
  8015   0016A0  EF54  F00B         	goto	u3950
  8016   0016A4                     u3951:
  8017   0016A4  EF49  F00B         	goto	l5328
  8018   0016A8                     u3950:
  8019   0016A8                     l5332:
  8020   0016A8  5026               	movf	___awmod@divisor^0,w,c
  8021   0016AA  5C24               	subwf	___awmod@dividend^0,w,c
  8022   0016AC  5027               	movf	(___awmod@divisor+1)^0,w,c
  8023   0016AE  5825               	subwfb	(___awmod@dividend+1)^0,w,c
  8024   0016B0  A0D8               	btfss	status,0,c
  8025   0016B2  EF5D  F00B         	goto	u3961
  8026   0016B6  EF5F  F00B         	goto	u3960
  8027   0016BA                     u3961:
  8028   0016BA  EF63  F00B         	goto	l5336
  8029   0016BE                     u3960:
  8030   0016BE  5026               	movf	___awmod@divisor^0,w,c
  8031   0016C0  5E24               	subwf	___awmod@dividend^0,f,c
  8032   0016C2  5027               	movf	(___awmod@divisor+1)^0,w,c
  8033   0016C4  5A25               	subwfb	(___awmod@dividend+1)^0,f,c
  8034   0016C6                     l5336:
  8035   0016C6  90D8               	bcf	status,0,c
  8036   0016C8  3227               	rrcf	(___awmod@divisor+1)^0,f,c
  8037   0016CA  3226               	rrcf	___awmod@divisor^0,f,c
  8038   0016CC  2E28               	decfsz	___awmod@counter^0,f,c
  8039   0016CE  EF54  F00B         	goto	l5332
  8040   0016D2                     l5340:
  8041   0016D2  5029               	movf	___awmod@sign^0,w,c
  8042   0016D4  B4D8               	btfsc	status,2,c
  8043   0016D6  EF6F  F00B         	goto	u3971
  8044   0016DA  EF71  F00B         	goto	u3970
  8045   0016DE                     u3971:
  8046   0016DE  EF75  F00B         	goto	l5344
  8047   0016E2                     u3970:
  8048   0016E2  6C24               	negf	___awmod@dividend^0,c
  8049   0016E4  1E25               	comf	(___awmod@dividend+1)^0,f,c
  8050   0016E6  B0D8               	btfsc	status,0,c
  8051   0016E8  2A25               	incf	(___awmod@dividend+1)^0,f,c
  8052   0016EA                     l5344:
  8053   0016EA  C024  F024         	movff	___awmod@dividend,?___awmod
  8054   0016EE  C025  F025         	movff	___awmod@dividend+1,?___awmod+1
  8055   0016F2  0012               	return		;funcret
  8056   0016F4                     __end_of___awmod:
  8057                           	callstack 0
  8058                           
  8059 ;; *************** function ___awdiv *****************
  8060 ;; Defined at:
  8061 ;;		line 7 in file "D:\Program Files\Microchip\xc8\v2.45\pic\sources\c99\common\awdiv.c"
  8062 ;; Parameters:    Size  Location     Type
  8063 ;;  dividend        2   35[COMRAM] int 
  8064 ;;  divisor         2   37[COMRAM] int 
  8065 ;; Auto vars:     Size  Location     Type
  8066 ;;  quotient        2   41[COMRAM] int 
  8067 ;;  sign            1   40[COMRAM] unsigned char 
  8068 ;;  counter         1   39[COMRAM] unsigned char 
  8069 ;; Return value:  Size  Location     Type
  8070 ;;                  2   35[COMRAM] int 
  8071 ;; Registers used:
  8072 ;;		wreg, status,2, status,0
  8073 ;; Tracked objects:
  8074 ;;		On entry : 0/0
  8075 ;;		On exit  : 0/0
  8076 ;;		Unchanged: 0/0
  8077 ;; Data sizes:     COMRAM   BANK0   BANK1   BANK2   BANK3   BANK4   BANK5   BANK6   BANK7   BANK8   BANK9  BANK10  BANK1
      +1  BANK12  BANK13  BANK14  BANK15
  8078 ;;      Params:         4       0       0       0       0       0       0       0       0       0       0       0       
      +0       0       0       0       0
  8079 ;;      Locals:         4       0       0       0       0       0       0       0       0       0       0       0       
      +0       0       0       0       0
  8080 ;;      Temps:          0       0       0       0       0       0       0       0       0       0       0       0       
      +0       0       0       0       0
  8081 ;;      Totals:         8       0       0       0       0       0       0       0       0       0       0       0       
      +0       0       0       0       0
  8082 ;;Total ram usage:        8 bytes
  8083 ;; Hardware stack levels used: 1
  8084 ;; Hardware stack levels required when called: 8
  8085 ;; This function calls:
  8086 ;;		Nothing
  8087 ;; This function is called by:
  8088 ;;		_vfpfcnvrt
  8089 ;; This function uses a non-reentrant model
  8090 ;;
  8091                           
  8092                           	psect	text51
  8093   001580                     __ptext51:
  8094                           	callstack 0
  8095   001580                     ___awdiv:
  8096                           	callstack 17
  8097   001580  0E00               	movlw	0
  8098   001582  6E29               	movwf	___awdiv@sign^0,c
  8099   001584  BE27               	btfsc	(___awdiv@divisor+1)^0,7,c
  8100   001586  EFC9  F00A         	goto	u3860
  8101   00158A  EFC7  F00A         	goto	u3861
  8102   00158E                     u3861:
  8103   00158E  EFCF  F00A         	goto	l5276
  8104   001592                     u3860:
  8105   001592  6C26               	negf	___awdiv@divisor^0,c
  8106   001594  1E27               	comf	(___awdiv@divisor+1)^0,f,c
  8107   001596  B0D8               	btfsc	status,0,c
  8108   001598  2A27               	incf	(___awdiv@divisor+1)^0,f,c
  8109   00159A  0E01               	movlw	1
  8110   00159C  6E29               	movwf	___awdiv@sign^0,c
  8111   00159E                     l5276:
  8112   00159E  BE25               	btfsc	(___awdiv@dividend+1)^0,7,c
  8113   0015A0  EFD6  F00A         	goto	u3870
  8114   0015A4  EFD4  F00A         	goto	u3871
  8115   0015A8                     u3871:
  8116   0015A8  EFDC  F00A         	goto	l5282
  8117   0015AC                     u3870:
  8118   0015AC  6C24               	negf	___awdiv@dividend^0,c
  8119   0015AE  1E25               	comf	(___awdiv@dividend+1)^0,f,c
  8120   0015B0  B0D8               	btfsc	status,0,c
  8121   0015B2  2A25               	incf	(___awdiv@dividend+1)^0,f,c
  8122   0015B4  0E01               	movlw	1
  8123   0015B6  1A29               	xorwf	___awdiv@sign^0,f,c
  8124   0015B8                     l5282:
  8125   0015B8  0E00               	movlw	0
  8126   0015BA  6E2B               	movwf	(___awdiv@quotient+1)^0,c
  8127   0015BC  0E00               	movlw	0
  8128   0015BE  6E2A               	movwf	___awdiv@quotient^0,c
  8129   0015C0  5026               	movf	___awdiv@divisor^0,w,c
  8130   0015C2  1027               	iorwf	(___awdiv@divisor+1)^0,w,c
  8131   0015C4  B4D8               	btfsc	status,2,c
  8132   0015C6  EFE7  F00A         	goto	u3881
  8133   0015CA  EFE9  F00A         	goto	u3880
  8134   0015CE                     u3881:
  8135   0015CE  EF11  F00B         	goto	l5304
  8136   0015D2                     u3880:
  8137   0015D2  0E01               	movlw	1
  8138   0015D4  6E28               	movwf	___awdiv@counter^0,c
  8139   0015D6  EFF1  F00A         	goto	l5290
  8140   0015DA                     l5288:
  8141   0015DA  90D8               	bcf	status,0,c
  8142   0015DC  3626               	rlcf	___awdiv@divisor^0,f,c
  8143   0015DE  3627               	rlcf	(___awdiv@divisor+1)^0,f,c
  8144   0015E0  2A28               	incf	___awdiv@counter^0,f,c
  8145   0015E2                     l5290:
  8146   0015E2  AE27               	btfss	(___awdiv@divisor+1)^0,7,c
  8147   0015E4  EFF6  F00A         	goto	u3891
  8148   0015E8  EFF8  F00A         	goto	u3890
  8149   0015EC                     u3891:
  8150   0015EC  EFED  F00A         	goto	l5288
  8151   0015F0                     u3890:
  8152   0015F0                     l5292:
  8153   0015F0  90D8               	bcf	status,0,c
  8154   0015F2  362A               	rlcf	___awdiv@quotient^0,f,c
  8155   0015F4  362B               	rlcf	(___awdiv@quotient+1)^0,f,c
  8156   0015F6  5026               	movf	___awdiv@divisor^0,w,c
  8157   0015F8  5C24               	subwf	___awdiv@dividend^0,w,c
  8158   0015FA  5027               	movf	(___awdiv@divisor+1)^0,w,c
  8159   0015FC  5825               	subwfb	(___awdiv@dividend+1)^0,w,c
  8160   0015FE  A0D8               	btfss	status,0,c
  8161   001600  EF04  F00B         	goto	u3901
  8162   001604  EF06  F00B         	goto	u3900
  8163   001608                     u3901:
  8164   001608  EF0B  F00B         	goto	l5300
  8165   00160C                     u3900:
  8166   00160C  5026               	movf	___awdiv@divisor^0,w,c
  8167   00160E  5E24               	subwf	___awdiv@dividend^0,f,c
  8168   001610  5027               	movf	(___awdiv@divisor+1)^0,w,c
  8169   001612  5A25               	subwfb	(___awdiv@dividend+1)^0,f,c
  8170   001614  802A               	bsf	___awdiv@quotient^0,0,c
  8171   001616                     l5300:
  8172   001616  90D8               	bcf	status,0,c
  8173   001618  3227               	rrcf	(___awdiv@divisor+1)^0,f,c
  8174   00161A  3226               	rrcf	___awdiv@divisor^0,f,c
  8175   00161C  2E28               	decfsz	___awdiv@counter^0,f,c
  8176   00161E  EFF8  F00A         	goto	l5292
  8177   001622                     l5304:
  8178   001622  5029               	movf	___awdiv@sign^0,w,c
  8179   001624  B4D8               	btfsc	status,2,c
  8180   001626  EF17  F00B         	goto	u3911
  8181   00162A  EF19  F00B         	goto	u3910
  8182   00162E                     u3911:
  8183   00162E  EF1D  F00B         	goto	l5308
  8184   001632                     u3910:
  8185   001632  6C2A               	negf	___awdiv@quotient^0,c
  8186   001634  1E2B               	comf	(___awdiv@quotient+1)^0,f,c
  8187   001636  B0D8               	btfsc	status,0,c
  8188   001638  2A2B               	incf	(___awdiv@quotient+1)^0,f,c
  8189   00163A                     l5308:
  8190   00163A  C02A  F024         	movff	___awdiv@quotient,?___awdiv
  8191   00163E  C02B  F025         	movff	___awdiv@quotient+1,?___awdiv+1
  8192   001642  0012               	return		;funcret
  8193   001644                     __end_of___awdiv:
  8194                           	callstack 0
  8195                           
  8196 ;; *************** function _memset *****************
  8197 ;; Defined at:
  8198 ;;		line 3 in file "D:\Program Files\Microchip\xc8\v2.45\pic\sources\c99\common\memset.c"
  8199 ;; Parameters:    Size  Location     Type
  8200 ;;  dest            1   35[COMRAM] PTR void 
  8201 ;;		 -> display_value(4), 
  8202 ;;  c               2   36[COMRAM] int 
  8203 ;;  n               2   38[COMRAM] unsigned int 
  8204 ;; Auto vars:     Size  Location     Type
  8205 ;;  p               1   40[COMRAM] PTR unsigned char 
  8206 ;;		 -> display_value(4), 
  8207 ;; Return value:  Size  Location     Type
  8208 ;;                  1    wreg      PTR void 
  8209 ;; Registers used:
  8210 ;;		wreg, fsr2l, fsr2h, status,2, status,0
  8211 ;; Tracked objects:
  8212 ;;		On entry : 0/0
  8213 ;;		On exit  : 0/0
  8214 ;;		Unchanged: 0/0
  8215 ;; Data sizes:     COMRAM   BANK0   BANK1   BANK2   BANK3   BANK4   BANK5   BANK6   BANK7   BANK8   BANK9  BANK10  BANK1
      +1  BANK12  BANK13  BANK14  BANK15
  8216 ;;      Params:         5       0       0       0       0       0       0       0       0       0       0       0       
      +0       0       0       0       0
  8217 ;;      Locals:         1       0       0       0       0       0       0       0       0       0       0       0       
      +0       0       0       0       0
  8218 ;;      Temps:          0       0       0       0       0       0       0       0       0       0       0       0       
      +0       0       0       0       0
  8219 ;;      Totals:         6       0       0       0       0       0       0       0       0       0       0       0       
      +0       0       0       0       0
  8220 ;;Total ram usage:        6 bytes
  8221 ;; Hardware stack levels used: 1
  8222 ;; Hardware stack levels required when called: 8
  8223 ;; This function calls:
  8224 ;;		Nothing
  8225 ;; This function is called by:
  8226 ;;		_convert_byte_to_string
  8227 ;;		_convert_short_to_string
  8228 ;;		_convert_int_to_string
  8229 ;; This function uses a non-reentrant model
  8230 ;;
  8231                           
  8232                           	psect	text52
  8233   0023FE                     __ptext52:
  8234                           	callstack 0
  8235   0023FE                     _memset:
  8236                           	callstack 20
  8237   0023FE  C024  F029         	movff	memset@dest,memset@p
  8238   002402  EF09  F012         	goto	l5442
  8239   002406                     l5438:
  8240   002406  5029               	movf	memset@p^0,w,c
  8241   002408  6ED9               	movwf	fsr2l,c
  8242   00240A  6ADA               	clrf	fsr2h,c
  8243   00240C  C025  FFDF         	movff	memset@c,indf2
  8244   002410  2A29               	incf	memset@p^0,f,c
  8245   002412                     l5442:
  8246   002412  0627               	decf	memset@n^0,f,c
  8247   002414  A0D8               	btfss	status,0,c
  8248   002416  0628               	decf	(memset@n+1)^0,f,c
  8249   002418  2827               	incf	memset@n^0,w,c
  8250   00241A  E106               	bnz	u4151
  8251   00241C  2828               	incf	(memset@n+1)^0,w,c
  8252   00241E  A4D8               	btfss	status,2,c
  8253   002420  EF14  F012         	goto	u4151
  8254   002424  EF16  F012         	goto	u4150
  8255   002428                     u4151:
  8256   002428  EF03  F012         	goto	l5438
  8257   00242C                     u4150:
  8258   00242C  0012               	return		;funcret
  8259   00242E                     __end_of_memset:
  8260                           	callstack 0
  8261                           
  8262 ;; *************** function _InterruptManger *****************
  8263 ;; Defined at:
  8264 ;;		line 33 in file "MCAL_LAYER/interrupt/mcal_interrupt_mamager.c"
  8265 ;; Parameters:    Size  Location     Type
  8266 ;;		None
  8267 ;; Auto vars:     Size  Location     Type
  8268 ;;		None
  8269 ;; Return value:  Size  Location     Type
  8270 ;;                  1    wreg      void 
  8271 ;; Registers used:
  8272 ;;		wreg, fsr0l, fsr0h, fsr2l, fsr2h, status,2, status,0, pcl, pclath, pclatu, tosl, tblptrl, tblptrh, tblptru, prodl, p
      +rodh, cstack
  8273 ;; Tracked objects:
  8274 ;;		On entry : 0/0
  8275 ;;		On exit  : 0/0
  8276 ;;		Unchanged: 0/0
  8277 ;; Data sizes:     COMRAM   BANK0   BANK1   BANK2   BANK3   BANK4   BANK5   BANK6   BANK7   BANK8   BANK9  BANK10  BANK1
      +1  BANK12  BANK13  BANK14  BANK15
  8278 ;;      Params:         0       0       0       0       0       0       0       0       0       0       0       0       
      +0       0       0       0       0
  8279 ;;      Locals:         0       0       0       0       0       0       0       0       0       0       0       0       
      +0       0       0       0       0
  8280 ;;      Temps:         12       0       0       0       0       0       0       0       0       0       0       0       
      +0       0       0       0       0
  8281 ;;      Totals:        12       0       0       0       0       0       0       0       0       0       0       0       
      +0       0       0       0       0
  8282 ;;Total ram usage:       12 bytes
  8283 ;; Hardware stack levels used: 1
  8284 ;; Hardware stack levels required when called: 7
  8285 ;; This function calls:
  8286 ;;		_INT0_ISR
  8287 ;;		_INT1_ISR
  8288 ;;		_INT2_ISR
  8289 ;;		_RB4_ISR
  8290 ;; This function is called by:
  8291 ;;		Interrupt level 2
  8292 ;; This function uses a non-reentrant model
  8293 ;;
  8294                           
  8295                           	psect	intcode
  8296   000008                     __pintcode:
  8297                           	callstack 0
  8298   000008                     _InterruptManger:
  8299                           	callstack 16
  8300                           
  8301                           ;incstack = 0
  8302   000008  825C               	bsf	int$flags,1,c	;set compiler interrupt flag (level 2)
  8303   00000A  ED3E  F007         	call	int_func,f	;refresh shadow registers
  8304                           
  8305                           	psect	intcode_body
  8306   000E7C                     __pintcode_body:
  8307                           	callstack 16
  8308   000E7C                     int_func:
  8309                           	callstack 16
  8310   000E7C  0006               	pop		; remove dummy address from shadow register refresh
  8311   000E7E  CFFA F018          	movff	pclath,??_InterruptManger
  8312   000E82  CFFB F019          	movff	pclatu,??_InterruptManger+1
  8313   000E86  CFE9 F01A          	movff	fsr0l,??_InterruptManger+2
  8314   000E8A  CFEA F01B          	movff	fsr0h,??_InterruptManger+3
  8315   000E8E  CFD9 F01C          	movff	fsr2l,??_InterruptManger+4
  8316   000E92  CFDA F01D          	movff	fsr2h,??_InterruptManger+5
  8317   000E96  CFF3 F01E          	movff	prodl,??_InterruptManger+6
  8318   000E9A  CFF4 F01F          	movff	prodh,??_InterruptManger+7
  8319   000E9E  CFF6 F020          	movff	tblptrl,??_InterruptManger+8
  8320   000EA2  CFF7 F021          	movff	tblptrh,??_InterruptManger+9
  8321   000EA6  CFF8 F022          	movff	tblptru,??_InterruptManger+10
  8322   000EAA  CFF5 F023          	movff	tablat,??_InterruptManger+11
  8323   000EAE                     
  8324                           ;MCAL_LAYER/interrupt/mcal_interrupt_mamager.c: 35:     if ((1 == INTCONbits.INT0IE)&&(1
      +                           == INTCONbits.INT0IF)){
  8325   000EAE  A8F2               	btfss	242,4,c	;volatile
  8326   000EB0  EF5C  F007         	goto	i2u371_41
  8327   000EB4  EF5E  F007         	goto	i2u371_40
  8328   000EB8                     i2u371_41:
  8329   000EB8  EF67  F007         	goto	i2l4964
  8330   000EBC                     i2u371_40:
  8331   000EBC  A2F2               	btfss	242,1,c	;volatile
  8332   000EBE  EF63  F007         	goto	i2u372_41
  8333   000EC2  EF65  F007         	goto	i2u372_40
  8334   000EC6                     i2u372_41:
  8335   000EC6  EF67  F007         	goto	i2l4964
  8336   000ECA                     i2u372_40:
  8337   000ECA                     
  8338                           ;MCAL_LAYER/interrupt/mcal_interrupt_mamager.c: 36:         INT0_ISR();
  8339   000ECA  EC74  F012         	call	_INT0_ISR	;wreg free
  8340   000ECE                     i2l4964:
  8341                           
  8342                           ;MCAL_LAYER/interrupt/mcal_interrupt_mamager.c: 38:      if ((1 == INTCON3bits.INT1IE)&&
      +                          (1 == INTCON3bits.INT1IF)){
  8343   000ECE  A6F0               	btfss	240,3,c	;volatile
  8344   000ED0  EF6C  F007         	goto	i2u373_41
  8345   000ED4  EF6E  F007         	goto	i2u373_40
  8346   000ED8                     i2u373_41:
  8347   000ED8  EF77  F007         	goto	i2l4970
  8348   000EDC                     i2u373_40:
  8349   000EDC  A0F0               	btfss	240,0,c	;volatile
  8350   000EDE  EF73  F007         	goto	i2u374_41
  8351   000EE2  EF75  F007         	goto	i2u374_40
  8352   000EE6                     i2u374_41:
  8353   000EE6  EF77  F007         	goto	i2l4970
  8354   000EEA                     i2u374_40:
  8355   000EEA                     
  8356                           ;MCAL_LAYER/interrupt/mcal_interrupt_mamager.c: 39:         INT1_ISR();
  8357   000EEA  EC5D  F012         	call	_INT1_ISR	;wreg free
  8358   000EEE                     i2l4970:
  8359                           
  8360                           ;MCAL_LAYER/interrupt/mcal_interrupt_mamager.c: 41:      if ((1 == INTCON3bits.INT2IE)&&
      +                          (1 == INTCON3bits.INT2IF)){
  8361   000EEE  A8F0               	btfss	240,4,c	;volatile
  8362   000EF0  EF7C  F007         	goto	i2u375_41
  8363   000EF4  EF7E  F007         	goto	i2u375_40
  8364   000EF8                     i2u375_41:
  8365   000EF8  EF87  F007         	goto	i2l4976
  8366   000EFC                     i2u375_40:
  8367   000EFC  A2F0               	btfss	240,1,c	;volatile
  8368   000EFE  EF83  F007         	goto	i2u376_41
  8369   000F02  EF85  F007         	goto	i2u376_40
  8370   000F06                     i2u376_41:
  8371   000F06  EF87  F007         	goto	i2l4976
  8372   000F0A                     i2u376_40:
  8373   000F0A                     
  8374                           ;MCAL_LAYER/interrupt/mcal_interrupt_mamager.c: 42:         INT2_ISR();
  8375   000F0A  EC17  F012         	call	_INT2_ISR	;wreg free
  8376   000F0E                     i2l4976:
  8377                           
  8378                           ;MCAL_LAYER/interrupt/mcal_interrupt_mamager.c: 45:      if ((1 == INTCONbits.RBIE)&&(1 
      +                          == INTCONbits.RBIF)&&(PORTBbits.RB4 == HIGH)){
  8379   000F0E  A6F2               	btfss	242,3,c	;volatile
  8380   000F10  EF8C  F007         	goto	i2u377_41
  8381   000F14  EF8E  F007         	goto	i2u377_40
  8382   000F18                     i2u377_41:
  8383   000F18  EF9E  F007         	goto	i2l4984
  8384   000F1C                     i2u377_40:
  8385   000F1C  A0F2               	btfss	242,0,c	;volatile
  8386   000F1E  EF93  F007         	goto	i2u378_41
  8387   000F22  EF95  F007         	goto	i2u378_40
  8388   000F26                     i2u378_41:
  8389   000F26  EF9E  F007         	goto	i2l4984
  8390   000F2A                     i2u378_40:
  8391   000F2A  A881               	btfss	129,4,c	;volatile
  8392   000F2C  EF9A  F007         	goto	i2u379_41
  8393   000F30  EF9C  F007         	goto	i2u379_40
  8394   000F34                     i2u379_41:
  8395   000F34  EF9E  F007         	goto	i2l4984
  8396   000F38                     i2u379_40:
  8397   000F38                     
  8398                           ;MCAL_LAYER/interrupt/mcal_interrupt_mamager.c: 46:         RB4_ISR();
  8399   000F38  EC46  F013         	call	_RB4_ISR	;wreg free
  8400   000F3C                     i2l4984:
  8401                           
  8402                           ;MCAL_LAYER/interrupt/mcal_interrupt_mamager.c: 49:     if ((1 == INTCONbits.RBIE)&&(1 =
      +                          = INTCONbits.RBIF)&&(PORTBbits.RB4 == LOW)){
  8403   000F3C  A6F2               	btfss	242,3,c	;volatile
  8404   000F3E  EFA3  F007         	goto	i2u380_41
  8405   000F42  EFA5  F007         	goto	i2u380_40
  8406   000F46                     i2u380_41:
  8407   000F46  EFB5  F007         	goto	i2l599
  8408   000F4A                     i2u380_40:
  8409   000F4A  A0F2               	btfss	242,0,c	;volatile
  8410   000F4C  EFAA  F007         	goto	i2u381_41
  8411   000F50  EFAC  F007         	goto	i2u381_40
  8412   000F54                     i2u381_41:
  8413   000F54  EFB5  F007         	goto	i2l599
  8414   000F58                     i2u381_40:
  8415   000F58  B881               	btfsc	129,4,c	;volatile
  8416   000F5A  EFB1  F007         	goto	i2u382_41
  8417   000F5E  EFB3  F007         	goto	i2u382_40
  8418   000F62                     i2u382_41:
  8419   000F62  EFB5  F007         	goto	i2l599
  8420   000F66                     i2u382_40:
  8421   000F66                     
  8422                           ;MCAL_LAYER/interrupt/mcal_interrupt_mamager.c: 50:         RB4_ISR();
  8423   000F66  EC46  F013         	call	_RB4_ISR	;wreg free
  8424   000F6A                     i2l599:
  8425   000F6A  C023  FFF5         	movff	??_InterruptManger+11,tablat
  8426   000F6E  C022  FFF8         	movff	??_InterruptManger+10,tblptru
  8427   000F72  C021  FFF7         	movff	??_InterruptManger+9,tblptrh
  8428   000F76  C020  FFF6         	movff	??_InterruptManger+8,tblptrl
  8429   000F7A  C01F  FFF4         	movff	??_InterruptManger+7,prodh
  8430   000F7E  C01E  FFF3         	movff	??_InterruptManger+6,prodl
  8431   000F82  C01D  FFDA         	movff	??_InterruptManger+5,fsr2h
  8432   000F86  C01C  FFD9         	movff	??_InterruptManger+4,fsr2l
  8433   000F8A  C01B  FFEA         	movff	??_InterruptManger+3,fsr0h
  8434   000F8E  C01A  FFE9         	movff	??_InterruptManger+2,fsr0l
  8435   000F92  C019  FFFB         	movff	??_InterruptManger+1,pclatu
  8436   000F96  C018  FFFA         	movff	??_InterruptManger,pclath
  8437   000F9A  925C               	bcf	int$flags,1,c	;clear compiler interrupt flag (level 2)
  8438   000F9C  0011               	retfie		f
  8439   000F9E                     __end_of_InterruptManger:
  8440                           	callstack 0
  8441                           
  8442 ;; *************** function _RB4_ISR *****************
  8443 ;; Defined at:
  8444 ;;		line 107 in file "MCAL_LAYER/interrupt/mcal_external_interrupt.c"
  8445 ;; Parameters:    Size  Location     Type
  8446 ;;		None
  8447 ;; Auto vars:     Size  Location     Type
  8448 ;;		None
  8449 ;; Return value:  Size  Location     Type
  8450 ;;                  1    wreg      void 
  8451 ;; Registers used:
  8452 ;;		None
  8453 ;; Tracked objects:
  8454 ;;		On entry : 0/0
  8455 ;;		On exit  : 0/0
  8456 ;;		Unchanged: 0/0
  8457 ;; Data sizes:     COMRAM   BANK0   BANK1   BANK2   BANK3   BANK4   BANK5   BANK6   BANK7   BANK8   BANK9  BANK10  BANK1
      +1  BANK12  BANK13  BANK14  BANK15
  8458 ;;      Params:         0       0       0       0       0       0       0       0       0       0       0       0       
      +0       0       0       0       0
  8459 ;;      Locals:         0       0       0       0       0       0       0       0       0       0       0       0       
      +0       0       0       0       0
  8460 ;;      Temps:          0       0       0       0       0       0       0       0       0       0       0       0       
      +0       0       0       0       0
  8461 ;;      Totals:         0       0       0       0       0       0       0       0       0       0       0       0       
      +0       0       0       0       0
  8462 ;;Total ram usage:        0 bytes
  8463 ;; Hardware stack levels used: 1
  8464 ;; This function calls:
  8465 ;;		Nothing
  8466 ;; This function is called by:
  8467 ;;		_InterruptManger
  8468 ;; This function uses a non-reentrant model
  8469 ;;
  8470                           
  8471                           	psect	text54
  8472   00268C                     __ptext54:
  8473                           	callstack 0
  8474   00268C                     _RB4_ISR:
  8475                           	callstack 22
  8476   00268C                     
  8477                           ;MCAL_LAYER/interrupt/mcal_external_interrupt.c: 109:     (INTCONbits.RBIF=0);
  8478   00268C  90F2               	bcf	242,0,c	;volatile
  8479   00268E  0012               	return		;funcret
  8480   002690                     __end_of_RB4_ISR:
  8481                           	callstack 0
  8482                           
  8483 ;; *************** function _INT2_ISR *****************
  8484 ;; Defined at:
  8485 ;;		line 93 in file "MCAL_LAYER/interrupt/mcal_external_interrupt.c"
  8486 ;; Parameters:    Size  Location     Type
  8487 ;;		None
  8488 ;; Auto vars:     Size  Location     Type
  8489 ;;		None
  8490 ;; Return value:  Size  Location     Type
  8491 ;;                  1    wreg      void 
  8492 ;; Registers used:
  8493 ;;		wreg, fsr0l, fsr0h, fsr2l, fsr2h, status,2, status,0, pcl, pclath, pclatu, tosl, tblptrl, tblptrh, tblptru, prodl, p
      +rodh, cstack
  8494 ;; Tracked objects:
  8495 ;;		On entry : 0/0
  8496 ;;		On exit  : 0/0
  8497 ;;		Unchanged: 0/0
  8498 ;; Data sizes:     COMRAM   BANK0   BANK1   BANK2   BANK3   BANK4   BANK5   BANK6   BANK7   BANK8   BANK9  BANK10  BANK1
      +1  BANK12  BANK13  BANK14  BANK15
  8499 ;;      Params:         0       0       0       0       0       0       0       0       0       0       0       0       
      +0       0       0       0       0
  8500 ;;      Locals:         0       0       0       0       0       0       0       0       0       0       0       0       
      +0       0       0       0       0
  8501 ;;      Temps:          0       0       0       0       0       0       0       0       0       0       0       0       
      +0       0       0       0       0
  8502 ;;      Totals:         0       0       0       0       0       0       0       0       0       0       0       0       
      +0       0       0       0       0
  8503 ;;Total ram usage:        0 bytes
  8504 ;; Hardware stack levels used: 1
  8505 ;; Hardware stack levels required when called: 6
  8506 ;; This function calls:
  8507 ;;		NULL
  8508 ;;		_App_ISR
  8509 ;; This function is called by:
  8510 ;;		_InterruptManger
  8511 ;; This function uses a non-reentrant model
  8512 ;;
  8513                           
  8514                           	psect	text55
  8515   00242E                     __ptext55:
  8516                           	callstack 0
  8517   00242E                     _INT2_ISR:
  8518                           	callstack 16
  8519   00242E                     
  8520                           ;MCAL_LAYER/interrupt/mcal_external_interrupt.c: 96:     (INTCON3bits.INT2IF=0);
  8521   00242E  92F0               	bcf	240,1,c	;volatile
  8522   002430                     
  8523                           ;MCAL_LAYER/interrupt/mcal_external_interrupt.c: 101:     if (INT2_InterruptHandler){
  8524   002430  0100               	movlb	0	; () banked
  8525   002432  51B0               	movf	_INT2_InterruptHandler& (0+255),w,b
  8526   002434  11B1               	iorwf	(_INT2_InterruptHandler+1)& (0+255),w,b
  8527   002436  B4D8               	btfsc	status,2,c
  8528   002438  EF20  F012         	goto	i2u323_41
  8529   00243C  EF22  F012         	goto	i2u323_40
  8530   002440                     i2u323_41:
  8531   002440  EF2E  F012         	goto	i2l463
  8532   002444                     i2u323_40:
  8533   002444                     
  8534                           ; BSR set to: 0
  8535                           ;MCAL_LAYER/interrupt/mcal_external_interrupt.c: 102:         INT2_InterruptHandler();
  8536   002444  D802               	call	i2u324_48
  8537   002446  EF2E  F012         	goto	i2u324_49
  8538   00244A                     i2u324_48:
  8539   00244A  0005               	push	
  8540   00244C  6EFA               	movwf	pclath,c
  8541   00244E  51B0               	movf	_INT2_InterruptHandler& (0+255),w,b
  8542   002450  6EFD               	movwf	tosl,c
  8543   002452  51B1               	movf	(_INT2_InterruptHandler+1)& (0+255),w,b
  8544   002454  6EFE               	movwf	tosh,c
  8545   002456  6AFF               	clrf	tosu,c
  8546   002458  50FA               	movf	pclath,w,c
  8547   00245A  0012               	return		;indir
  8548   00245C                     i2u324_49:
  8549   00245C                     i2l463:
  8550   00245C  0012               	return		;funcret
  8551   00245E                     __end_of_INT2_ISR:
  8552                           	callstack 0
  8553                           
  8554 ;; *************** function _INT1_ISR *****************
  8555 ;; Defined at:
  8556 ;;		line 79 in file "MCAL_LAYER/interrupt/mcal_external_interrupt.c"
  8557 ;; Parameters:    Size  Location     Type
  8558 ;;		None
  8559 ;; Auto vars:     Size  Location     Type
  8560 ;;		None
  8561 ;; Return value:  Size  Location     Type
  8562 ;;                  1    wreg      void 
  8563 ;; Registers used:
  8564 ;;		wreg, fsr0l, fsr0h, fsr2l, fsr2h, status,2, status,0, pcl, pclath, pclatu, tosl, tblptrl, tblptrh, tblptru, prodl, p
      +rodh, cstack
  8565 ;; Tracked objects:
  8566 ;;		On entry : 0/0
  8567 ;;		On exit  : 0/0
  8568 ;;		Unchanged: 0/0
  8569 ;; Data sizes:     COMRAM   BANK0   BANK1   BANK2   BANK3   BANK4   BANK5   BANK6   BANK7   BANK8   BANK9  BANK10  BANK1
      +1  BANK12  BANK13  BANK14  BANK15
  8570 ;;      Params:         0       0       0       0       0       0       0       0       0       0       0       0       
      +0       0       0       0       0
  8571 ;;      Locals:         0       0       0       0       0       0       0       0       0       0       0       0       
      +0       0       0       0       0
  8572 ;;      Temps:          0       0       0       0       0       0       0       0       0       0       0       0       
      +0       0       0       0       0
  8573 ;;      Totals:         0       0       0       0       0       0       0       0       0       0       0       0       
      +0       0       0       0       0
  8574 ;;Total ram usage:        0 bytes
  8575 ;; Hardware stack levels used: 1
  8576 ;; Hardware stack levels required when called: 6
  8577 ;; This function calls:
  8578 ;;		NULL
  8579 ;;		_App_ISR
  8580 ;; This function is called by:
  8581 ;;		_InterruptManger
  8582 ;; This function uses a non-reentrant model
  8583 ;;
  8584                           
  8585                           	psect	text56
  8586   0024BA                     __ptext56:
  8587                           	callstack 0
  8588   0024BA                     _INT1_ISR:
  8589                           	callstack 16
  8590   0024BA                     
  8591                           ;MCAL_LAYER/interrupt/mcal_external_interrupt.c: 82:     (INTCON3bits.INT1IF=0);
  8592   0024BA  90F0               	bcf	240,0,c	;volatile
  8593   0024BC                     
  8594                           ;MCAL_LAYER/interrupt/mcal_external_interrupt.c: 87:     if (INT1_InterruptHandler){
  8595   0024BC  503D               	movf	_INT1_InterruptHandler^0,w,c
  8596   0024BE  103E               	iorwf	(_INT1_InterruptHandler+1)^0,w,c
  8597   0024C0  B4D8               	btfsc	status,2,c
  8598   0024C2  EF65  F012         	goto	i2u321_41
  8599   0024C6  EF67  F012         	goto	i2u321_40
  8600   0024CA                     i2u321_41:
  8601   0024CA  EF73  F012         	goto	i2l459
  8602   0024CE                     i2u321_40:
  8603   0024CE                     
  8604                           ;MCAL_LAYER/interrupt/mcal_external_interrupt.c: 88:         INT1_InterruptHandler();
  8605   0024CE  D802               	call	i2u322_48
  8606   0024D0  EF73  F012         	goto	i2u322_49
  8607   0024D4                     i2u322_48:
  8608   0024D4  0005               	push	
  8609   0024D6  6EFA               	movwf	pclath,c
  8610   0024D8  503D               	movf	_INT1_InterruptHandler^0,w,c
  8611   0024DA  6EFD               	movwf	tosl,c
  8612   0024DC  503E               	movf	(_INT1_InterruptHandler+1)^0,w,c
  8613   0024DE  6EFE               	movwf	tosh,c
  8614   0024E0  6AFF               	clrf	tosu,c
  8615   0024E2  50FA               	movf	pclath,w,c
  8616   0024E4  0012               	return		;indir
  8617   0024E6                     i2u322_49:
  8618   0024E6                     i2l459:
  8619   0024E6  0012               	return		;funcret
  8620   0024E8                     __end_of_INT1_ISR:
  8621                           	callstack 0
  8622                           
  8623 ;; *************** function _INT0_ISR *****************
  8624 ;; Defined at:
  8625 ;;		line 65 in file "MCAL_LAYER/interrupt/mcal_external_interrupt.c"
  8626 ;; Parameters:    Size  Location     Type
  8627 ;;		None
  8628 ;; Auto vars:     Size  Location     Type
  8629 ;;		None
  8630 ;; Return value:  Size  Location     Type
  8631 ;;                  1    wreg      void 
  8632 ;; Registers used:
  8633 ;;		wreg, fsr0l, fsr0h, fsr2l, fsr2h, status,2, status,0, pcl, pclath, pclatu, tosl, tblptrl, tblptrh, tblptru, prodl, p
      +rodh, cstack
  8634 ;; Tracked objects:
  8635 ;;		On entry : 0/0
  8636 ;;		On exit  : 0/0
  8637 ;;		Unchanged: 0/0
  8638 ;; Data sizes:     COMRAM   BANK0   BANK1   BANK2   BANK3   BANK4   BANK5   BANK6   BANK7   BANK8   BANK9  BANK10  BANK1
      +1  BANK12  BANK13  BANK14  BANK15
  8639 ;;      Params:         0       0       0       0       0       0       0       0       0       0       0       0       
      +0       0       0       0       0
  8640 ;;      Locals:         0       0       0       0       0       0       0       0       0       0       0       0       
      +0       0       0       0       0
  8641 ;;      Temps:          0       0       0       0       0       0       0       0       0       0       0       0       
      +0       0       0       0       0
  8642 ;;      Totals:         0       0       0       0       0       0       0       0       0       0       0       0       
      +0       0       0       0       0
  8643 ;;Total ram usage:        0 bytes
  8644 ;; Hardware stack levels used: 1
  8645 ;; Hardware stack levels required when called: 6
  8646 ;; This function calls:
  8647 ;;		NULL
  8648 ;;		_App_ISR
  8649 ;; This function is called by:
  8650 ;;		_InterruptManger
  8651 ;; This function uses a non-reentrant model
  8652 ;;
  8653                           
  8654                           	psect	text57
  8655   0024E8                     __ptext57:
  8656                           	callstack 0
  8657   0024E8                     _INT0_ISR:
  8658                           	callstack 16
  8659   0024E8                     
  8660                           ;MCAL_LAYER/interrupt/mcal_external_interrupt.c: 68:     (INTCONbits.INT0IF=0);
  8661   0024E8  92F2               	bcf	242,1,c	;volatile
  8662   0024EA                     
  8663                           ;MCAL_LAYER/interrupt/mcal_external_interrupt.c: 73:     if (INT0_InterruptHandler){
  8664   0024EA  503F               	movf	_INT0_InterruptHandler^0,w,c
  8665   0024EC  1040               	iorwf	(_INT0_InterruptHandler+1)^0,w,c
  8666   0024EE  B4D8               	btfsc	status,2,c
  8667   0024F0  EF7C  F012         	goto	i2u319_41
  8668   0024F4  EF7E  F012         	goto	i2u319_40
  8669   0024F8                     i2u319_41:
  8670   0024F8  EF8A  F012         	goto	i2l455
  8671   0024FC                     i2u319_40:
  8672   0024FC                     
  8673                           ;MCAL_LAYER/interrupt/mcal_external_interrupt.c: 74:         INT0_InterruptHandler();
  8674   0024FC  D802               	call	i2u320_48
  8675   0024FE  EF8A  F012         	goto	i2u320_49
  8676   002502                     i2u320_48:
  8677   002502  0005               	push	
  8678   002504  6EFA               	movwf	pclath,c
  8679   002506  503F               	movf	_INT0_InterruptHandler^0,w,c
  8680   002508  6EFD               	movwf	tosl,c
  8681   00250A  5040               	movf	(_INT0_InterruptHandler+1)^0,w,c
  8682   00250C  6EFE               	movwf	tosh,c
  8683   00250E  6AFF               	clrf	tosu,c
  8684   002510  50FA               	movf	pclath,w,c
  8685   002512  0012               	return		;indir
  8686   002514                     i2u320_49:
  8687   002514                     i2l455:
  8688   002514  0012               	return		;funcret
  8689   002516                     __end_of_INT0_ISR:
  8690                           	callstack 0
  8691                           
  8692 ;; *************** function _App_ISR *****************
  8693 ;; Defined at:
  8694 ;;		line 142 in file "function.c"
  8695 ;; Parameters:    Size  Location     Type
  8696 ;;		None
  8697 ;; Auto vars:     Size  Location     Type
  8698 ;;		None
  8699 ;; Return value:  Size  Location     Type
  8700 ;;                  1    wreg      void 
  8701 ;; Registers used:
  8702 ;;		wreg, fsr0l, fsr0h, fsr2l, fsr2h, status,2, status,0, tblptrl, tblptrh, tblptru, prodl, prodh, cstack
  8703 ;; Tracked objects:
  8704 ;;		On entry : 0/0
  8705 ;;		On exit  : 0/0
  8706 ;;		Unchanged: 0/0
  8707 ;; Data sizes:     COMRAM   BANK0   BANK1   BANK2   BANK3   BANK4   BANK5   BANK6   BANK7   BANK8   BANK9  BANK10  BANK1
      +1  BANK12  BANK13  BANK14  BANK15
  8708 ;;      Params:         0       0       0       0       0       0       0       0       0       0       0       0       
      +0       0       0       0       0
  8709 ;;      Locals:         0       0       0       0       0       0       0       0       0       0       0       0       
      +0       0       0       0       0
  8710 ;;      Temps:          2       0       0       0       0       0       0       0       0       0       0       0       
      +0       0       0       0       0
  8711 ;;      Totals:         2       0       0       0       0       0       0       0       0       0       0       0       
      +0       0       0       0       0
  8712 ;;Total ram usage:        2 bytes
  8713 ;; Hardware stack levels used: 1
  8714 ;; Hardware stack levels required when called: 5
  8715 ;; This function calls:
  8716 ;;		i2_gpio_pin_Write_logic
  8717 ;;		i2_lcd_4bit_send_command
  8718 ;;		i2_lcd_4bit_send_string_pos
  8719 ;;		i2_led_turn_off
  8720 ;;		i2_motor_stop
  8721 ;; This function is called by:
  8722 ;;		_INT0_ISR
  8723 ;;		_INT1_ISR
  8724 ;;		_INT2_ISR
  8725 ;; This function uses a non-reentrant model
  8726 ;;
  8727                           
  8728                           	psect	text58
  8729   001946                     __ptext58:
  8730                           	callstack 0
  8731   001946                     _App_ISR:
  8732                           	callstack 16
  8733   001946                     
  8734                           ;function.c: 143:      lcd_4bit_send_command(&lcd,0X01);
  8735   001946  0E51               	movlw	low _lcd
  8736   001948  6E0A               	movwf	i2lcd_4bit_send_command@lcd^0,c
  8737   00194A  0E01               	movlw	1
  8738   00194C  6E0B               	movwf	i2lcd_4bit_send_command@command^0,c
  8739   00194E  EC5C  F010         	call	i2_lcd_4bit_send_command	;wreg free
  8740   001952                     
  8741                           ;function.c: 144:      lcd_4bit_send_string_pos(&lcd,2,10," Locker Stopped");
  8742   001952  0E51               	movlw	low _lcd
  8743   001954  6E11               	movwf	i2lcd_4bit_send_string_pos@lcd^0,c
  8744   001956  0E02               	movlw	2
  8745   001958  6E12               	movwf	i2lcd_4bit_send_string_pos@row^0,c
  8746   00195A  0E0A               	movlw	10
  8747   00195C  6E13               	movwf	i2lcd_4bit_send_string_pos@column^0,c
  8748   00195E  0E72               	movlw	low STR_25
  8749   001960  6E14               	movwf	i2lcd_4bit_send_string_pos@str^0,c
  8750   001962  0EFF               	movlw	high STR_25
  8751   001964  6E15               	movwf	(i2lcd_4bit_send_string_pos@str+1)^0,c
  8752   001966  ECCA  F011         	call	i2_lcd_4bit_send_string_pos	;wreg free
  8753   00196A                     
  8754                           ;function.c: 145:      lcd_4bit_send_string_pos(&lcd,3,1,"Try after 1 min");
  8755   00196A  0E51               	movlw	low _lcd
  8756   00196C  6E11               	movwf	i2lcd_4bit_send_string_pos@lcd^0,c
  8757   00196E  0E03               	movlw	3
  8758   001970  6E12               	movwf	i2lcd_4bit_send_string_pos@row^0,c
  8759   001972  0E01               	movlw	1
  8760   001974  6E13               	movwf	i2lcd_4bit_send_string_pos@column^0,c
  8761   001976  0EA2               	movlw	low STR_26
  8762   001978  6E14               	movwf	i2lcd_4bit_send_string_pos@str^0,c
  8763   00197A  0EFF               	movlw	high STR_26
  8764   00197C  6E15               	movwf	(i2lcd_4bit_send_string_pos@str+1)^0,c
  8765   00197E  ECCA  F011         	call	i2_lcd_4bit_send_string_pos	;wreg free
  8766   001982                     
  8767                           ;function.c: 146:      safe_flag=0;
  8768   001982  0E00               	movlw	0
  8769   001984  6E42               	movwf	_safe_flag^0,c
  8770   001986                     
  8771                           ;function.c: 147:       motor_stop(&motor);
  8772   001986  0E57               	movlw	low _motor
  8773   001988  6E08               	movwf	i2motor_stop@motor^0,c
  8774   00198A  EC8B  F012         	call	i2_motor_stop	;wreg free
  8775   00198E                     
  8776                           ;function.c: 148:       led_turn_off(&green_led);
  8777   00198E  0E5A               	movlw	low _green_led
  8778   001990  6E08               	movwf	i2led_turn_off@led^0,c
  8779   001992  EC3B  F00E         	call	i2_led_turn_off	;wreg free
  8780   001996                     
  8781                           ;function.c: 149:       led_turn_off(&red_led);
  8782   001996  0E59               	movlw	low _red_led
  8783   001998  6E08               	movwf	i2led_turn_off@led^0,c
  8784   00199A  EC3B  F00E         	call	i2_led_turn_off	;wreg free
  8785   00199E                     
  8786                           ;function.c: 150:      gpio_pin_Write_logic(&buzzer,LOW);
  8787   00199E  0E5B               	movlw	low _buzzer
  8788   0019A0  6E01               	movwf	i2gpio_pin_Write_logic@_pin_config^0,c
  8789   0019A2  0E00               	movlw	0
  8790   0019A4  6E02               	movwf	i2gpio_pin_Write_logic@logic^0,c
  8791   0019A6  ECE0  F008         	call	i2_gpio_pin_Write_logic	;wreg free
  8792   0019AA                     
  8793                           ;function.c: 151:      _delay((unsigned long)((5000)*(8000000UL/4000.0)));
  8794   0019AA  0E33               	movlw	51
  8795   0019AC  6E17               	movwf	(??_App_ISR+1)^0,c
  8796   0019AE  0EBB               	movlw	187
  8797   0019B0  6E16               	movwf	??_App_ISR^0,c
  8798   0019B2  0EE0               	movlw	224
  8799   0019B4                     i2u464_47:
  8800   0019B4  2EE8               	decfsz	wreg,f,c
  8801   0019B6  D7FE               	bra	i2u464_47
  8802   0019B8  2E16               	decfsz	??_App_ISR^0,f,c
  8803   0019BA  D7FC               	bra	i2u464_47
  8804   0019BC  2E17               	decfsz	(??_App_ISR+1)^0,f,c
  8805   0019BE  D7FA               	bra	i2u464_47
  8806   0019C0                     
  8807                           ;function.c: 152:      lcd_4bit_send_command(&lcd,0X01);
  8808   0019C0  0E51               	movlw	low _lcd
  8809   0019C2  6E0A               	movwf	i2lcd_4bit_send_command@lcd^0,c
  8810   0019C4  0E01               	movlw	1
  8811   0019C6  6E0B               	movwf	i2lcd_4bit_send_command@command^0,c
  8812   0019C8  EC5C  F010         	call	i2_lcd_4bit_send_command	;wreg free
  8813   0019CC  0012               	return		;funcret
  8814   0019CE                     __end_of_App_ISR:
  8815                           	callstack 0
  8816                           
  8817 ;; *************** function i2_motor_stop *****************
  8818 ;; Defined at:
  8819 ;;		line 68 in file "ECU_LAYER/DC_MOTOR/ecu_dc_motor.c"
  8820 ;; Parameters:    Size  Location     Type
  8821 ;;  motor           1    7[COMRAM] PTR const struct .
  8822 ;;		 -> motor(2), 
  8823 ;; Auto vars:     Size  Location     Type
  8824 ;;  ret             1    0        unsigned char 
  8825 ;; Return value:  Size  Location     Type
  8826 ;;                  1    wreg      unsigned char 
  8827 ;; Registers used:
  8828 ;;		wreg, fsr2l, fsr2h, status,2, status,0, prodl, prodh, cstack
  8829 ;; Tracked objects:
  8830 ;;		On entry : 0/0
  8831 ;;		On exit  : 0/0
  8832 ;;		Unchanged: 0/0
  8833 ;; Data sizes:     COMRAM   BANK0   BANK1   BANK2   BANK3   BANK4   BANK5   BANK6   BANK7   BANK8   BANK9  BANK10  BANK1
      +1  BANK12  BANK13  BANK14  BANK15
  8834 ;;      Params:         1       0       0       0       0       0       0       0       0       0       0       0       
      +0       0       0       0       0
  8835 ;;      Locals:         0       0       0       0       0       0       0       0       0       0       0       0       
      +0       0       0       0       0
  8836 ;;      Temps:          0       0       0       0       0       0       0       0       0       0       0       0       
      +0       0       0       0       0
  8837 ;;      Totals:         1       0       0       0       0       0       0       0       0       0       0       0       
      +0       0       0       0       0
  8838 ;;Total ram usage:        1 bytes
  8839 ;; Hardware stack levels used: 1
  8840 ;; Hardware stack levels required when called: 1
  8841 ;; This function calls:
  8842 ;;		i2_gpio_pin_Write_logic
  8843 ;; This function is called by:
  8844 ;;		_App_ISR
  8845 ;; This function uses a non-reentrant model
  8846 ;;
  8847                           
  8848                           	psect	text59
  8849   002516                     __ptext59:
  8850                           	callstack 0
  8851   002516                     i2_motor_stop:
  8852                           	callstack 19
  8853   002516                     
  8854                           ;ECU_LAYER/DC_MOTOR/ecu_dc_motor.c: 71:     if (((void*)0) == motor){
  8855   002516  5008               	movf	i2motor_stop@motor^0,w,c
  8856   002518  A4D8               	btfss	status,2,c
  8857   00251A  EF91  F012         	goto	i2u286_41
  8858   00251E  EF93  F012         	goto	i2u286_40
  8859   002522                     i2u286_41:
  8860   002522  EF95  F012         	goto	i2l4008
  8861   002526                     i2u286_40:
  8862   002526                     
  8863                           ;ECU_LAYER/DC_MOTOR/ecu_dc_motor.c: 73:     }
  8864   002526  EFA1  F012         	goto	i2l48
  8865   00252A                     i2l4008:
  8866                           
  8867                           ;ECU_LAYER/DC_MOTOR/ecu_dc_motor.c: 75:             gpio_pin_Write_logic(&(motor->motor_
      +                          config[0]),LOW);
  8868   00252A  C008  F001         	movff	i2motor_stop@motor,i2gpio_pin_Write_logic@_pin_config
  8869   00252E  0E00               	movlw	0
  8870   002530  6E02               	movwf	i2gpio_pin_Write_logic@logic^0,c
  8871   002532  ECE0  F008         	call	i2_gpio_pin_Write_logic	;wreg free
  8872                           
  8873                           ;ECU_LAYER/DC_MOTOR/ecu_dc_motor.c: 76:              gpio_pin_Write_logic(&(motor->motor
      +                          _config[1]),LOW);
  8874   002536  2808               	incf	i2motor_stop@motor^0,w,c
  8875   002538  6E01               	movwf	i2gpio_pin_Write_logic@_pin_config^0,c
  8876   00253A  0E00               	movlw	0
  8877   00253C  6E02               	movwf	i2gpio_pin_Write_logic@logic^0,c
  8878   00253E  ECE0  F008         	call	i2_gpio_pin_Write_logic	;wreg free
  8879   002542                     i2l48:
  8880   002542  0012               	return		;funcret
  8881   002544                     __end_ofi2_motor_stop:
  8882                           	callstack 0
  8883                           
  8884 ;; *************** function i2_led_turn_off *****************
  8885 ;; Defined at:
  8886 ;;		line 57 in file "ECU_LAYER/LED/ecu_led.c"
  8887 ;; Parameters:    Size  Location     Type
  8888 ;;  led             1    7[COMRAM] PTR const struct .
  8889 ;;		 -> red_led(1), green_led(1), 
  8890 ;; Auto vars:     Size  Location     Type
  8891 ;;  pin_obj         1    9[COMRAM] struct .
  8892 ;;  ret             1    0        unsigned char 
  8893 ;; Return value:  Size  Location     Type
  8894 ;;                  1    wreg      unsigned char 
  8895 ;; Registers used:
  8896 ;;		wreg, fsr2l, fsr2h, status,2, status,0, prodl, prodh, cstack
  8897 ;; Tracked objects:
  8898 ;;		On entry : 0/0
  8899 ;;		On exit  : 0/0
  8900 ;;		Unchanged: 0/0
  8901 ;; Data sizes:     COMRAM   BANK0   BANK1   BANK2   BANK3   BANK4   BANK5   BANK6   BANK7   BANK8   BANK9  BANK10  BANK1
      +1  BANK12  BANK13  BANK14  BANK15
  8902 ;;      Params:         1       0       0       0       0       0       0       0       0       0       0       0       
      +0       0       0       0       0
  8903 ;;      Locals:         1       0       0       0       0       0       0       0       0       0       0       0       
      +0       0       0       0       0
  8904 ;;      Temps:          1       0       0       0       0       0       0       0       0       0       0       0       
      +0       0       0       0       0
  8905 ;;      Totals:         3       0       0       0       0       0       0       0       0       0       0       0       
      +0       0       0       0       0
  8906 ;;Total ram usage:        3 bytes
  8907 ;; Hardware stack levels used: 1
  8908 ;; Hardware stack levels required when called: 1
  8909 ;; This function calls:
  8910 ;;		i2_gpio_pin_Write_logic
  8911 ;; This function is called by:
  8912 ;;		_App_ISR
  8913 ;; This function uses a non-reentrant model
  8914 ;;
  8915                           
  8916                           	psect	text60
  8917   001C76                     __ptext60:
  8918                           	callstack 0
  8919   001C76                     i2_led_turn_off:
  8920                           	callstack 19
  8921   001C76                     
  8922                           ;ECU_LAYER/LED/ecu_led.c: 60:     if (((void*)0) == led){
  8923   001C76  5008               	movf	i2led_turn_off@led^0,w,c
  8924   001C78  A4D8               	btfss	status,2,c
  8925   001C7A  EF41  F00E         	goto	i2u288_41
  8926   001C7E  EF43  F00E         	goto	i2u288_40
  8927   001C82                     i2u288_41:
  8928   001C82  EF45  F00E         	goto	i2l261
  8929   001C86                     i2u288_40:
  8930   001C86                     
  8931                           ;ECU_LAYER/LED/ecu_led.c: 62:     }
  8932   001C86  EF6F  F00E         	goto	i2l265
  8933   001C8A                     i2l261:
  8934                           
  8935                           ;ECU_LAYER/LED/ecu_led.c: 65:          pin_config_t pin_obj={
  8936   001C8A  C048  F00A         	movff	led_turn_off@F3070,i2led_turn_off@pin_obj
  8937   001C8E  5008               	movf	i2led_turn_off@led^0,w,c
  8938   001C90  6ED9               	movwf	fsr2l,c
  8939   001C92  6ADA               	clrf	fsr2h,c
  8940   001C94  50DF               	movf	223,w,c
  8941   001C96  0B0F               	andlw	15
  8942   001C98  6E09               	movwf	??i2_led_turn_off^0,c
  8943   001C9A  500A               	movf	i2led_turn_off@pin_obj^0,w,c
  8944   001C9C  1809               	xorwf	??i2_led_turn_off^0,w,c
  8945   001C9E  0BF8               	andlw	-8
  8946   001CA0  1809               	xorwf	??i2_led_turn_off^0,w,c
  8947   001CA2  6E0A               	movwf	i2led_turn_off@pin_obj^0,c
  8948   001CA4  5008               	movf	i2led_turn_off@led^0,w,c
  8949   001CA6  6ED9               	movwf	fsr2l,c
  8950   001CA8  6ADA               	clrf	fsr2h,c
  8951   001CAA  38DF               	swapf	223,w,c
  8952   001CAC  0B07               	andlw	7
  8953   001CAE  6E09               	movwf	??i2_led_turn_off^0,c
  8954   001CB0  4609               	rlncf	??i2_led_turn_off^0,f,c
  8955   001CB2  4609               	rlncf	??i2_led_turn_off^0,f,c
  8956   001CB4  4609               	rlncf	??i2_led_turn_off^0,f,c
  8957   001CB6  500A               	movf	i2led_turn_off@pin_obj^0,w,c
  8958   001CB8  1809               	xorwf	??i2_led_turn_off^0,w,c
  8959   001CBA  0BC7               	andlw	-57
  8960   001CBC  1809               	xorwf	??i2_led_turn_off^0,w,c
  8961   001CBE  6E0A               	movwf	i2led_turn_off@pin_obj^0,c
  8962   001CC0  9C0A               	bcf	i2led_turn_off@pin_obj^0,6,c
  8963   001CC2  5008               	movf	i2led_turn_off@led^0,w,c
  8964   001CC4  6ED9               	movwf	fsr2l,c
  8965   001CC6  6ADA               	clrf	fsr2h,c
  8966   001CC8  AEDF               	btfss	indf2,7,c
  8967   001CCA  D002               	bra	i2u289_45
  8968   001CCC  8E0A               	bsf	i2led_turn_off@pin_obj^0,7,c
  8969   001CCE  D001               	bra	i2u289_47
  8970   001CD0                     i2u289_45:
  8971   001CD0  9E0A               	bcf	i2led_turn_off@pin_obj^0,7,c
  8972   001CD2                     i2u289_47:
  8973   001CD2                     
  8974                           ;ECU_LAYER/LED/ecu_led.c: 73:         gpio_pin_Write_logic(&pin_obj,LOW);
  8975   001CD2  0E0A               	movlw	low i2led_turn_off@pin_obj
  8976   001CD4  6E01               	movwf	i2gpio_pin_Write_logic@_pin_config^0,c
  8977   001CD6  0E00               	movlw	0
  8978   001CD8  6E02               	movwf	i2gpio_pin_Write_logic@logic^0,c
  8979   001CDA  ECE0  F008         	call	i2_gpio_pin_Write_logic	;wreg free
  8980   001CDE                     i2l265:
  8981   001CDE  0012               	return		;funcret
  8982   001CE0                     __end_ofi2_led_turn_off:
  8983                           	callstack 0
  8984                           
  8985 ;; *************** function i2_lcd_4bit_send_string_pos *****************
  8986 ;; Defined at:
  8987 ;;		line 122 in file "ECU_LAYER/LCD/ecu_lcd.c"
  8988 ;; Parameters:    Size  Location     Type
  8989 ;;  lcd             1   16[COMRAM] PTR const struct .
  8990 ;;		 -> lcd(6), 
  8991 ;;  row             1   17[COMRAM] unsigned char 
  8992 ;;  column          1   18[COMRAM] unsigned char 
  8993 ;;  str             2   19[COMRAM] PTR unsigned char 
  8994 ;;		 -> STR_36(18), STR_35(16), STR_34(14), STR_33(18), 
  8995 ;;		 -> STR_32(18), STR_31(18), STR_30(18), STR_29(16), 
  8996 ;;		 -> STR_28(14), STR_27(14), STR_26(16), STR_25(16), 
  8997 ;;		 -> STR_24(2), STR_23(6), STR_22(16), STR_21(2), 
  8998 ;;		 -> STR_20(6), STR_19(20), STR_18(2), STR_17(6), 
  8999 ;;		 -> STR_16(20), STR_15(2), STR_14(6), STR_13(18), 
  9000 ;;		 -> STR_12(2), display_value(4), STR_11(6), STR_10(20), 
  9001 ;;		 -> STR_9(8), STR_8(16), STR_7(14), STR_6(20), 
  9002 ;;		 -> STR_5(18), STR_4(22), 
  9003 ;; Auto vars:     Size  Location     Type
  9004 ;;  ret             1    0        unsigned char 
  9005 ;; Return value:  Size  Location     Type
  9006 ;;                  1    wreg      unsigned char 
  9007 ;; Registers used:
  9008 ;;		wreg, fsr0l, fsr0h, fsr2l, fsr2h, status,2, status,0, tblptrl, tblptrh, tblptru, prodl, prodh, cstack
  9009 ;; Tracked objects:
  9010 ;;		On entry : 0/0
  9011 ;;		On exit  : 0/0
  9012 ;;		Unchanged: 0/0
  9013 ;; Data sizes:     COMRAM   BANK0   BANK1   BANK2   BANK3   BANK4   BANK5   BANK6   BANK7   BANK8   BANK9  BANK10  BANK1
      +1  BANK12  BANK13  BANK14  BANK15
  9014 ;;      Params:         5       0       0       0       0       0       0       0       0       0       0       0       
      +0       0       0       0       0
  9015 ;;      Locals:         0       0       0       0       0       0       0       0       0       0       0       0       
      +0       0       0       0       0
  9016 ;;      Temps:          0       0       0       0       0       0       0       0       0       0       0       0       
      +0       0       0       0       0
  9017 ;;      Totals:         5       0       0       0       0       0       0       0       0       0       0       0       
      +0       0       0       0       0
  9018 ;;Total ram usage:        5 bytes
  9019 ;; Hardware stack levels used: 1
  9020 ;; Hardware stack levels required when called: 4
  9021 ;; This function calls:
  9022 ;;		i2_lcd_4bit_send_string
  9023 ;;		i2_set_cursor_4bit
  9024 ;; This function is called by:
  9025 ;;		_App_ISR
  9026 ;; This function uses a non-reentrant model
  9027 ;;
  9028                           
  9029                           	psect	text61
  9030   002394                     __ptext61:
  9031                           	callstack 0
  9032   002394                     i2_lcd_4bit_send_string_pos:
  9033                           	callstack 16
  9034   002394                     
  9035                           ;ECU_LAYER/LCD/ecu_lcd.c: 126:     if (((void*)0) == lcd ){
  9036   002394  5011               	movf	i2lcd_4bit_send_string_pos@lcd^0,w,c
  9037   002396  A4D8               	btfss	status,2,c
  9038   002398  EFD0  F011         	goto	i2u287_41
  9039   00239C  EFD2  F011         	goto	i2u287_40
  9040   0023A0                     i2u287_41:
  9041   0023A0  EFD4  F011         	goto	i2l4016
  9042   0023A4                     i2u287_40:
  9043   0023A4                     
  9044                           ;ECU_LAYER/LCD/ecu_lcd.c: 128:     }
  9045   0023A4  EFE4  F011         	goto	i2l141
  9046   0023A8                     i2l4016:
  9047                           
  9048                           ;ECU_LAYER/LCD/ecu_lcd.c: 130:         set_cursor_4bit(lcd,row,column);
  9049   0023A8  C011  F00C         	movff	i2lcd_4bit_send_string_pos@lcd,i2set_cursor_4bit@lcd
  9050   0023AC  C012  F00D         	movff	i2lcd_4bit_send_string_pos@row,i2set_cursor_4bit@row
  9051   0023B0  C013  F00E         	movff	i2lcd_4bit_send_string_pos@column,i2set_cursor_4bit@column
  9052   0023B4  EC5E  F00C         	call	i2_set_cursor_4bit	;wreg free
  9053   0023B8                     
  9054                           ;ECU_LAYER/LCD/ecu_lcd.c: 131:         lcd_4bit_send_string(lcd,str);
  9055   0023B8  C011  F00C         	movff	i2lcd_4bit_send_string_pos@lcd,i2lcd_4bit_send_string@lcd
  9056   0023BC  C014  F00D         	movff	i2lcd_4bit_send_string_pos@str,i2lcd_4bit_send_string@str
  9057   0023C0  C015  F00E         	movff	i2lcd_4bit_send_string_pos@str+1,i2lcd_4bit_send_string@str+1
  9058   0023C4  EC23  F00D         	call	i2_lcd_4bit_send_string	;wreg free
  9059   0023C8                     i2l141:
  9060   0023C8  0012               	return		;funcret
  9061   0023CA                     __end_ofi2_lcd_4bit_send_string_pos:
  9062                           	callstack 0
  9063                           
  9064 ;; *************** function i2_set_cursor_4bit *****************
  9065 ;; Defined at:
  9066 ;;		line 430 in file "ECU_LAYER/LCD/ecu_lcd.c"
  9067 ;; Parameters:    Size  Location     Type
  9068 ;;  lcd             1   11[COMRAM] PTR const struct .
  9069 ;;		 -> lcd(6), 
  9070 ;;  row             1   12[COMRAM] unsigned char 
  9071 ;;  column          1   13[COMRAM] unsigned char 
  9072 ;; Auto vars:     Size  Location     Type
  9073 ;;		None
  9074 ;; Return value:  Size  Location     Type
  9075 ;;                  1    wreg      void 
  9076 ;; Registers used:
  9077 ;;		wreg, fsr2l, fsr2h, status,2, status,0, prodl, prodh, cstack
  9078 ;; Tracked objects:
  9079 ;;		On entry : 0/0
  9080 ;;		On exit  : 0/0
  9081 ;;		Unchanged: 0/0
  9082 ;; Data sizes:     COMRAM   BANK0   BANK1   BANK2   BANK3   BANK4   BANK5   BANK6   BANK7   BANK8   BANK9  BANK10  BANK1
      +1  BANK12  BANK13  BANK14  BANK15
  9083 ;;      Params:         3       0       0       0       0       0       0       0       0       0       0       0       
      +0       0       0       0       0
  9084 ;;      Locals:         0       0       0       0       0       0       0       0       0       0       0       0       
      +0       0       0       0       0
  9085 ;;      Temps:          2       0       0       0       0       0       0       0       0       0       0       0       
      +0       0       0       0       0
  9086 ;;      Totals:         5       0       0       0       0       0       0       0       0       0       0       0       
      +0       0       0       0       0
  9087 ;;Total ram usage:        5 bytes
  9088 ;; Hardware stack levels used: 1
  9089 ;; Hardware stack levels required when called: 3
  9090 ;; This function calls:
  9091 ;;		i2_lcd_4bit_send_command
  9092 ;; This function is called by:
  9093 ;;		i2_lcd_4bit_send_string_pos
  9094 ;; This function uses a non-reentrant model
  9095 ;;
  9096                           
  9097                           	psect	text62
  9098   0018BC                     __ptext62:
  9099                           	callstack 0
  9100   0018BC                     i2_set_cursor_4bit:
  9101                           	callstack 16
  9102   0018BC                     
  9103                           ;ECU_LAYER/LCD/ecu_lcd.c: 431:     column--;
  9104   0018BC  060E               	decf	i2set_cursor_4bit@column^0,f,c
  9105                           
  9106                           ;ECU_LAYER/LCD/ecu_lcd.c: 432:     switch (row){
  9107   0018BE  EF85  F00C         	goto	i2l3680
  9108   0018C2                     i2l3672:
  9109   0018C2  C00C  F00A         	movff	i2set_cursor_4bit@lcd,i2lcd_4bit_send_command@lcd
  9110   0018C6  500E               	movf	i2set_cursor_4bit@column^0,w,c
  9111   0018C8  0F80               	addlw	128
  9112   0018CA  6E0B               	movwf	i2lcd_4bit_send_command@command^0,c
  9113   0018CC  EC5C  F010         	call	i2_lcd_4bit_send_command	;wreg free
  9114   0018D0  EFA2  F00C         	goto	i2l238
  9115   0018D4                     i2l3674:
  9116   0018D4  C00C  F00A         	movff	i2set_cursor_4bit@lcd,i2lcd_4bit_send_command@lcd
  9117   0018D8  500E               	movf	i2set_cursor_4bit@column^0,w,c
  9118   0018DA  0FC0               	addlw	192
  9119   0018DC  6E0B               	movwf	i2lcd_4bit_send_command@command^0,c
  9120   0018DE  EC5C  F010         	call	i2_lcd_4bit_send_command	;wreg free
  9121   0018E2  EFA2  F00C         	goto	i2l238
  9122   0018E6                     i2l3676:
  9123   0018E6  C00C  F00A         	movff	i2set_cursor_4bit@lcd,i2lcd_4bit_send_command@lcd
  9124   0018EA  500E               	movf	i2set_cursor_4bit@column^0,w,c
  9125   0018EC  0F94               	addlw	148
  9126   0018EE  6E0B               	movwf	i2lcd_4bit_send_command@command^0,c
  9127   0018F0  EC5C  F010         	call	i2_lcd_4bit_send_command	;wreg free
  9128   0018F4  EFA2  F00C         	goto	i2l238
  9129   0018F8                     i2l3678:
  9130   0018F8  C00C  F00A         	movff	i2set_cursor_4bit@lcd,i2lcd_4bit_send_command@lcd
  9131   0018FC  500E               	movf	i2set_cursor_4bit@column^0,w,c
  9132   0018FE  0FD4               	addlw	212
  9133   001900  6E0B               	movwf	i2lcd_4bit_send_command@command^0,c
  9134   001902  EC5C  F010         	call	i2_lcd_4bit_send_command	;wreg free
  9135   001906  EFA2  F00C         	goto	i2l238
  9136   00190A                     i2l3680:
  9137   00190A  500D               	movf	i2set_cursor_4bit@row^0,w,c
  9138   00190C  6E0F               	movwf	??i2_set_cursor_4bit^0,c
  9139   00190E  6A10               	clrf	(??i2_set_cursor_4bit+1)^0,c
  9140                           
  9141                           ; Switch on 2 bytes has been partitioned into a top level switch of size 1, and 1 sub-sw
      +                          itches
  9142                           ; Switch size 1, requested type "simple"
  9143                           ; Number of cases is 1, Range of values is 0 to 0
  9144                           ; switch strategies available:
  9145                           ; Name         Instructions Cycles
  9146                           ; simple_byte            4     3 (average)
  9147                           ;	Chosen strategy is simple_byte
  9148   001910  5010               	movf	(??i2_set_cursor_4bit+1)^0,w,c
  9149   001912  0A00               	xorlw	0	; case 0
  9150   001914  B4D8               	btfsc	status,2,c
  9151   001916  EF8F  F00C         	goto	i2l6090
  9152   00191A  EFA2  F00C         	goto	i2l238
  9153   00191E                     i2l6090:
  9154                           
  9155                           ; Switch size 1, requested type "simple"
  9156                           ; Number of cases is 4, Range of values is 1 to 4
  9157                           ; switch strategies available:
  9158                           ; Name         Instructions Cycles
  9159                           ; simple_byte           13     7 (average)
  9160                           ;	Chosen strategy is simple_byte
  9161   00191E  500F               	movf	??i2_set_cursor_4bit^0,w,c
  9162   001920  0A01               	xorlw	1	; case 1
  9163   001922  B4D8               	btfsc	status,2,c
  9164   001924  EF61  F00C         	goto	i2l3672
  9165   001928  0A03               	xorlw	3	; case 2
  9166   00192A  B4D8               	btfsc	status,2,c
  9167   00192C  EF6A  F00C         	goto	i2l3674
  9168   001930  0A01               	xorlw	1	; case 3
  9169   001932  B4D8               	btfsc	status,2,c
  9170   001934  EF73  F00C         	goto	i2l3676
  9171   001938  0A07               	xorlw	7	; case 4
  9172   00193A  B4D8               	btfsc	status,2,c
  9173   00193C  EF7C  F00C         	goto	i2l3678
  9174   001940  EFA2  F00C         	goto	i2l238
  9175   001944                     i2l238:
  9176   001944  0012               	return		;funcret
  9177   001946                     __end_ofi2_set_cursor_4bit:
  9178                           	callstack 0
  9179                           
  9180 ;; *************** function i2_lcd_4bit_send_command *****************
  9181 ;; Defined at:
  9182 ;;		line 52 in file "ECU_LAYER/LCD/ecu_lcd.c"
  9183 ;; Parameters:    Size  Location     Type
  9184 ;;  lcd             1    9[COMRAM] PTR const struct .
  9185 ;;		 -> lcd(6), 
  9186 ;;  command         1   10[COMRAM] unsigned char 
  9187 ;; Auto vars:     Size  Location     Type
  9188 ;;  ret             1    0        unsigned char 
  9189 ;; Return value:  Size  Location     Type
  9190 ;;                  1    wreg      unsigned char 
  9191 ;; Registers used:
  9192 ;;		wreg, fsr2l, fsr2h, status,2, status,0, prodl, prodh, cstack
  9193 ;; Tracked objects:
  9194 ;;		On entry : 0/0
  9195 ;;		On exit  : 0/0
  9196 ;;		Unchanged: 0/0
  9197 ;; Data sizes:     COMRAM   BANK0   BANK1   BANK2   BANK3   BANK4   BANK5   BANK6   BANK7   BANK8   BANK9  BANK10  BANK1
      +1  BANK12  BANK13  BANK14  BANK15
  9198 ;;      Params:         2       0       0       0       0       0       0       0       0       0       0       0       
      +0       0       0       0       0
  9199 ;;      Locals:         0       0       0       0       0       0       0       0       0       0       0       0       
      +0       0       0       0       0
  9200 ;;      Temps:          0       0       0       0       0       0       0       0       0       0       0       0       
      +0       0       0       0       0
  9201 ;;      Totals:         2       0       0       0       0       0       0       0       0       0       0       0       
      +0       0       0       0       0
  9202 ;;Total ram usage:        2 bytes
  9203 ;; Hardware stack levels used: 1
  9204 ;; Hardware stack levels required when called: 2
  9205 ;; This function calls:
  9206 ;;		i2_gpio_pin_Write_logic
  9207 ;;		i2_send_4bit
  9208 ;;		i2_send_4bit_enable_signal
  9209 ;; This function is called by:
  9210 ;;		_App_ISR
  9211 ;;		i2_set_cursor_4bit
  9212 ;; This function uses a non-reentrant model
  9213 ;;
  9214                           
  9215                           	psect	text63
  9216   0020B8                     __ptext63:
  9217                           	callstack 0
  9218   0020B8                     i2_lcd_4bit_send_command:
  9219                           	callstack 16
  9220   0020B8                     
  9221                           ;ECU_LAYER/LCD/ecu_lcd.c: 57:     if (((void*)0) == lcd ){
  9222   0020B8  500A               	movf	i2lcd_4bit_send_command@lcd^0,w,c
  9223   0020BA  A4D8               	btfss	status,2,c
  9224   0020BC  EF62  F010         	goto	i2u231_41
  9225   0020C0  EF64  F010         	goto	i2u231_40
  9226   0020C4                     i2u231_41:
  9227   0020C4  EF66  F010         	goto	i2l3554
  9228   0020C8                     i2u231_40:
  9229   0020C8                     
  9230                           ;ECU_LAYER/LCD/ecu_lcd.c: 59:     }
  9231   0020C8  EF81  F010         	goto	i2l118
  9232   0020CC                     i2l3554:
  9233                           
  9234                           ;ECU_LAYER/LCD/ecu_lcd.c: 61:         gpio_pin_Write_logic(&(lcd->lcd_rs),LOW);
  9235   0020CC  C00A  F001         	movff	i2lcd_4bit_send_command@lcd,i2gpio_pin_Write_logic@_pin_config
  9236   0020D0  0E00               	movlw	0
  9237   0020D2  6E02               	movwf	i2gpio_pin_Write_logic@logic^0,c
  9238   0020D4  ECE0  F008         	call	i2_gpio_pin_Write_logic	;wreg free
  9239                           
  9240                           ;ECU_LAYER/LCD/ecu_lcd.c: 62:         send_4bit(lcd,command>>4);
  9241   0020D8  C00A  F008         	movff	i2lcd_4bit_send_command@lcd,i2send_4bit@lcd
  9242   0020DC  380B               	swapf	i2lcd_4bit_send_command@command^0,w,c
  9243   0020DE  0B0F               	andlw	15
  9244   0020E0  6E09               	movwf	i2send_4bit@_data_command^0,c
  9245   0020E2  ECA8  F010         	call	i2_send_4bit	;wreg free
  9246                           
  9247                           ;ECU_LAYER/LCD/ecu_lcd.c: 63:         send_4bit_enable_signal(lcd);
  9248   0020E6  C00A  F008         	movff	i2lcd_4bit_send_command@lcd,i2send_4bit_enable_signal@lcd
  9249   0020EA  ECEF  F012         	call	i2_send_4bit_enable_signal	;wreg free
  9250                           
  9251                           ;ECU_LAYER/LCD/ecu_lcd.c: 64:         send_4bit(lcd,command);
  9252   0020EE  C00A  F008         	movff	i2lcd_4bit_send_command@lcd,i2send_4bit@lcd
  9253   0020F2  C00B  F009         	movff	i2lcd_4bit_send_command@command,i2send_4bit@_data_command
  9254   0020F6  ECA8  F010         	call	i2_send_4bit	;wreg free
  9255                           
  9256                           ;ECU_LAYER/LCD/ecu_lcd.c: 65:         send_4bit_enable_signal(lcd);
  9257   0020FA  C00A  F008         	movff	i2lcd_4bit_send_command@lcd,i2send_4bit_enable_signal@lcd
  9258   0020FE  ECEF  F012         	call	i2_send_4bit_enable_signal	;wreg free
  9259   002102                     i2l118:
  9260   002102  0012               	return		;funcret
  9261   002104                     __end_ofi2_lcd_4bit_send_command:
  9262                           	callstack 0
  9263                           
  9264 ;; *************** function i2_lcd_4bit_send_string *****************
  9265 ;; Defined at:
  9266 ;;		line 105 in file "ECU_LAYER/LCD/ecu_lcd.c"
  9267 ;; Parameters:    Size  Location     Type
  9268 ;;  lcd             1   11[COMRAM] PTR const struct .
  9269 ;;		 -> lcd(6), 
  9270 ;;  str             2   12[COMRAM] PTR unsigned char 
  9271 ;;		 -> STR_36(18), STR_35(16), STR_34(14), STR_33(18), 
  9272 ;;		 -> STR_32(18), STR_31(18), STR_30(18), STR_29(16), 
  9273 ;;		 -> STR_28(14), STR_27(14), STR_26(16), STR_25(16), 
  9274 ;;		 -> STR_24(2), STR_23(6), STR_22(16), STR_21(2), 
  9275 ;;		 -> STR_20(6), STR_19(20), STR_18(2), STR_17(6), 
  9276 ;;		 -> STR_16(20), STR_15(2), STR_14(6), STR_13(18), 
  9277 ;;		 -> STR_12(2), display_value(4), STR_11(6), STR_10(20), 
  9278 ;;		 -> STR_9(8), STR_8(16), STR_7(14), STR_6(20), 
  9279 ;;		 -> STR_5(18), STR_4(22), 
  9280 ;; Auto vars:     Size  Location     Type
  9281 ;;  ret             1    0        unsigned char 
  9282 ;; Return value:  Size  Location     Type
  9283 ;;                  1    wreg      unsigned char 
  9284 ;; Registers used:
  9285 ;;		wreg, fsr0l, fsr0h, fsr2l, fsr2h, status,2, status,0, tblptrl, tblptrh, tblptru, prodl, prodh, cstack
  9286 ;; Tracked objects:
  9287 ;;		On entry : 0/0
  9288 ;;		On exit  : 0/0
  9289 ;;		Unchanged: 0/0
  9290 ;; Data sizes:     COMRAM   BANK0   BANK1   BANK2   BANK3   BANK4   BANK5   BANK6   BANK7   BANK8   BANK9  BANK10  BANK1
      +1  BANK12  BANK13  BANK14  BANK15
  9291 ;;      Params:         3       0       0       0       0       0       0       0       0       0       0       0       
      +0       0       0       0       0
  9292 ;;      Locals:         0       0       0       0       0       0       0       0       0       0       0       0       
      +0       0       0       0       0
  9293 ;;      Temps:          0       0       0       0       0       0       0       0       0       0       0       0       
      +0       0       0       0       0
  9294 ;;      Totals:         3       0       0       0       0       0       0       0       0       0       0       0       
      +0       0       0       0       0
  9295 ;;Total ram usage:        3 bytes
  9296 ;; Hardware stack levels used: 1
  9297 ;; Hardware stack levels required when called: 3
  9298 ;; This function calls:
  9299 ;;		i2_lcd_4bit_send_data
  9300 ;; This function is called by:
  9301 ;;		i2_lcd_4bit_send_string_pos
  9302 ;; This function uses a non-reentrant model
  9303 ;;
  9304                           
  9305                           	psect	text64
  9306   001A46                     __ptext64:
  9307                           	callstack 0
  9308   001A46                     i2_lcd_4bit_send_string:
  9309                           	callstack 16
  9310   001A46                     
  9311                           ;ECU_LAYER/LCD/ecu_lcd.c: 109:     if (((void*)0) == lcd ){
  9312   001A46  500C               	movf	i2lcd_4bit_send_string@lcd^0,w,c
  9313   001A48  A4D8               	btfss	status,2,c
  9314   001A4A  EF29  F00D         	goto	i2u247_41
  9315   001A4E  EF2B  F00D         	goto	i2u247_40
  9316   001A52                     i2u247_41:
  9317   001A52  EF45  F00D         	goto	i2l3668
  9318   001A56                     i2u247_40:
  9319   001A56                     
  9320                           ;ECU_LAYER/LCD/ecu_lcd.c: 111:     }
  9321   001A56  EF5E  F00D         	goto	i2l136
  9322   001A5A                     i2l3664:
  9323                           
  9324                           ;ECU_LAYER/LCD/ecu_lcd.c: 114:             lcd_4bit_send_data(lcd,*str++);
  9325   001A5A  C00C  F00A         	movff	i2lcd_4bit_send_string@lcd,i2lcd_4bit_send_data@lcd
  9326   001A5E  C00D  FFF6         	movff	i2lcd_4bit_send_string@str,tblptrl
  9327   001A62  C00E  FFF7         	movff	i2lcd_4bit_send_string@str+1,tblptrh
  9328   001A66  0E00               	movlw	low (__mediumconst shr (0+16))
  9329   001A68  6EF8               	movwf	tblptru,c
  9330   001A6A  0E0F               	movlw	(high __ramtop+-1)
  9331   001A6C  64F7               	cpfsgt	tblptrh,c
  9332   001A6E  D003               	bra	i2u248_47
  9333   001A70  0008               	tblrd		*
  9334   001A72  50F5               	movf	tablat,w,c
  9335   001A74  D005               	bra	i2u248_40
  9336   001A76                     i2u248_47:
  9337   001A76  CFF6 FFE9          	movff	tblptrl,fsr0l
  9338   001A7A  CFF7 FFEA          	movff	tblptrh,fsr0h
  9339   001A7E  50EF               	movf	indf0,w,c
  9340   001A80                     i2u248_40:
  9341   001A80  6E0B               	movwf	i2lcd_4bit_send_data@data^0,c
  9342   001A82  EC82  F010         	call	i2_lcd_4bit_send_data	;wreg free
  9343   001A86  4A0D               	infsnz	i2lcd_4bit_send_string@str^0,f,c
  9344   001A88  2A0E               	incf	(i2lcd_4bit_send_string@str+1)^0,f,c
  9345   001A8A                     i2l3668:
  9346                           
  9347                           ;ECU_LAYER/LCD/ecu_lcd.c: 113:         while(*str){
  9348   001A8A  C00D  FFF6         	movff	i2lcd_4bit_send_string@str,tblptrl
  9349   001A8E  C00E  FFF7         	movff	i2lcd_4bit_send_string@str+1,tblptrh
  9350   001A92  0E00               	movlw	low (__mediumconst shr (0+16))
  9351   001A94  6EF8               	movwf	tblptru,c
  9352   001A96  0E0F               	movlw	(high __ramtop+-1)
  9353   001A98  64F7               	cpfsgt	tblptrh,c
  9354   001A9A  D003               	bra	i2u249_47
  9355   001A9C  0008               	tblrd		*
  9356   001A9E  50F5               	movf	tablat,w,c
  9357   001AA0  D005               	bra	i2u249_40
  9358   001AA2                     i2u249_47:
  9359   001AA2  CFF6 FFE9          	movff	tblptrl,fsr0l
  9360   001AA6  CFF7 FFEA          	movff	tblptrh,fsr0h
  9361   001AAA  50EF               	movf	indf0,w,c
  9362   001AAC                     i2u249_40:
  9363   001AAC  0900               	iorlw	0
  9364   001AAE  A4D8               	btfss	status,2,c
  9365   001AB0  EF5C  F00D         	goto	i2u250_41
  9366   001AB4  EF5E  F00D         	goto	i2u250_40
  9367   001AB8                     i2u250_41:
  9368   001AB8  EF2D  F00D         	goto	i2l3664
  9369   001ABC                     i2u250_40:
  9370   001ABC                     i2l136:
  9371   001ABC  0012               	return		;funcret
  9372   001ABE                     __end_ofi2_lcd_4bit_send_string:
  9373                           	callstack 0
  9374                           
  9375 ;; *************** function i2_lcd_4bit_send_data *****************
  9376 ;; Defined at:
  9377 ;;		line 72 in file "ECU_LAYER/LCD/ecu_lcd.c"
  9378 ;; Parameters:    Size  Location     Type
  9379 ;;  lcd             1    9[COMRAM] PTR const struct .
  9380 ;;		 -> lcd(6), 
  9381 ;;  data            1   10[COMRAM] unsigned char 
  9382 ;; Auto vars:     Size  Location     Type
  9383 ;;  ret             1    0        unsigned char 
  9384 ;; Return value:  Size  Location     Type
  9385 ;;                  1    wreg      unsigned char 
  9386 ;; Registers used:
  9387 ;;		wreg, fsr2l, fsr2h, status,2, status,0, prodl, prodh, cstack
  9388 ;; Tracked objects:
  9389 ;;		On entry : 0/0
  9390 ;;		On exit  : 0/0
  9391 ;;		Unchanged: 0/0
  9392 ;; Data sizes:     COMRAM   BANK0   BANK1   BANK2   BANK3   BANK4   BANK5   BANK6   BANK7   BANK8   BANK9  BANK10  BANK1
      +1  BANK12  BANK13  BANK14  BANK15
  9393 ;;      Params:         2       0       0       0       0       0       0       0       0       0       0       0       
      +0       0       0       0       0
  9394 ;;      Locals:         0       0       0       0       0       0       0       0       0       0       0       0       
      +0       0       0       0       0
  9395 ;;      Temps:          0       0       0       0       0       0       0       0       0       0       0       0       
      +0       0       0       0       0
  9396 ;;      Totals:         2       0       0       0       0       0       0       0       0       0       0       0       
      +0       0       0       0       0
  9397 ;;Total ram usage:        2 bytes
  9398 ;; Hardware stack levels used: 1
  9399 ;; Hardware stack levels required when called: 2
  9400 ;; This function calls:
  9401 ;;		i2_gpio_pin_Write_logic
  9402 ;;		i2_send_4bit
  9403 ;;		i2_send_4bit_enable_signal
  9404 ;; This function is called by:
  9405 ;;		i2_lcd_4bit_send_string
  9406 ;; This function uses a non-reentrant model
  9407 ;;
  9408                           
  9409                           	psect	text65
  9410   002104                     __ptext65:
  9411                           	callstack 0
  9412   002104                     i2_lcd_4bit_send_data:
  9413                           	callstack 16
  9414   002104                     
  9415                           ;ECU_LAYER/LCD/ecu_lcd.c: 76:     if (((void*)0) == lcd ){
  9416   002104  500A               	movf	i2lcd_4bit_send_data@lcd^0,w,c
  9417   002106  A4D8               	btfss	status,2,c
  9418   002108  EF88  F010         	goto	i2u232_41
  9419   00210C  EF8A  F010         	goto	i2u232_40
  9420   002110                     i2u232_41:
  9421   002110  EF8C  F010         	goto	i2l3562
  9422   002114                     i2u232_40:
  9423   002114                     
  9424                           ;ECU_LAYER/LCD/ecu_lcd.c: 78:     }
  9425   002114  EFA7  F010         	goto	i2l123
  9426   002118                     i2l3562:
  9427                           
  9428                           ;ECU_LAYER/LCD/ecu_lcd.c: 80:       gpio_pin_Write_logic(&(lcd->lcd_rs),HIGH);
  9429   002118  C00A  F001         	movff	i2lcd_4bit_send_data@lcd,i2gpio_pin_Write_logic@_pin_config
  9430   00211C  0E01               	movlw	1
  9431   00211E  6E02               	movwf	i2gpio_pin_Write_logic@logic^0,c
  9432   002120  ECE0  F008         	call	i2_gpio_pin_Write_logic	;wreg free
  9433                           
  9434                           ;ECU_LAYER/LCD/ecu_lcd.c: 81:         send_4bit(lcd,data>>4);
  9435   002124  C00A  F008         	movff	i2lcd_4bit_send_data@lcd,i2send_4bit@lcd
  9436   002128  380B               	swapf	i2lcd_4bit_send_data@data^0,w,c
  9437   00212A  0B0F               	andlw	15
  9438   00212C  6E09               	movwf	i2send_4bit@_data_command^0,c
  9439   00212E  ECA8  F010         	call	i2_send_4bit	;wreg free
  9440                           
  9441                           ;ECU_LAYER/LCD/ecu_lcd.c: 82:         send_4bit_enable_signal(lcd);
  9442   002132  C00A  F008         	movff	i2lcd_4bit_send_data@lcd,i2send_4bit_enable_signal@lcd
  9443   002136  ECEF  F012         	call	i2_send_4bit_enable_signal	;wreg free
  9444                           
  9445                           ;ECU_LAYER/LCD/ecu_lcd.c: 83:         send_4bit(lcd,data);
  9446   00213A  C00A  F008         	movff	i2lcd_4bit_send_data@lcd,i2send_4bit@lcd
  9447   00213E  C00B  F009         	movff	i2lcd_4bit_send_data@data,i2send_4bit@_data_command
  9448   002142  ECA8  F010         	call	i2_send_4bit	;wreg free
  9449                           
  9450                           ;ECU_LAYER/LCD/ecu_lcd.c: 84:         send_4bit_enable_signal(lcd);
  9451   002146  C00A  F008         	movff	i2lcd_4bit_send_data@lcd,i2send_4bit_enable_signal@lcd
  9452   00214A  ECEF  F012         	call	i2_send_4bit_enable_signal	;wreg free
  9453   00214E                     i2l123:
  9454   00214E  0012               	return		;funcret
  9455   002150                     __end_ofi2_lcd_4bit_send_data:
  9456                           	callstack 0
  9457                           
  9458 ;; *************** function i2_send_4bit_enable_signal *****************
  9459 ;; Defined at:
  9460 ;;		line 400 in file "ECU_LAYER/LCD/ecu_lcd.c"
  9461 ;; Parameters:    Size  Location     Type
  9462 ;;  lcd             1    7[COMRAM] PTR const struct .
  9463 ;;		 -> lcd(6), 
  9464 ;; Auto vars:     Size  Location     Type
  9465 ;;		None
  9466 ;; Return value:  Size  Location     Type
  9467 ;;                  1    wreg      void 
  9468 ;; Registers used:
  9469 ;;		wreg, fsr2l, fsr2h, status,2, status,0, prodl, prodh, cstack
  9470 ;; Tracked objects:
  9471 ;;		On entry : 0/0
  9472 ;;		On exit  : 0/0
  9473 ;;		Unchanged: 0/0
  9474 ;; Data sizes:     COMRAM   BANK0   BANK1   BANK2   BANK3   BANK4   BANK5   BANK6   BANK7   BANK8   BANK9  BANK10  BANK1
      +1  BANK12  BANK13  BANK14  BANK15
  9475 ;;      Params:         1       0       0       0       0       0       0       0       0       0       0       0       
      +0       0       0       0       0
  9476 ;;      Locals:         0       0       0       0       0       0       0       0       0       0       0       0       
      +0       0       0       0       0
  9477 ;;      Temps:          0       0       0       0       0       0       0       0       0       0       0       0       
      +0       0       0       0       0
  9478 ;;      Totals:         1       0       0       0       0       0       0       0       0       0       0       0       
      +0       0       0       0       0
  9479 ;;Total ram usage:        1 bytes
  9480 ;; Hardware stack levels used: 1
  9481 ;; Hardware stack levels required when called: 1
  9482 ;; This function calls:
  9483 ;;		i2_gpio_pin_Write_logic
  9484 ;; This function is called by:
  9485 ;;		i2_lcd_4bit_send_command
  9486 ;;		i2_lcd_4bit_send_data
  9487 ;; This function uses a non-reentrant model
  9488 ;;
  9489                           
  9490                           	psect	text66
  9491   0025DE                     __ptext66:
  9492                           	callstack 0
  9493   0025DE                     i2_send_4bit_enable_signal:
  9494                           	callstack 16
  9495   0025DE                     
  9496                           ;ECU_LAYER/LCD/ecu_lcd.c: 402:     gpio_pin_Write_logic(&(lcd->lcd_en),HIGH);
  9497   0025DE  2808               	incf	i2send_4bit_enable_signal@lcd^0,w,c
  9498   0025E0  6E01               	movwf	i2gpio_pin_Write_logic@_pin_config^0,c
  9499   0025E2  0E01               	movlw	1
  9500   0025E4  6E02               	movwf	i2gpio_pin_Write_logic@logic^0,c
  9501   0025E6  ECE0  F008         	call	i2_gpio_pin_Write_logic	;wreg free
  9502   0025EA                     
  9503                           ;ECU_LAYER/LCD/ecu_lcd.c: 403:     _delay((unsigned long)((5)*(8000000UL/4000000.0)));
  9504   0025EA  0E03               	movlw	3
  9505   0025EC                     i2u465_47:
  9506   0025EC  2EE8               	decfsz	wreg,f,c
  9507   0025EE  D7FE               	bra	i2u465_47
  9508   0025F0  0000               	nop	
  9509   0025F2                     
  9510                           ;ECU_LAYER/LCD/ecu_lcd.c: 404:     gpio_pin_Write_logic(&(lcd->lcd_en),LOW);
  9511   0025F2  2808               	incf	i2send_4bit_enable_signal@lcd^0,w,c
  9512   0025F4  6E01               	movwf	i2gpio_pin_Write_logic@_pin_config^0,c
  9513   0025F6  0E00               	movlw	0
  9514   0025F8  6E02               	movwf	i2gpio_pin_Write_logic@logic^0,c
  9515   0025FA  ECE0  F008         	call	i2_gpio_pin_Write_logic	;wreg free
  9516   0025FE  0012               	return		;funcret
  9517   002600                     __end_ofi2_send_4bit_enable_signal:
  9518                           	callstack 0
  9519                           
  9520 ;; *************** function i2_send_4bit *****************
  9521 ;; Defined at:
  9522 ;;		line 390 in file "ECU_LAYER/LCD/ecu_lcd.c"
  9523 ;; Parameters:    Size  Location     Type
  9524 ;;  lcd             1    7[COMRAM] PTR const struct .
  9525 ;;		 -> lcd(6), 
  9526 ;;  _data_comman    1    8[COMRAM] unsigned char 
  9527 ;; Auto vars:     Size  Location     Type
  9528 ;;		None
  9529 ;; Return value:  Size  Location     Type
  9530 ;;                  1    wreg      void 
  9531 ;; Registers used:
  9532 ;;		wreg, fsr2l, fsr2h, status,2, status,0, prodl, prodh, cstack
  9533 ;; Tracked objects:
  9534 ;;		On entry : 0/0
  9535 ;;		On exit  : 0/0
  9536 ;;		Unchanged: 0/0
  9537 ;; Data sizes:     COMRAM   BANK0   BANK1   BANK2   BANK3   BANK4   BANK5   BANK6   BANK7   BANK8   BANK9  BANK10  BANK1
      +1  BANK12  BANK13  BANK14  BANK15
  9538 ;;      Params:         2       0       0       0       0       0       0       0       0       0       0       0       
      +0       0       0       0       0
  9539 ;;      Locals:         0       0       0       0       0       0       0       0       0       0       0       0       
      +0       0       0       0       0
  9540 ;;      Temps:          0       0       0       0       0       0       0       0       0       0       0       0       
      +0       0       0       0       0
  9541 ;;      Totals:         2       0       0       0       0       0       0       0       0       0       0       0       
      +0       0       0       0       0
  9542 ;;Total ram usage:        2 bytes
  9543 ;; Hardware stack levels used: 1
  9544 ;; Hardware stack levels required when called: 1
  9545 ;; This function calls:
  9546 ;;		i2_gpio_pin_Write_logic
  9547 ;; This function is called by:
  9548 ;;		i2_lcd_4bit_send_command
  9549 ;;		i2_lcd_4bit_send_data
  9550 ;; This function uses a non-reentrant model
  9551 ;;
  9552                           
  9553                           	psect	text67
  9554   002150                     __ptext67:
  9555                           	callstack 0
  9556   002150                     i2_send_4bit:
  9557                           	callstack 16
  9558   002150                     
  9559                           ;ECU_LAYER/LCD/ecu_lcd.c: 391:     gpio_pin_Write_logic(&(lcd->lcd_data[0]),(_data_comma
      +                          nd>>0)&0x01);
  9560   002150  5008               	movf	i2send_4bit@lcd^0,w,c
  9561   002152  0F02               	addlw	2
  9562   002154  6E01               	movwf	i2gpio_pin_Write_logic@_pin_config^0,c
  9563   002156  5009               	movf	i2send_4bit@_data_command^0,w,c
  9564   002158  0B01               	andlw	1
  9565   00215A  6E02               	movwf	i2gpio_pin_Write_logic@logic^0,c
  9566   00215C  ECE0  F008         	call	i2_gpio_pin_Write_logic	;wreg free
  9567                           
  9568                           ;ECU_LAYER/LCD/ecu_lcd.c: 392:     gpio_pin_Write_logic(&(lcd->lcd_data[1]),(_data_comma
      +                          nd>>1)&0x01);
  9569   002160  5008               	movf	i2send_4bit@lcd^0,w,c
  9570   002162  0F03               	addlw	3
  9571   002164  6E01               	movwf	i2gpio_pin_Write_logic@_pin_config^0,c
  9572   002166  90D8               	bcf	status,0,c
  9573   002168  3009               	rrcf	i2send_4bit@_data_command^0,w,c
  9574   00216A  0B01               	andlw	1
  9575   00216C  6E02               	movwf	i2gpio_pin_Write_logic@logic^0,c
  9576   00216E  ECE0  F008         	call	i2_gpio_pin_Write_logic	;wreg free
  9577                           
  9578                           ;ECU_LAYER/LCD/ecu_lcd.c: 393:     gpio_pin_Write_logic(&(lcd->lcd_data[2]),(_data_comma
      +                          nd>>2)&0x01);
  9579   002172  5008               	movf	i2send_4bit@lcd^0,w,c
  9580   002174  0F04               	addlw	4
  9581   002176  6E01               	movwf	i2gpio_pin_Write_logic@_pin_config^0,c
  9582   002178  4009               	rrncf	i2send_4bit@_data_command^0,w,c
  9583   00217A  42E8               	rrncf	wreg,f,c
  9584   00217C  0B3F               	andlw	63
  9585   00217E  0B01               	andlw	1
  9586   002180  6E02               	movwf	i2gpio_pin_Write_logic@logic^0,c
  9587   002182  ECE0  F008         	call	i2_gpio_pin_Write_logic	;wreg free
  9588                           
  9589                           ;ECU_LAYER/LCD/ecu_lcd.c: 394:     gpio_pin_Write_logic(&(lcd->lcd_data[3]),(_data_comma
      +                          nd>>3)&0x01);
  9590   002186  5008               	movf	i2send_4bit@lcd^0,w,c
  9591   002188  0F05               	addlw	5
  9592   00218A  6E01               	movwf	i2gpio_pin_Write_logic@_pin_config^0,c
  9593   00218C  3809               	swapf	i2send_4bit@_data_command^0,w,c
  9594   00218E  46E8               	rlncf	wreg,f,c
  9595   002190  0B1F               	andlw	31
  9596   002192  0B01               	andlw	1
  9597   002194  6E02               	movwf	i2gpio_pin_Write_logic@logic^0,c
  9598   002196  ECE0  F008         	call	i2_gpio_pin_Write_logic	;wreg free
  9599   00219A  0012               	return		;funcret
  9600   00219C                     __end_ofi2_send_4bit:
  9601                           	callstack 0
  9602                           
  9603 ;; *************** function i2_gpio_pin_Write_logic *****************
  9604 ;; Defined at:
  9605 ;;		line 32 in file "MCAL_LAYER/GPIO/hal_gpio.c"
  9606 ;; Parameters:    Size  Location     Type
  9607 ;;  _pin_config     1    0[COMRAM] PTR const struct .
  9608 ;;		 -> i2led_turn_off@pin_obj(1), buzzer(1), keypad(8), lcd$lcd_data(4), 
  9609 ;;		 -> lcd(6), motor$motor_config(2), motor(2), led_turn_off@pin_obj(1), 
  9610 ;;		 -> led_turn_on@pin_obj(1), 
  9611 ;;  logic           1    1[COMRAM] enum E2980
  9612 ;; Auto vars:     Size  Location     Type
  9613 ;;  ret             1    0        unsigned char 
  9614 ;; Return value:  Size  Location     Type
  9615 ;;                  1    wreg      unsigned char 
  9616 ;; Registers used:
  9617 ;;		wreg, fsr2l, fsr2h, status,2, status,0, prodl, prodh
  9618 ;; Tracked objects:
  9619 ;;		On entry : 0/0
  9620 ;;		On exit  : 0/0
  9621 ;;		Unchanged: 0/0
  9622 ;; Data sizes:     COMRAM   BANK0   BANK1   BANK2   BANK3   BANK4   BANK5   BANK6   BANK7   BANK8   BANK9  BANK10  BANK1
      +1  BANK12  BANK13  BANK14  BANK15
  9623 ;;      Params:         2       0       0       0       0       0       0       0       0       0       0       0       
      +0       0       0       0       0
  9624 ;;      Locals:         0       0       0       0       0       0       0       0       0       0       0       0       
      +0       0       0       0       0
  9625 ;;      Temps:          5       0       0       0       0       0       0       0       0       0       0       0       
      +0       0       0       0       0
  9626 ;;      Totals:         7       0       0       0       0       0       0       0       0       0       0       0       
      +0       0       0       0       0
  9627 ;;Total ram usage:        7 bytes
  9628 ;; Hardware stack levels used: 1
  9629 ;; This function calls:
  9630 ;;		Nothing
  9631 ;; This function is called by:
  9632 ;;		_App_ISR
  9633 ;;		i2_motor_stop
  9634 ;;		i2_lcd_4bit_send_command
  9635 ;;		i2_lcd_4bit_send_data
  9636 ;;		i2_send_4bit
  9637 ;;		i2_send_4bit_enable_signal
  9638 ;;		i2_led_turn_off
  9639 ;; This function uses a non-reentrant model
  9640 ;;
  9641                           
  9642                           	psect	text68
  9643   0011C0                     __ptext68:
  9644                           	callstack 0
  9645   0011C0                     i2_gpio_pin_Write_logic:
  9646                           	callstack 19
  9647   0011C0                     
  9648                           ;MCAL_LAYER/GPIO/hal_gpio.c: 35:     if (((void*)0) == _pin_config || _pin_config->pin >
      +                           (8 -1)){
  9649   0011C0  5001               	movf	i2gpio_pin_Write_logic@_pin_config^0,w,c
  9650   0011C2  B4D8               	btfsc	status,2,c
  9651   0011C4  EFE6  F008         	goto	i2u198_41
  9652   0011C8  EFE8  F008         	goto	i2u198_40
  9653   0011CC                     i2u198_41:
  9654   0011CC  EFF8  F008         	goto	i2l3356
  9655   0011D0                     i2u198_40:
  9656   0011D0  5001               	movf	i2gpio_pin_Write_logic@_pin_config^0,w,c
  9657   0011D2  6ED9               	movwf	fsr2l,c
  9658   0011D4  6ADA               	clrf	fsr2h,c
  9659   0011D6  30DF               	rrcf	223,w,c
  9660   0011D8  32E8               	rrcf	wreg,f,c
  9661   0011DA  32E8               	rrcf	wreg,f,c
  9662   0011DC  0B07               	andlw	7
  9663   0011DE  6E03               	movwf	??i2_gpio_pin_Write_logic^0,c
  9664   0011E0  0E07               	movlw	7
  9665   0011E2  6403               	cpfsgt	??i2_gpio_pin_Write_logic^0,c
  9666   0011E4  EFF6  F008         	goto	i2u199_41
  9667   0011E8  EFF8  F008         	goto	i2u199_40
  9668   0011EC                     i2u199_41:
  9669   0011EC  EF4D  F009         	goto	i2l3364
  9670   0011F0                     i2u199_40:
  9671   0011F0                     i2l3356:
  9672                           
  9673                           ;MCAL_LAYER/GPIO/hal_gpio.c: 37:     }
  9674   0011F0  EF62  F009         	goto	i2l352
  9675   0011F4                     i2l3358:
  9676                           
  9677                           ;MCAL_LAYER/GPIO/hal_gpio.c: 44:               (*lat_registers[_pin_config->port] &= ~((
      +                          uint_8)1<<_pin_config->pin));
  9678   0011F4  5001               	movf	i2gpio_pin_Write_logic@_pin_config^0,w,c
  9679   0011F6  6ED9               	movwf	fsr2l,c
  9680   0011F8  6ADA               	clrf	fsr2h,c
  9681   0011FA  30DF               	rrcf	223,w,c
  9682   0011FC  32E8               	rrcf	wreg,f,c
  9683   0011FE  32E8               	rrcf	wreg,f,c
  9684   001200  0B07               	andlw	7
  9685   001202  6E03               	movwf	??i2_gpio_pin_Write_logic^0,c
  9686   001204  0E01               	movlw	1
  9687   001206  6E04               	movwf	(??i2_gpio_pin_Write_logic+1)^0,c
  9688   001208  2A03               	incf	??i2_gpio_pin_Write_logic^0,f,c
  9689   00120A  EF09  F009         	goto	i2u200_44
  9690   00120E                     i2u200_45:
  9691   00120E  90D8               	bcf	status,0,c
  9692   001210  3604               	rlcf	(??i2_gpio_pin_Write_logic+1)^0,f,c
  9693   001212                     i2u200_44:
  9694   001212  2E03               	decfsz	??i2_gpio_pin_Write_logic^0,f,c
  9695   001214  EF07  F009         	goto	i2u200_45
  9696   001218  5004               	movf	(??i2_gpio_pin_Write_logic+1)^0,w,c
  9697   00121A  0AFF               	xorlw	255
  9698   00121C  6E05               	movwf	(??i2_gpio_pin_Write_logic+2)^0,c
  9699   00121E  5001               	movf	i2gpio_pin_Write_logic@_pin_config^0,w,c
  9700   001220  6ED9               	movwf	fsr2l,c
  9701   001222  6ADA               	clrf	fsr2h,c
  9702   001224  50DF               	movf	223,w,c
  9703   001226  0B07               	andlw	7
  9704   001228  0D02               	mullw	2
  9705   00122A  50F3               	movf	243,w,c
  9706   00122C  0FC0               	addlw	low _lat_registers
  9707   00122E  6ED9               	movwf	fsr2l,c
  9708   001230  6ADA               	clrf	fsr2h,c
  9709   001232  CFDE F006          	movff	postinc2,??i2_gpio_pin_Write_logic+3
  9710   001236  CFDD F007          	movff	postdec2,??i2_gpio_pin_Write_logic+4
  9711   00123A  C006  FFD9         	movff	??i2_gpio_pin_Write_logic+3,fsr2l
  9712   00123E  C007  FFDA         	movff	??i2_gpio_pin_Write_logic+4,fsr2h
  9713   001242  5005               	movf	(??i2_gpio_pin_Write_logic+2)^0,w,c
  9714   001244  16DF               	andwf	indf2,f,c
  9715                           
  9716                           ;MCAL_LAYER/GPIO/hal_gpio.c: 46:               break;
  9717   001246  EF62  F009         	goto	i2l352
  9718   00124A                     i2l3360:
  9719                           
  9720                           ;MCAL_LAYER/GPIO/hal_gpio.c: 50:             (*lat_registers[_pin_config->port] |= ((uin
      +                          t_8)1<<_pin_config->pin));
  9721   00124A  5001               	movf	i2gpio_pin_Write_logic@_pin_config^0,w,c
  9722   00124C  6ED9               	movwf	fsr2l,c
  9723   00124E  6ADA               	clrf	fsr2h,c
  9724   001250  30DF               	rrcf	223,w,c
  9725   001252  32E8               	rrcf	wreg,f,c
  9726   001254  32E8               	rrcf	wreg,f,c
  9727   001256  0B07               	andlw	7
  9728   001258  6E03               	movwf	??i2_gpio_pin_Write_logic^0,c
  9729   00125A  0E01               	movlw	1
  9730   00125C  6E04               	movwf	(??i2_gpio_pin_Write_logic+1)^0,c
  9731   00125E  2A03               	incf	??i2_gpio_pin_Write_logic^0,f,c
  9732   001260  EF34  F009         	goto	i2u201_44
  9733   001264                     i2u201_45:
  9734   001264  90D8               	bcf	status,0,c
  9735   001266  3604               	rlcf	(??i2_gpio_pin_Write_logic+1)^0,f,c
  9736   001268                     i2u201_44:
  9737   001268  2E03               	decfsz	??i2_gpio_pin_Write_logic^0,f,c
  9738   00126A  EF32  F009         	goto	i2u201_45
  9739   00126E  5001               	movf	i2gpio_pin_Write_logic@_pin_config^0,w,c
  9740   001270  6ED9               	movwf	fsr2l,c
  9741   001272  6ADA               	clrf	fsr2h,c
  9742   001274  50DF               	movf	223,w,c
  9743   001276  0B07               	andlw	7
  9744   001278  0D02               	mullw	2
  9745   00127A  50F3               	movf	243,w,c
  9746   00127C  0FC0               	addlw	low _lat_registers
  9747   00127E  6ED9               	movwf	fsr2l,c
  9748   001280  6ADA               	clrf	fsr2h,c
  9749   001282  CFDE F005          	movff	postinc2,??i2_gpio_pin_Write_logic+2
  9750   001286  CFDD F006          	movff	postdec2,??i2_gpio_pin_Write_logic+3
  9751   00128A  C005  FFD9         	movff	??i2_gpio_pin_Write_logic+2,fsr2l
  9752   00128E  C006  FFDA         	movff	??i2_gpio_pin_Write_logic+3,fsr2h
  9753   001292  5004               	movf	(??i2_gpio_pin_Write_logic+1)^0,w,c
  9754   001294  12DF               	iorwf	indf2,f,c
  9755                           
  9756                           ;MCAL_LAYER/GPIO/hal_gpio.c: 52:               break;
  9757   001296  EF62  F009         	goto	i2l352
  9758   00129A                     i2l3364:
  9759   00129A  5002               	movf	i2gpio_pin_Write_logic@logic^0,w,c
  9760   00129C  6E03               	movwf	??i2_gpio_pin_Write_logic^0,c
  9761   00129E  6A04               	clrf	(??i2_gpio_pin_Write_logic+1)^0,c
  9762                           
  9763                           ; Switch on 2 bytes has been partitioned into a top level switch of size 1, and 1 sub-sw
      +                          itches
  9764                           ; Switch size 1, requested type "simple"
  9765                           ; Number of cases is 1, Range of values is 0 to 0
  9766                           ; switch strategies available:
  9767                           ; Name         Instructions Cycles
  9768                           ; simple_byte            4     3 (average)
  9769                           ;	Chosen strategy is simple_byte
  9770   0012A0  5004               	movf	(??i2_gpio_pin_Write_logic+1)^0,w,c
  9771   0012A2  0A00               	xorlw	0	; case 0
  9772   0012A4  B4D8               	btfsc	status,2,c
  9773   0012A6  EF57  F009         	goto	i2l6092
  9774   0012AA  EFF8  F008         	goto	i2l3356
  9775   0012AE                     i2l6092:
  9776                           
  9777                           ; Switch size 1, requested type "simple"
  9778                           ; Number of cases is 2, Range of values is 0 to 1
  9779                           ; switch strategies available:
  9780                           ; Name         Instructions Cycles
  9781                           ; simple_byte            7     4 (average)
  9782                           ;	Chosen strategy is simple_byte
  9783   0012AE  5003               	movf	??i2_gpio_pin_Write_logic^0,w,c
  9784   0012B0  0A00               	xorlw	0	; case 0
  9785   0012B2  B4D8               	btfsc	status,2,c
  9786   0012B4  EFFA  F008         	goto	i2l3358
  9787   0012B8  0A01               	xorlw	1	; case 1
  9788   0012BA  B4D8               	btfsc	status,2,c
  9789   0012BC  EF25  F009         	goto	i2l3360
  9790   0012C0  EFF8  F008         	goto	i2l3356
  9791   0012C4                     i2l352:
  9792   0012C4  0012               	return		;funcret
  9793   0012C6                     __end_ofi2_gpio_pin_Write_logic:
  9794                           	callstack 0
  9795                           
  9796                           	psect	text69
  9797   000000                     __ptext69:
  9798                           	callstack 0
  9799   000000                     
  9800                           	psect	rparam
  9801   000000                     
  9802                           	psect	temp
  9803   00005C                     btemp:
  9804                           	callstack 0
  9805   00005C                     	ds	1
  9806   000000                     int$flags	set	btemp
  9807   000000                     wtemp8	set	btemp+1
  9808   000000                     ttemp5	set	btemp+1
  9809   000000                     ttemp6	set	btemp+4
  9810   000000                     ttemp7	set	btemp+8
  9811                           
  9812                           	psect	config
  9813                           
  9814                           ; Padding undefined space
  9815   300000                     	org	3145728
  9816   300000  FF                 	db	255
  9817                           
  9818                           ;Config register CONFIG1H @ 0x300001
  9819                           ;	Oscillator Selection bits
  9820                           ;	OSC = HS, HS oscillator
  9821                           ;	Fail-Safe Clock Monitor Enable bit
  9822                           ;	FCMEN = OFF, Fail-Safe Clock Monitor disabled
  9823                           ;	Internal/External Oscillator Switchover bit
  9824                           ;	IESO = OFF, Oscillator Switchover mode disabled
  9825   300001                     	org	3145729
  9826   300001  02                 	db	2
  9827                           
  9828                           ;Config register CONFIG2L @ 0x300002
  9829                           ;	Power-up Timer Enable bit
  9830                           ;	PWRT = OFF, PWRT disabled
  9831                           ;	Brown-out Reset Enable bits
  9832                           ;	BOREN = OFF, Brown-out Reset disabled in hardware and software
  9833                           ;	Brown Out Reset Voltage bits
  9834                           ;	BORV = 1, 
  9835   300002                     	org	3145730
  9836   300002  09                 	db	9
  9837                           
  9838                           ;Config register CONFIG2H @ 0x300003
  9839                           ;	Watchdog Timer Enable bit
  9840                           ;	WDT = OFF, WDT disabled (control is placed on the SWDTEN bit)
  9841                           ;	Watchdog Timer Postscale Select bits
  9842                           ;	WDTPS = 32768, 1:32768
  9843   300003                     	org	3145731
  9844   300003  1E                 	db	30
  9845                           
  9846                           ; Padding undefined space
  9847   300004                     	org	3145732
  9848   300004  FF                 	db	255
  9849                           
  9850                           ;Config register CONFIG3H @ 0x300005
  9851                           ;	CCP2 MUX bit
  9852                           ;	CCP2MX = PORTC, CCP2 input/output is multiplexed with RC1
  9853                           ;	PORTB A/D Enable bit
  9854                           ;	PBADEN = OFF, PORTB<4:0> pins are configured as digital I/O on Reset
  9855                           ;	Low-Power Timer1 Oscillator Enable bit
  9856                           ;	LPT1OSC = OFF, Timer1 configured for higher power operation
  9857                           ;	MCLR Pin Enable bit
  9858                           ;	MCLRE = ON, MCLR pin enabled; RE3 input pin disabled
  9859   300005                     	org	3145733
  9860   300005  81                 	db	129
  9861                           
  9862                           ;Config register CONFIG4L @ 0x300006
  9863                           ;	Stack Full/Underflow Reset Enable bit
  9864                           ;	STVREN = ON, Stack full/underflow will cause Reset
  9865                           ;	Single-Supply ICSP Enable bit
  9866                           ;	LVP = OFF, Single-Supply ICSP disabled
  9867                           ;	Extended Instruction Set Enable bit
  9868                           ;	XINST = OFF, Instruction set extension and Indexed Addressing mode disabled (Legacy mo
      +                          de)
  9869                           ;	Background Debugger Enable bit
  9870                           ;	DEBUG = 0x1, unprogrammed default
  9871   300006                     	org	3145734
  9872   300006  81                 	db	129
  9873                           
  9874                           ; Padding undefined space
  9875   300007                     	org	3145735
  9876   300007  FF                 	db	255
  9877                           
  9878                           ;Config register CONFIG5L @ 0x300008
  9879                           ;	Code Protection bit
  9880                           ;	CP0 = OFF, Block 0 (000800-003FFFh) not code-protected
  9881                           ;	Code Protection bit
  9882                           ;	CP1 = OFF, Block 1 (004000-007FFFh) not code-protected
  9883                           ;	Code Protection bit
  9884                           ;	CP2 = OFF, Block 2 (008000-00BFFFh) not code-protected
  9885                           ;	Code Protection bit
  9886                           ;	CP3 = OFF, Block 3 (00C000-00FFFFh) not code-protected
  9887   300008                     	org	3145736
  9888   300008  0F                 	db	15
  9889                           
  9890                           ;Config register CONFIG5H @ 0x300009
  9891                           ;	Boot Block Code Protection bit
  9892                           ;	CPB = OFF, Boot block (000000-0007FFh) not code-protected
  9893                           ;	Data EEPROM Code Protection bit
  9894                           ;	CPD = OFF, Data EEPROM not code-protected
  9895   300009                     	org	3145737
  9896   300009  C0                 	db	192
  9897                           
  9898                           ;Config register CONFIG6L @ 0x30000A
  9899                           ;	Write Protection bit
  9900                           ;	WRT0 = OFF, Block 0 (000800-003FFFh) not write-protected
  9901                           ;	Write Protection bit
  9902                           ;	WRT1 = OFF, Block 1 (004000-007FFFh) not write-protected
  9903                           ;	Write Protection bit
  9904                           ;	WRT2 = OFF, Block 2 (008000-00BFFFh) not write-protected
  9905                           ;	Write Protection bit
  9906                           ;	WRT3 = OFF, Block 3 (00C000-00FFFFh) not write-protected
  9907   30000A                     	org	3145738
  9908   30000A  0F                 	db	15
  9909                           
  9910                           ;Config register CONFIG6H @ 0x30000B
  9911                           ;	Configuration Register Write Protection bit
  9912                           ;	WRTC = OFF, Configuration registers (300000-3000FFh) not write-protected
  9913                           ;	Boot Block Write Protection bit
  9914                           ;	WRTB = OFF, Boot Block (000000-0007FFh) not write-protected
  9915                           ;	Data EEPROM Write Protection bit
  9916                           ;	WRTD = OFF, Data EEPROM not write-protected
  9917   30000B                     	org	3145739
  9918   30000B  E0                 	db	224
  9919                           
  9920                           ;Config register CONFIG7L @ 0x30000C
  9921                           ;	Table Read Protection bit
  9922                           ;	EBTR0 = OFF, Block 0 (000800-003FFFh) not protected from table reads executed in other
      +                           blocks
  9923                           ;	Table Read Protection bit
  9924                           ;	EBTR1 = OFF, Block 1 (004000-007FFFh) not protected from table reads executed in other
      +                           blocks
  9925                           ;	Table Read Protection bit
  9926                           ;	EBTR2 = OFF, Block 2 (008000-00BFFFh) not protected from table reads executed in other
      +                           blocks
  9927                           ;	Table Read Protection bit
  9928                           ;	EBTR3 = OFF, Block 3 (00C000-00FFFFh) not protected from table reads executed in other
      +                           blocks
  9929   30000C                     	org	3145740
  9930   30000C  0F                 	db	15
  9931                           
  9932                           ;Config register CONFIG7H @ 0x30000D
  9933                           ;	Boot Block Table Read Protection bit
  9934                           ;	EBTRB = OFF, Boot Block (000000-0007FFh) not protected from table reads executed in ot
      +                          her blocks
  9935   30000D                     	org	3145741
  9936   30000D  40                 	db	64
  9937                           tosu	equ	0xFFF
  9938                           tosh	equ	0xFFE
  9939                           tosl	equ	0xFFD
  9940                           stkptr	equ	0xFFC
  9941                           pclatu	equ	0xFFB
  9942                           pclath	equ	0xFFA
  9943                           pcl	equ	0xFF9
  9944                           tblptru	equ	0xFF8
  9945                           tblptrh	equ	0xFF7
  9946                           tblptrl	equ	0xFF6
  9947                           tablat	equ	0xFF5
  9948                           prodh	equ	0xFF4
  9949                           prodl	equ	0xFF3
  9950                           indf0	equ	0xFEF
  9951                           postinc0	equ	0xFEE
  9952                           postdec0	equ	0xFED
  9953                           preinc0	equ	0xFEC
  9954                           plusw0	equ	0xFEB
  9955                           fsr0h	equ	0xFEA
  9956                           fsr0l	equ	0xFE9
  9957                           wreg	equ	0xFE8
  9958                           indf1	equ	0xFE7
  9959                           postinc1	equ	0xFE6
  9960                           postdec1	equ	0xFE5
  9961                           preinc1	equ	0xFE4
  9962                           plusw1	equ	0xFE3
  9963                           fsr1h	equ	0xFE2
  9964                           fsr1l	equ	0xFE1
  9965                           bsr	equ	0xFE0
  9966                           indf2	equ	0xFDF
  9967                           postinc2	equ	0xFDE
  9968                           postdec2	equ	0xFDD
  9969                           preinc2	equ	0xFDC
  9970                           plusw2	equ	0xFDB
  9971                           fsr2h	equ	0xFDA
  9972                           fsr2l	equ	0xFD9
  9973                           status	equ	0xFD8

Data Sizes:
    Strings     367
    Constant    17
    Data        55
    BSS         78
    Persistent  0
    Stack       0

Auto Spaces:
    Space          Size  Autos    Used
    COMRAM          126     56      91
    BANK0           128     30     128
    BANK1           256      7       7
    BANK2           256      0       0
    BANK3           256      0       0
    BANK4           256      0       0
    BANK5           256      0       0
    BANK6           256      0       0
    BANK7           256      0       0
    BANK8           256      0       0
    BANK9           256      0       0
    BANK10          256      0       0
    BANK11          256      0       0
    BANK12          256      0       0
    BANK13          256      0       0
    BANK14          256      0       0
    BANK15          128      0       0

Pointer List with Targets:

    convert_byte_to_string@str	PTR unsigned char  size(1) Largest target is 4
		 -> display_value(BANK0[4]), 

    Data_EEPROM_ReadByte@bData	PTR unsigned short  size(1) Largest target is 2
		 -> high_pass(COMRAM[2]), low_pass(COMRAM[2]), 

    f$.$buffer	PTR unsigned char  size(2) Largest target is 0

    f$.$source	PTR const unsigned char  size(2) Largest target is 0

    fputc@fp	PTR struct _IO_FILE size(1) Largest target is 12
		 -> sprintf@f(BANK0[12]), 

    fputc@fp$.$buffer	PTR unsigned char  size(2) Largest target is 0

    fputc@fp$.$source	PTR const unsigned char  size(2) Largest target is 0

    gpio_pin_direction_intialize@_pin_config	PTR const struct . size(1) Largest target is 8
		 -> buzzer(COMRAM[1]), int1_obj(BANK0[6]), keypad(BANK0[8]), keypad$columns_pins(BANK0[4]), 
		 -> keypad$rows_pins(BANK0[4]), lcd(COMRAM[6]), lcd$lcd_data(COMRAM[4]), led_initialize@pin_obj(COMRAM[1]), 
		 -> motor(COMRAM[2]), motor$motor_config(COMRAM[2]), 

    gpio_pin_intialize@_pin_config	PTR const struct . size(1) Largest target is 6
		 -> lcd(COMRAM[6]), lcd$lcd_data(COMRAM[4]), 

    gpio_pin_Read_logic@_pin_config	PTR const struct . size(1) Largest target is 8
		 -> keypad(BANK0[8]), keypad$columns_pins(BANK0[4]), 

    gpio_pin_Read_logic@logic	PTR enum E2980 size(1) Largest target is 1
		 -> button_Read@status(COMRAM[1]), keypad_get_value@col_val(COMRAM[1]), 

    gpio_pin_Write_logic@_pin_config	PTR const struct . size(1) Largest target is 8
		 -> buzzer(COMRAM[1]), keypad(BANK0[8]), keypad$rows_pins(BANK0[4]), lcd(COMRAM[6]), 
		 -> lcd$lcd_data(COMRAM[4]), led_turn_off@pin_obj(COMRAM[1]), led_turn_on@pin_obj(COMRAM[1]), motor(COMRAM[2]), 
		 -> motor$motor_config(COMRAM[2]), 

    INT0_InterruptHandler	PTR FTN()void  size(2) Largest target is 1
		 -> App_ISR(), NULL(), 

    INT0_SetInterruptHandler@INTx_InterruptHandeler	PTR FTN()void  size(2) Largest target is 1
		 -> App_ISR(), 

    INT1_InterruptHandler	PTR FTN()void  size(2) Largest target is 1
		 -> App_ISR(), NULL(), 

    int1_obj$EXT_InterruptHandeler	PTR FTN()void  size(2) Largest target is 1
		 -> App_ISR(), 

    INT1_SetInterruptHandler@INTx_InterruptHandeler	PTR FTN()void  size(2) Largest target is 1
		 -> App_ISR(), 

    INT2_InterruptHandler	PTR FTN()void  size(2) Largest target is 1
		 -> App_ISR(), NULL(), 

    INT2_SetInterruptHandler@INTx_InterruptHandeler	PTR FTN()void  size(2) Largest target is 1
		 -> App_ISR(), 

    Interrupt_INTx_ClearFlag@int_obj	PTR const struct . size(1) Largest target is 6
		 -> int1_obj(BANK0[6]), 

    Interrupt_INTx_ClearFlag@int_obj$EXT_InterruptHandeler	PTR FTN()void  size(2) Largest target is 1
		 -> App_ISR(), 

    Interrupt_INTx_Disable@int_obj	PTR const struct . size(1) Largest target is 6
		 -> int1_obj(BANK0[6]), 

    Interrupt_INTx_Disable@int_obj$EXT_InterruptHandeler	PTR FTN()void  size(2) Largest target is 1
		 -> App_ISR(), 

    Interrupt_INTx_Edge_Init@int_obj	PTR const struct . size(1) Largest target is 6
		 -> int1_obj(BANK0[6]), 

    Interrupt_INTx_Edge_Init@int_obj$EXT_InterruptHandeler	PTR FTN()void  size(2) Largest target is 1
		 -> App_ISR(), 

    Interrupt_INTx_Enable@int_obj	PTR const struct . size(1) Largest target is 6
		 -> int1_obj(BANK0[6]), 

    Interrupt_INTx_Enable@int_obj$EXT_InterruptHandeler	PTR FTN()void  size(2) Largest target is 1
		 -> App_ISR(), 

    Interrupt_INTx_Init@int_obj	PTR const struct . size(1) Largest target is 6
		 -> int1_obj(BANK0[6]), 

    Interrupt_INTx_Pin_Init@int_obj	PTR const struct . size(1) Largest target is 6
		 -> int1_obj(BANK0[6]), 

    Interrupt_INTx_Pin_Init@int_obj$EXT_InterruptHandeler	PTR FTN()void  size(2) Largest target is 1
		 -> App_ISR(), 

    Interrupt_RBx_Init@int_obj$EXT_InterruptHandeler	PTR FTN()void  size(2) Largest target is 0

    keypad_get_value@keypad_obj	PTR const struct . size(1) Largest target is 8
		 -> keypad(BANK0[8]), 

    keypad_get_value@value	PTR unsigned char  size(1) Largest target is 1
		 -> keypad_value(COMRAM[1]), 

    keypad_intialize@keypad_obj	PTR const struct . size(1) Largest target is 8
		 -> keypad(BANK0[8]), 

    lat_registers	PTR volatile unsigned char [5] size(2) Largest target is 1
		 -> LATA(BITBIGSFRlllll[1]), LATB(BITBIGSFRllllh[1]), LATC(BITBIGSFRllllh[1]), LATD(BITBIGSFRllllh[1]), 
		 -> LATE(BITBIGSFRllllh[1]), 

    lcd_4bit_intialize@lcd	PTR const struct . size(1) Largest target is 6
		 -> lcd(COMRAM[6]), 

    lcd_4bit_send_command@lcd	PTR const struct . size(1) Largest target is 6
		 -> lcd(COMRAM[6]), 

    lcd_4bit_send_data@lcd	PTR const struct . size(1) Largest target is 6
		 -> lcd(COMRAM[6]), 

    lcd_4bit_send_string@lcd	PTR const struct . size(1) Largest target is 6
		 -> lcd(COMRAM[6]), 

    lcd_4bit_send_string@str	PTR unsigned char  size(2) Largest target is 22
		 -> display_value(BANK0[4]), STR_10(CODE[20]), STR_11(CODE[6]), STR_12(CODE[2]), 
		 -> STR_13(CODE[18]), STR_14(CODE[6]), STR_15(CODE[2]), STR_16(CODE[20]), 
		 -> STR_17(CODE[6]), STR_18(CODE[2]), STR_19(CODE[20]), STR_20(CODE[6]), 
		 -> STR_21(CODE[2]), STR_22(CODE[16]), STR_23(CODE[6]), STR_24(CODE[2]), 
		 -> STR_25(CODE[16]), STR_26(CODE[16]), STR_27(CODE[14]), STR_28(CODE[14]), 
		 -> STR_29(CODE[16]), STR_30(CODE[18]), STR_31(CODE[18]), STR_32(CODE[18]), 
		 -> STR_33(CODE[18]), STR_34(CODE[14]), STR_35(CODE[16]), STR_36(CODE[18]), 
		 -> STR_4(CODE[22]), STR_5(CODE[18]), STR_6(CODE[20]), STR_7(CODE[14]), 
		 -> STR_8(CODE[16]), STR_9(CODE[8]), 

    lcd_4bit_send_string_pos@lcd	PTR const struct . size(1) Largest target is 6
		 -> lcd(COMRAM[6]), 

    lcd_4bit_send_string_pos@str	PTR unsigned char  size(2) Largest target is 22
		 -> display_value(BANK0[4]), STR_10(CODE[20]), STR_11(CODE[6]), STR_12(CODE[2]), 
		 -> STR_13(CODE[18]), STR_14(CODE[6]), STR_15(CODE[2]), STR_16(CODE[20]), 
		 -> STR_17(CODE[6]), STR_18(CODE[2]), STR_19(CODE[20]), STR_20(CODE[6]), 
		 -> STR_21(CODE[2]), STR_22(CODE[16]), STR_23(CODE[6]), STR_24(CODE[2]), 
		 -> STR_25(CODE[16]), STR_26(CODE[16]), STR_27(CODE[14]), STR_28(CODE[14]), 
		 -> STR_29(CODE[16]), STR_30(CODE[18]), STR_31(CODE[18]), STR_32(CODE[18]), 
		 -> STR_33(CODE[18]), STR_34(CODE[14]), STR_35(CODE[16]), STR_36(CODE[18]), 
		 -> STR_4(CODE[22]), STR_5(CODE[18]), STR_6(CODE[20]), STR_7(CODE[14]), 
		 -> STR_8(CODE[16]), STR_9(CODE[8]), 

    led_initialize@led	PTR const struct . size(1) Largest target is 1
		 -> green_led(COMRAM[1]), red_led(COMRAM[1]), 

    led_turn_off@led	PTR const struct . size(1) Largest target is 1
		 -> green_led(COMRAM[1]), red_led(COMRAM[1]), 

    led_turn_on@led	PTR const struct . size(1) Largest target is 1
		 -> green_led(COMRAM[1]), red_led(COMRAM[1]), 

    memset@dest	PTR void  size(1) Largest target is 4
		 -> display_value(BANK0[4]), 

    memset@p	PTR unsigned char  size(1) Largest target is 4
		 -> display_value(BANK0[4]), 

    motor_intialize@motor	PTR const struct . size(1) Largest target is 2
		 -> motor(COMRAM[2]), 

    motor_move_right@motor	PTR const struct . size(1) Largest target is 2
		 -> motor(COMRAM[2]), 

    motor_stop@motor	PTR const struct . size(1) Largest target is 2
		 -> motor(COMRAM[2]), 

    port_registers	PTR volatile unsigned char [5] size(2) Largest target is 1
		 -> PORTA(BITBIGSFRlllll[1]), PORTB(BITBIGSFRlllll[1]), PORTC(BITBIGSFRlllll[1]), PORTD(BITBIGSFRlllll[1]), 
		 -> PORTE(BITBIGSFRlllll[1]), 

    RB4_InterruptHandler	PTR FTN()void  size(2) Largest target is 1
		 -> NULL(), 

    RB5_InterruptHandler	PTR FTN()void  size(2) Largest target is 1
		 -> NULL(), 

    RB6_InterruptHandler	PTR FTN()void  size(2) Largest target is 1
		 -> NULL(), 

    RB7_InterruptHandler	PTR FTN()void  size(2) Largest target is 1
		 -> NULL(), 

    S1954$buffer	PTR unsigned char  size(2) Largest target is 0

    S1954$source	PTR const unsigned char  size(2) Largest target is 0

    S757$EXT_InterruptHandeler	PTR FTN()void  size(2) Largest target is 1
		 -> App_ISR(), 

    S865$EXT_InterruptHandeler	PTR FTN()void  size(2) Largest target is 0

    send_4bit@lcd	PTR const struct . size(1) Largest target is 6
		 -> lcd(COMRAM[6]), 

    send_4bit_enable_signal@lcd	PTR const struct . size(1) Largest target is 6
		 -> lcd(COMRAM[6]), 

    set_cursor_4bit@lcd	PTR const struct . size(1) Largest target is 6
		 -> lcd(COMRAM[6]), 

    SetInterruptHandler@int_obj	PTR const struct . size(1) Largest target is 6
		 -> int1_obj(BANK0[6]), 

    SetInterruptHandler@int_obj$EXT_InterruptHandeler	PTR FTN()void  size(2) Largest target is 1
		 -> App_ISR(), 

    sp__memset	PTR void  size(1) Largest target is 4
		 -> display_value(BANK0[4]), 

    sprintf@ap	PTR void [1] size(1) Largest target is 2
		 -> ?_sprintf(BANK0[2]), 

    sprintf@fmt	PTR const unsigned char  size(2) Largest target is 3
		 -> STR_1(CODE[3]), STR_2(CODE[3]), STR_3(CODE[3]), 

    sprintf@s	PTR unsigned char  size(1) Largest target is 4
		 -> display_value(BANK0[4]), 

    tris_registers	PTR volatile unsigned char [5] size(2) Largest target is 1
		 -> TRISA(BITBIGSFRlllll[1]), TRISB(BITBIGSFRlllh[1]), TRISC(BITBIGSFRlllh[1]), TRISD(BITBIGSFRlllh[1]), 
		 -> TRISE(BITBIGSFRlllh[1]), 

    vfpfcnvrt@ap	PTR PTR void  size(1) Largest target is 1
		 -> sprintf@ap(BANK0[1]), 

    vfpfcnvrt@cp	PTR unsigned char  size(2) Largest target is 3
		 -> STR_1(CODE[3]), STR_2(CODE[3]), STR_3(CODE[3]), 

    vfpfcnvrt@fmt	PTR PTR unsigned char  size(1) Largest target is 2
		 -> vfprintf@cfmt(COMRAM[2]), 

    vfpfcnvrt@fp	PTR struct _IO_FILE size(1) Largest target is 12
		 -> sprintf@f(BANK0[12]), 

    vfprintf@ap	PTR PTR void  size(1) Largest target is 1
		 -> sprintf@ap(BANK0[1]), 

    vfprintf@cfmt	PTR unsigned char  size(2) Largest target is 3
		 -> STR_1(CODE[3]), STR_2(CODE[3]), STR_3(CODE[3]), 

    vfprintf@fmt	PTR const unsigned char  size(2) Largest target is 3
		 -> STR_1(CODE[3]), STR_2(CODE[3]), STR_3(CODE[3]), 

    vfprintf@fp	PTR struct _IO_FILE size(1) Largest target is 12
		 -> sprintf@f(BANK0[12]), 


Critical Paths under _main in COMRAM

    _intialization->_lcd_4bit_intialize
    _motor_intialize->_gpio_pin_direction_intialize
    _led_initialize->_gpio_pin_direction_intialize
    _lcd_4bit_intialize->_lcd_4bit_send_command
    _gpio_pin_intialize->_gpio_pin_Write_logic
    _keypad_intialize->_gpio_pin_direction_intialize
    _Interrupt_INTx_Init->_Interrupt_INTx_Pin_Init
    _SetInterruptHandler->_INT0_SetInterruptHandler
    _SetInterruptHandler->_INT1_SetInterruptHandler
    _SetInterruptHandler->_INT2_SetInterruptHandler
    _Interrupt_INTx_Pin_Init->_gpio_pin_direction_intialize
    _motor_stop->_gpio_pin_Write_logic
    _motor_move_right->_gpio_pin_Write_logic
    _led_turn_on->_gpio_pin_Write_logic
    _led_turn_off->_gpio_pin_Write_logic
    _lcd_4bit_send_string_pos->_set_cursor_4bit
    _set_cursor_4bit->_lcd_4bit_send_command
    _lcd_4bit_send_command->_send_4bit
    _lcd_4bit_send_string->_lcd_4bit_send_data
    _lcd_4bit_send_data->_send_4bit
    _send_4bit_enable_signal->_gpio_pin_Write_logic
    _send_4bit->_gpio_pin_Write_logic
    _keypad_get_value->_gpio_pin_Write_logic
    _sprintf->_vfprintf
    _vfprintf->_vfpfcnvrt
    _vfpfcnvrt->_abs
    _abs->___awmod

Critical Paths under _InterruptManger in COMRAM

    _INT2_ISR->_App_ISR
    _INT1_ISR->_App_ISR
    _INT0_ISR->_App_ISR
    _App_ISR->i2_lcd_4bit_send_string_pos
    i2_motor_stop->i2_gpio_pin_Write_logic
    i2_led_turn_off->i2_gpio_pin_Write_logic
    i2_lcd_4bit_send_string_pos->i2_set_cursor_4bit
    i2_set_cursor_4bit->i2_lcd_4bit_send_command
    i2_lcd_4bit_send_command->i2_send_4bit
    i2_lcd_4bit_send_string->i2_lcd_4bit_send_data
    i2_lcd_4bit_send_data->i2_send_4bit
    i2_send_4bit_enable_signal->i2_gpio_pin_Write_logic
    i2_send_4bit->i2_gpio_pin_Write_logic

Critical Paths under _main in BANK0

    _main->_Enter_password
    _main->_Set_password
    _welcome_message->_lcd_4bit_send_string_pos
    _Set_password->_convert_byte_to_string
    _password_reset->_lcd_4bit_send_string_pos
    _password_handler->_lcd_4bit_send_string_pos
    _Enter_password->_convert_byte_to_string
    _password->_lcd_4bit_send_string_pos
    _convert_byte_to_string->_sprintf
    _vfprintf->_vfpfcnvrt

Critical Paths under _InterruptManger in BANK0

    None.

Critical Paths under _main in BANK1

    None.

Critical Paths under _InterruptManger in BANK1

    None.

Critical Paths under _main in BANK2

    None.

Critical Paths under _InterruptManger in BANK2

    None.

Critical Paths under _main in BANK3

    None.

Critical Paths under _InterruptManger in BANK3

    None.

Critical Paths under _main in BANK4

    None.

Critical Paths under _InterruptManger in BANK4

    None.

Critical Paths under _main in BANK5

    None.

Critical Paths under _InterruptManger in BANK5

    None.

Critical Paths under _main in BANK6

    None.

Critical Paths under _InterruptManger in BANK6

    None.

Critical Paths under _main in BANK7

    None.

Critical Paths under _InterruptManger in BANK7

    None.

Critical Paths under _main in BANK8

    None.

Critical Paths under _InterruptManger in BANK8

    None.

Critical Paths under _main in BANK9

    None.

Critical Paths under _InterruptManger in BANK9

    None.

Critical Paths under _main in BANK10

    None.

Critical Paths under _InterruptManger in BANK10

    None.

Critical Paths under _main in BANK11

    None.

Critical Paths under _InterruptManger in BANK11

    None.

Critical Paths under _main in BANK12

    None.

Critical Paths under _InterruptManger in BANK12

    None.

Critical Paths under _main in BANK13

    None.

Critical Paths under _InterruptManger in BANK13

    None.

Critical Paths under _main in BANK14

    None.

Critical Paths under _InterruptManger in BANK14

    None.

Critical Paths under _main in BANK15

    None.

Critical Paths under _InterruptManger in BANK15

    None.

Call Graph Tables:

 ---------------------------------------------------------------------------------
 (Depth) Function   	        Calls       Base Space   Used Autos Params    Refs
 ---------------------------------------------------------------------------------
 (0) _main                                                 7     2      5  580390
                                              0 BANK1      7     2      5
                     _Enter_password
                       _Set_password
                      _intialization
                   _keypad_get_value
              _lcd_4bit_send_command
           _lcd_4bit_send_string_pos
                    _welcome_message
 ---------------------------------------------------------------------------------
 (1) _welcome_message                                      2     2      0   68786
                                             52 COMRAM     2     2      0
              _lcd_4bit_send_command
           _lcd_4bit_send_string_pos
 ---------------------------------------------------------------------------------
 (1) _intialization                                        0     0      0   33047
                _Interrupt_INTx_Init
       _gpio_pin_direction_intialize
                   _keypad_intialize
                 _lcd_4bit_intialize
                     _led_initialize
                    _motor_intialize
 ---------------------------------------------------------------------------------
 (2) _motor_intialize                                      2     1      1    1089
                                             42 COMRAM     1     0      1
       _gpio_pin_direction_intialize
 ---------------------------------------------------------------------------------
 (2) _led_initialize                                       4     3      1    1220
                                             42 COMRAM     3     2      1
       _gpio_pin_direction_intialize
 ---------------------------------------------------------------------------------
 (2) _lcd_4bit_intialize                                   3     2      1   25944
                                             47 COMRAM     3     2      1
                 _gpio_pin_intialize
              _lcd_4bit_send_command
 ---------------------------------------------------------------------------------
 (3) _gpio_pin_intialize                                   3     2      1    5890
                                             43 COMRAM     3     2      1
               _gpio_pin_Write_logic
       _gpio_pin_direction_intialize
 ---------------------------------------------------------------------------------
 (2) _keypad_intialize                                     4     3      1    1229
                                             42 COMRAM     4     3      1
       _gpio_pin_direction_intialize
 ---------------------------------------------------------------------------------
 (2) _Interrupt_INTx_Init                                  2     1      1    2626
                                             43 COMRAM     1     0      1
           _Interrupt_INTx_ClearFlag
             _Interrupt_INTx_Disable
           _Interrupt_INTx_Edge_Init
              _Interrupt_INTx_Enable
            _Interrupt_INTx_Pin_Init
                _SetInterruptHandler
 ---------------------------------------------------------------------------------
 (3) _SetInterruptHandler                                  4     3      1     585
                                             37 COMRAM     3     2      1
           _INT0_SetInterruptHandler
           _INT1_SetInterruptHandler
           _INT2_SetInterruptHandler
 ---------------------------------------------------------------------------------
 (4) _INT2_SetInterruptHandler                             3     1      2     129
                                             35 COMRAM     2     0      2
 ---------------------------------------------------------------------------------
 (4) _INT1_SetInterruptHandler                             3     1      2     129
                                             35 COMRAM     2     0      2
 ---------------------------------------------------------------------------------
 (4) _INT0_SetInterruptHandler                             3     1      2     129
                                             35 COMRAM     2     0      2
 ---------------------------------------------------------------------------------
 (3) _Interrupt_INTx_Pin_Init                              2     1      1    1067
                                             42 COMRAM     1     0      1
       _gpio_pin_direction_intialize
 ---------------------------------------------------------------------------------
 (3) _gpio_pin_direction_intialize                         7     6      1     939
                                             35 COMRAM     7     6      1
 ---------------------------------------------------------------------------------
 (3) _Interrupt_INTx_Enable                                4     3      1     132
                                             35 COMRAM     3     2      1
 ---------------------------------------------------------------------------------
 (3) _Interrupt_INTx_Edge_Init                             4     3      1     264
                                             35 COMRAM     3     2      1
 ---------------------------------------------------------------------------------
 (3) _Interrupt_INTx_Disable                               4     3      1     208
                                             35 COMRAM     3     2      1
 ---------------------------------------------------------------------------------
 (3) _Interrupt_INTx_ClearFlag                             4     3      1     132
                                             35 COMRAM     3     2      1
 ---------------------------------------------------------------------------------
 (1) _Set_password                                         2     2      0  226277
                                             28 BANK0      2     2      0
                             ___wmul
             _convert_byte_to_string
                   _keypad_get_value
              _lcd_4bit_send_command
           _lcd_4bit_send_string_pos
                   _password_handler
                     _password_reset
 ---------------------------------------------------------------------------------
 (2) _password_reset                                       2     2      0   72847
                                             52 COMRAM     2     2      0
               _Data_EEPROM_ReadByte
              _Data_EEPROM_WriteByte
                            ___lwdiv
                            ___lwmod
                             ___wmul
              _lcd_4bit_send_command
           _lcd_4bit_send_string_pos
 ---------------------------------------------------------------------------------
 (2) _password_handler                                     2     2      0   70419
                                             52 COMRAM     2     2      0
              _Data_EEPROM_WriteByte
                            ___lwdiv
                            ___lwmod
              _lcd_4bit_send_command
           _lcd_4bit_send_string_pos
 ---------------------------------------------------------------------------------
 (3) ___lwmod                                              5     1      4     463
                                             35 COMRAM     5     1      4
 ---------------------------------------------------------------------------------
 (3) ___lwdiv                                              7     3      4     466
                                             35 COMRAM     7     3      4
 ---------------------------------------------------------------------------------
 (3) _Data_EEPROM_WriteByte                                6     2      4     704
                                             35 COMRAM     5     1      4
 ---------------------------------------------------------------------------------
 (1) _Enter_password                                       2     2      0  177236
                                             28 BANK0      2     2      0
                             ___wmul
             _convert_byte_to_string
                   _keypad_get_value
              _lcd_4bit_send_command
           _lcd_4bit_send_string_pos
                           _password
 ---------------------------------------------------------------------------------
 (2) _password                                             2     2      0   94225
                                             52 COMRAM     2     2      0
               _Data_EEPROM_ReadByte
                             ___wmul
               _gpio_pin_Write_logic
              _lcd_4bit_send_command
           _lcd_4bit_send_string_pos
                       _led_turn_off
                        _led_turn_on
                   _motor_move_right
                         _motor_stop
 ---------------------------------------------------------------------------------
 (3) _motor_stop                                           2     1      1    4659
                                             43 COMRAM     1     0      1
               _gpio_pin_Write_logic
 ---------------------------------------------------------------------------------
 (3) _motor_move_right                                     2     1      1    4533
                                             43 COMRAM     1     0      1
               _gpio_pin_Write_logic
 ---------------------------------------------------------------------------------
 (3) _led_turn_on                                          4     3      1    4668
                                             43 COMRAM     3     2      1
               _gpio_pin_Write_logic
 ---------------------------------------------------------------------------------
 (3) _led_turn_off                                         4     3      1    4768
                                             43 COMRAM     3     2      1
               _gpio_pin_Write_logic
 ---------------------------------------------------------------------------------
 (2) _lcd_4bit_send_string_pos                             6     1      5   49105
                                              0 BANK0      5     0      5
               _lcd_4bit_send_string
                    _set_cursor_4bit
 ---------------------------------------------------------------------------------
 (3) _set_cursor_4bit                                      5     2      3   20336
                                             47 COMRAM     5     2      3
              _lcd_4bit_send_command
 ---------------------------------------------------------------------------------
 (4) _lcd_4bit_send_command                                3     1      2   19681
                                             45 COMRAM     2     0      2
               _gpio_pin_Write_logic
                          _send_4bit
            _send_4bit_enable_signal
 ---------------------------------------------------------------------------------
 (3) _lcd_4bit_send_string                                 4     1      3   15170
                                             47 COMRAM     3     0      3
                 _lcd_4bit_send_data
 ---------------------------------------------------------------------------------
 (4) _lcd_4bit_send_data                                   3     1      2   14921
                                             45 COMRAM     2     0      2
               _gpio_pin_Write_logic
                          _send_4bit
            _send_4bit_enable_signal
 ---------------------------------------------------------------------------------
 (5) _send_4bit_enable_signal                              1     0      1    4731
                                             43 COMRAM     1     0      1
               _gpio_pin_Write_logic
 ---------------------------------------------------------------------------------
 (5) _send_4bit                                            2     0      2    5167
                                             43 COMRAM     2     0      2
               _gpio_pin_Write_logic
 ---------------------------------------------------------------------------------
 (3) ___wmul                                               6     2      4    1723
                                             35 COMRAM     6     2      4
 ---------------------------------------------------------------------------------
 (3) _Data_EEPROM_ReadByte                                 6     3      3     705
                                             35 COMRAM     5     2      3
 ---------------------------------------------------------------------------------
 (1) _keypad_get_value                                     9     7      2    6258
                                             43 COMRAM     8     6      2
                _gpio_pin_Read_logic
               _gpio_pin_Write_logic
 ---------------------------------------------------------------------------------
 (6) _gpio_pin_Write_logic                                 8     6      2    4383
                                             35 COMRAM     8     6      2
 ---------------------------------------------------------------------------------
 (2) _gpio_pin_Read_logic                                  7     5      2     504
                                             35 COMRAM     7     5      2
 ---------------------------------------------------------------------------------
 (2) _convert_byte_to_string                               3     2      1    6244
                                             26 BANK0      2     1      1
                             _memset
                            _sprintf
 ---------------------------------------------------------------------------------
 (3) _sprintf                                             20    15      5    4717
                                              8 BANK0     18    13      5
                           _vfprintf
 ---------------------------------------------------------------------------------
 (4) _vfprintf                                             6     2      4    3871
                                             50 COMRAM     6     2      4
                          _vfpfcnvrt
 ---------------------------------------------------------------------------------
 (5) _vfpfcnvrt                                           13    10      3    3410
                                             45 COMRAM     5     2      3
                                              0 BANK0      8     8      0
                            ___awdiv
                            ___awmod
                                _abs
                              _fputc
 ---------------------------------------------------------------------------------
 (6) _fputc                                                8     5      3     957
                                             35 COMRAM     8     5      3
                              _putch
 ---------------------------------------------------------------------------------
 (7) _putch                                                1     1      0       0
 ---------------------------------------------------------------------------------
 (6) _abs                                                  4     2      2     183
                                             41 COMRAM     4     2      2
                            ___awmod (ARG)
 ---------------------------------------------------------------------------------
 (6) ___awmod                                              6     2      4     613
                                             35 COMRAM     6     2      4
 ---------------------------------------------------------------------------------
 (6) ___awdiv                                              8     4      4     625
                                             35 COMRAM     8     4      4
 ---------------------------------------------------------------------------------
 (3) _memset                                               6     1      5     947
                                             35 COMRAM     6     1      5
 ---------------------------------------------------------------------------------
 Estimated maximum stack depth 7
 ---------------------------------------------------------------------------------
 (Depth) Function   	        Calls       Base Space   Used Autos Params    Refs
 ---------------------------------------------------------------------------------
 (8) _InterruptManger                                     12    12      0   39966
                                             23 COMRAM    12    12      0
                           _INT0_ISR
                           _INT1_ISR
                           _INT2_ISR
                            _RB4_ISR
 ---------------------------------------------------------------------------------
 (9) _RB4_ISR                                              0     0      0       0
 ---------------------------------------------------------------------------------
 (9) _INT2_ISR                                             0     0      0   13322
                                NULL *
                            _App_ISR *
 ---------------------------------------------------------------------------------
 (9) _INT1_ISR                                             0     0      0   13322
                                NULL *
                            _App_ISR *
 ---------------------------------------------------------------------------------
 (9) _INT0_ISR                                             0     0      0   13322
                                NULL *
                            _App_ISR *
 ---------------------------------------------------------------------------------
 (10) _App_ISR                                             2     2      0   13322
                                             21 COMRAM     2     2      0
             i2_gpio_pin_Write_logic
            i2_lcd_4bit_send_command
         i2_lcd_4bit_send_string_pos
                     i2_led_turn_off
                       i2_motor_stop
 ---------------------------------------------------------------------------------
 (11) i2_motor_stop                                        2     1      1     887
                                              7 COMRAM     1     0      1
             i2_gpio_pin_Write_logic
 ---------------------------------------------------------------------------------
 (11) i2_led_turn_off                                      4     3      1     967
                                              7 COMRAM     3     2      1
             i2_gpio_pin_Write_logic
 ---------------------------------------------------------------------------------
 (11) i2_lcd_4bit_send_string_pos                          6     1      5    7292
                                             16 COMRAM     5     0      5
             i2_lcd_4bit_send_string
                  i2_set_cursor_4bit
 ---------------------------------------------------------------------------------
 (12) i2_set_cursor_4bit                                   5     2      3    3666
                                             11 COMRAM     5     2      3
            i2_lcd_4bit_send_command
 ---------------------------------------------------------------------------------
 (13) i2_lcd_4bit_send_command                             3     1      2    3389
                                              9 COMRAM     2     0      2
             i2_gpio_pin_Write_logic
                        i2_send_4bit
          i2_send_4bit_enable_signal
 ---------------------------------------------------------------------------------
 (12) i2_lcd_4bit_send_string                              4     1      3    3278
                                             11 COMRAM     3     0      3
               i2_lcd_4bit_send_data
 ---------------------------------------------------------------------------------
 (13) i2_lcd_4bit_send_data                                3     1      2    3129
                                              9 COMRAM     2     0      2
             i2_gpio_pin_Write_logic
                        i2_send_4bit
          i2_send_4bit_enable_signal
 ---------------------------------------------------------------------------------
 (14) i2_send_4bit_enable_signal                           1     0      1     935
                                              7 COMRAM     1     0      1
             i2_gpio_pin_Write_logic
 ---------------------------------------------------------------------------------
 (14) i2_send_4bit                                         2     0      2    1171
                                              7 COMRAM     2     0      2
             i2_gpio_pin_Write_logic
 ---------------------------------------------------------------------------------
 (12) i2_gpio_pin_Write_logic                              8     6      2     787
                                              0 COMRAM     7     5      2
 ---------------------------------------------------------------------------------
 (10) NULL(Fake)                                           0     0      0       0
 ---------------------------------------------------------------------------------
 Estimated maximum stack depth 14
 ---------------------------------------------------------------------------------

 Call Graph Graphs:

 _main (ROOT)
   _Enter_password
     ___wmul
     _convert_byte_to_string
       _memset
       _sprintf
         _vfprintf
           _vfpfcnvrt
             ___awdiv
             ___awmod
             _abs
               ___awmod (ARG)
             _fputc
               _putch
     _keypad_get_value
       _gpio_pin_Read_logic
       _gpio_pin_Write_logic
     _lcd_4bit_send_command
       _gpio_pin_Write_logic
       _send_4bit
         _gpio_pin_Write_logic
       _send_4bit_enable_signal
         _gpio_pin_Write_logic
     _lcd_4bit_send_string_pos
       _lcd_4bit_send_string
         _lcd_4bit_send_data
           _gpio_pin_Write_logic
           _send_4bit
           _send_4bit_enable_signal
       _set_cursor_4bit
         _lcd_4bit_send_command
     _password
       _Data_EEPROM_ReadByte
       ___wmul
       _gpio_pin_Write_logic
       _lcd_4bit_send_command
       _lcd_4bit_send_string_pos
       _led_turn_off
         _gpio_pin_Write_logic
       _led_turn_on
         _gpio_pin_Write_logic
       _motor_move_right
         _gpio_pin_Write_logic
       _motor_stop
         _gpio_pin_Write_logic
   _Set_password
     ___wmul
     _convert_byte_to_string
     _keypad_get_value
     _lcd_4bit_send_command
     _lcd_4bit_send_string_pos
     _password_handler
       _Data_EEPROM_WriteByte
       ___lwdiv
       ___lwmod
       _lcd_4bit_send_command
       _lcd_4bit_send_string_pos
     _password_reset
       _Data_EEPROM_ReadByte
       _Data_EEPROM_WriteByte
       ___lwdiv
       ___lwmod
       ___wmul
       _lcd_4bit_send_command
       _lcd_4bit_send_string_pos
   _intialization
     _Interrupt_INTx_Init
       _Interrupt_INTx_ClearFlag
       _Interrupt_INTx_Disable
       _Interrupt_INTx_Edge_Init
       _Interrupt_INTx_Enable
       _Interrupt_INTx_Pin_Init
         _gpio_pin_direction_intialize
       _SetInterruptHandler
         _INT0_SetInterruptHandler
         _INT1_SetInterruptHandler
         _INT2_SetInterruptHandler
     _gpio_pin_direction_intialize
     _keypad_intialize
       _gpio_pin_direction_intialize
     _lcd_4bit_intialize
       _gpio_pin_intialize
         _gpio_pin_Write_logic
         _gpio_pin_direction_intialize
       _lcd_4bit_send_command
     _led_initialize
       _gpio_pin_direction_intialize
     _motor_intialize
       _gpio_pin_direction_intialize
   _keypad_get_value
   _lcd_4bit_send_command
   _lcd_4bit_send_string_pos
   _welcome_message
     _lcd_4bit_send_command
     _lcd_4bit_send_string_pos

 _InterruptManger (ROOT)
   _INT0_ISR
     NULL(Fake) *
     _App_ISR *
       i2_gpio_pin_Write_logic
       i2_lcd_4bit_send_command
         i2_gpio_pin_Write_logic
         i2_send_4bit
           i2_gpio_pin_Write_logic
         i2_send_4bit_enable_signal
           i2_gpio_pin_Write_logic
       i2_lcd_4bit_send_string_pos
         i2_lcd_4bit_send_string
           i2_lcd_4bit_send_data
             i2_gpio_pin_Write_logic
             i2_send_4bit
             i2_send_4bit_enable_signal
         i2_set_cursor_4bit
           i2_lcd_4bit_send_command
       i2_led_turn_off
         i2_gpio_pin_Write_logic
       i2_motor_stop
         i2_gpio_pin_Write_logic
   _INT1_ISR
     NULL(Fake) *
     _App_ISR *
   _INT2_ISR
     NULL(Fake) *
     _App_ISR *
   _RB4_ISR

 Address spaces:
Name               Size   Autos  Total    Cost      Usage
BIGRAM             F7F      0       0      42        0.0%
EEDATA             400      0       0       0        0.0%
BITBANK14          100      0       0      32        0.0%
BANK14             100      0       0      33        0.0%
BITBANK13          100      0       0      30        0.0%
BANK13             100      0       0      31        0.0%
BITBANK12          100      0       0      28        0.0%
BANK12             100      0       0      29        0.0%
BITBANK11          100      0       0      26        0.0%
BANK11             100      0       0      27        0.0%
BITBANK10          100      0       0      24        0.0%
BANK10             100      0       0      25        0.0%
BITBANK9           100      0       0      22        0.0%
BANK9              100      0       0      23        0.0%
BITBANK8           100      0       0      20        0.0%
BANK8              100      0       0      21        0.0%
BITBANK7           100      0       0      18        0.0%
BANK7              100      0       0      19        0.0%
BITBANK6           100      0       0      16        0.0%
BANK6              100      0       0      17        0.0%
BITBANK5           100      0       0      14        0.0%
BANK5              100      0       0      15        0.0%
BITBANK4           100      0       0      12        0.0%
BANK4              100      0       0      13        0.0%
BITBANK3           100      0       0      10        0.0%
BANK3              100      0       0      11        0.0%
BITBANK2           100      0       0       8        0.0%
BANK2              100      0       0       9        0.0%
BITBANK1           100      0       0       6        0.0%
BANK1              100      7       7       7        2.7%
BITBANK15           80      0       0      34        0.0%
BANK15              80      0       0      35        0.0%
BITBANK0            80      0       0       4        0.0%
BANK0               80     1E      80       5      100.0%
BITCOMRAM           7E      0       0       0        0.0%
COMRAM              7E     38      5B       1       72.2%
BITBIGSFRlhl        45      0       0      37        0.0%
BITBIGSFRlllh        F      0       0      38        0.0%
BITBIGSFRh           D      0       0      36        0.0%
BITBIGSFRllllh       4      0       0      39        0.0%
BITBIGSFRlllll       4      0       0      40        0.0%
BIGSFR               0      0       0     200        0.0%
BITSFR               0      0       0     200        0.0%
SFR                  0      0       0     200        0.0%
STACK                0      0       0       2        0.0%
NULL                 0      0       0       0        0.0%
ABS                  0      0      E2      41        0.0%
DATA                 0      0      E2       3        0.0%
CODE                 0      0       0       0        0.0%


Microchip Technology PIC18 Macro Assembler V2.45 build 20230818022343 
Symbol Table                                                                                   Mon Mar 04 00:41:18 2024

                           __end_ofi2_send_4bit 219C                     ??i2_send_4bit_enable_signal 0009  
INT2_SetInterruptHandler@INTx_InterruptHandeler 0024  INT1_SetInterruptHandler@INTx_InterruptHandeler 0024  
INT0_SetInterruptHandler@INTx_InterruptHandeler 0024                                              l33 2594  
                                            l38 24B8                                              l48 248A  
                                            l67 1F32                                              l79 13B4  
                                  ___awdiv@sign 0029                      keypad_get_value@keypad_obj 002C  
                           ___wmul@multiplicand 0026                       gpio_pin_Write_logic@logic 0025  
                    i2lcd_4bit_send_command@lcd 000A                                             l113 157E  
                                           l123 201E                                             l212 206A  
                                           l141 2392                                             l118 1FD2  
                                           l215 25DC                                             l136 1A44  
                                           l251 1D44                                             l340 149C  
                                           l412 1F86                                             l261 1C20  
                                           l238 18BA                                             l254 1BB6  
                                           l510 1DA8                                             l247 1CF4  
                                           l352 11BE                                             l265 1C74  
                                           l505 1D5A                                             l258 1C0A  
                                           l291 2218                                             l507 1D60  
                                           l451 21E0                                             l292 2224  
                                           l508 1D66                                             l364 0E7A  
                                           l533 10AE                                             l199 20B6  
                                           l544 1DBE                                             l297 22E4  
                                           l289 220A                                             l546 1DC4  
                                           l538 267E                                             l554 265E  
                                           l547 1DCA                                             l812 25BA  
                                           l804 0AD4                                             l564 261E  
                                           l549 1E0C                                             l494 1B46  
                                           l559 263E                                             l575 1830  
                                           l496 1B50                                             l760 235A  
                                           l809 082A                                             l497 1B5A  
                                           l499 1BA0                                             l763 22A6  
                                           l791 0D54                                             l784 04B0  
                                           l799 0C20                      send_4bit_enable_signal@lcd 002C  
                    ??_INT0_SetInterruptHandler 0026                               ??_motor_intialize 002C  
                                           _abs 23CA                                             _lcd 0051  
                                  ___awmod@sign 0029                             led_initialize@F3060 004A  
                                           prod 0FF3                                             tosl 0FFD  
                                           wreg 0FE8                                    ?_led_turn_on 002C  
                               __end_of_RB4_ISR 2690                                            l1043 1642  
                                          ?_abs 002A                                            l1310 1B30  
                                          l1303 1B28                                            l1056 16F2  
                                          l1320 1E70                                            l1313 1E68  
                                          l4000 1E5C                                            l4002 1E62  
                                          l1540 2268                                            l1534 0692  
                                          l1544 23E4                                            l4120 13A2  
                                          l4104 1334                                            l4040 2584  
                                          l1570 2690                                            l3330 10B0  
                                          l4122 13A4                                            l4114 1386  
                                          l4106 1344                                            l4130 14C6  
                                          l4210 1CF8                                            l1547 23FC  
                                          l3332 10C4                                            l4116 1390  
                                          l4108 1354                                            l4220 219C  
                                          l4060 1F10                                            l4044 1ED4  
                                          l4132 14CA                                            l4124 149E  
                                          l4212 1D2A                                            l4036 2570  
                                          l3342 1192                                            l3334 10E4  
                                          l4118 1392                                            l4230 21D8  
                                          l4222 21AC                                            l4070 1F22  
                                          l4054 1EF4                                            l4046 1EEC  
                                          l4150 152A                                            l4142 14F0  
                                          l4126 14AE                                            l4214 1D2C  
                                          l4206 1CE0                                            l4038 2580  
                                          l1559 179C                                            l1496 2320  
                                          l3336 10EC                                            l3344 11BC  
                                          l4072 12C6                                            l4224 21B0  
                                          l4056 1EFE                                            l4048 1EF0  
                                          l4160 1566                                            l4152 1536  
                                          l4144 14FE                                            l4136 14DE  
                                          l4128 14B2                                            l4216 1D3C  
                                          l4208 1CF0                                            l1489 242C  
                                          l3338 1142                                            l4090 1302  
                                          l4074 12E6                                            l3370 2020  
                                          l3610 1A0E                                            l4226 21C8  
                                          l4066 1F14                                            l4058 1F00  
                                          l4162 1572                                            l4154 1542  
                                          l4146 150A                                            l4138 14EA  
                                          l5300 1616                                            l4092 1310  
                                          l4084 12FE                                            l4076 12F6  
                                          l3372 25BC                                            l3612 1A12  
                                          l3604 19CE                                            l3700 249C  
                                          l3620 2656                                            l4228 21D0  
                                          l4068 1F20                                            l4156 154E  
                                          l4148 1524                                            l5302 161C  
                                          l4094 1312                                            l4078 12FA  
                                          l3374 25C8                                            l3606 19DE  
                                          l3702 24A0                                            l3710 2472  
                                          l3622 265E                                            l3614 2640  
                                          l3630 2632                                            l4158 155A  
                                          l5304 1622                                            l5320 1662  
                                          l5312 1644                                            l5400 062A  
                                          l4096 1322                                            l3376 25D0  
                                          l3608 19E2                                            l3800 21FE  
                                          l3616 2640                                            l3632 2636  
                                          l3640 2600                                            l3720 1F70  
                                          l5306 1632                                            l5330 169A  
                                          l5322 1670                                            l5314 1648  
                                          l5402 0644                                            l5410 066E  
                                          l4098 1330                                            l3810 22B8  
                                          l3706 245E                                            l3802 2200  
                                          l3570 0D8A                                            l3618 2652  
                                          l3634 263E                                            l3626 2620  
                                          l3642 2612                                            l3722 1F84  
                                          l3714 1F34                                            l5308 163A  
                                          l5332 16A8                                            l5340 16D2  
                                          l5324 1678                                            l5316 1656  
                                          l5404 0648                                            l5420 2242  
                                          l3820 22CA                                            l3812 22BC  
                                          l3492 1FD4                                            l3484 1F88  
                                          l3708 246E                                            l3804 2204  
                                          l5500 0C18                                            l3572 0D92  
                                          l3580 0E78                                            l3628 2620  
                                          l3644 2616                                            l3716 1F48  
                                          l5270 1584                                            l5342 16E2  
                                          l5334 16BE                                            l5326 168A  
                                          l5318 165E                                            l5350 1704  
                                          l5406 065E                                            l5422 2260  
                                          l3822 22CC                                            l3814 22C2  
                                          l3494 1FE4                                            l3486 1F98  
                                          l3590 1838                                            l5430 2372  
                                          l3806 2208                                            l5510 06FA  
                                          l5502 0694                                            l3574 0DE8  
                                          l3566 0D56                                            l3910 2660  
                                          l3646 261E                                            l3638 2600  
                                          l3718 1F68                                            l5440 2410  
                                          l5280 15B4                                            l5272 1592  
                                          l5344 16EA                                            l5336 16C6  
                                          l5328 1692                                            l5352 1714  
                                          l5416 2226                                            l3824 22CE  
                                          l3816 22C6                                            l3808 22A8  
                                          l3496 1FE8                                            l3488 1F9C  
                                          l3592 184A                                            l5432 2382  
                                          l3760 1BBA                                            l5600 0C2E  
                                          l5520 0774                                            l5512 0716  
                                          l5504 06B4                                            l3832 1D46  
                                          l6080 1090                                            l3904 1072  
                                          l3568 0D6A                                            l3912 2670  
                                          l3920 17AE                                            l6072 0952  
                                          l5442 2412                                            l5290 15E2  
                                          l5282 15B8                                            l5274 159A  
                                          l5338 16CC                                            l5362 23CA  
                                          l5354 171E                                            l5370 04E2  
                                          l5418 2232                                            l5450 2300  
                                          l3690 13EA                                            l3826 22D0  
                                          l3818 22C8                                            l3594 185C  
                                          l5426 235C                                            l3770 1C0C  
                                          l3762 1BEC                                            l5610 0C8C  
                                          l5602 0C40                                            l5530 07DA  
                                          l5522 078E                                            l5514 0732  
                                          l5506 06D6                                            l3850 1DAA  
                                          l6082 1D8A                                            l3834 1D56  
                                          l3578 0E38                                            l3914 2674  
                                          l6074 1812                                            l3930 17DE  
                                          l3922 17B2                                            l4458 2322  
                                          l5436 23FE                                            l5292 15F0  
                                          l5284 15C0                                            l5276 159E  
                                          l5268 1580                                            l5364 23D8  
                                          l5356 173A                                            l5348 16F4  
                                          l5380 053E                                            l5372 04F0  
                                          l5452 2314                                            l5444 22E6  
                                          l5460 2082                                            l3692 13F2  
                                          l3828 22E4                                            l3596 186E  
                                          l3588 1832                                            l5428 236E  
                                          l3780 1C68                                            l3772 1C1C  
                                          l3764 1BEE                                            l3756 1BA2  
                                          l5620 0CEC                                            l5612 0C98  
                                          l5604 0C5A                                            l5540 0808  
                                          l5524 07A4                                            l5516 0746  
                                          l5508 06EE                                            l5700 0242  
                                          l6084 1DEE                                            l3852 1DBA  
                                          l3836 1D5C                                            l3844 1D6C  
                                          l6076 0E62                                            l3924 17C4  
                                          l5438 2406                                            l5294 15F6  
                                          l5286 15D2                                            l5278 15AC  
                                          l5358 176C                                            l5390 05D4  
                                          l5382 0556                                            l5374 04F4  
                                          l5366 04B2                                            l5446 22F0  
                                          l5462 2086                                            l3694 149A  
                                          l3686 13B6                                            l6086 1894  
                                          l3598 1880                                            l3774 1C24  
                                          l3766 1BFE                                            l3758 1BB2  
                                          l5550 09A8                                            l5622 0D04  
                                          l5614 0CA8                                            l5630 0D3A  
                                          l5606 0C74                                            l3790 21F0  
                                          l5470 0B4E                                            l5542 0810  
                                          l5518 075A                                            l5526 07B4  
                                          l5710 02AC                                            l5702 025A  
                                          l3854 1DC0                                            l3862 1DD0  
                                          l3870 0FAE                                            l6078 1B82  
                                          l3942 1B32                                            l3926 17C8  
                                          l3918 179E                                            l5296 160C  
                                          l5288 15DA                                            l5392 05E8  
                                          l5384 0570                                            l5376 0502  
                                          l5368 04D6                                            l5448 22F8  
                                          l5464 209E                                            l5456 2070  
                                          l3688 13CA                                            l6088 11A6  
                                          l3960 2596                                            l3776 1C56  
                                          l5560 0A10                                            l5552 09CA  
                                          l5632 0D4C                                            l5624 0D1E  
                                          l5616 0CCA                                            l5608 0C7C  
                                          l3792 21F4                                            l3784 21E2  
                                          l5480 0B96                                            l5472 0B52  
                                          l5544 0818                                            l5528 07C0  
                                          l5536 07F8                                            l5720 0302  
                                          l5712 02B4                                            l5704 026C  
                                          l5640 0030                                            l3880 0FEE  
                                          l3872 0FB2                                            l3944 1B42  
                                          l3936 17F4                                            l5800 0834  
                                          l5298 1614                                            l5394 05F8  
                                          l5386 0588                                            l5378 0520  
                                          l5458 2070                                            l3962 25B2  
                                          l3778 1C58                                            l3698 248C  
                                          l5562 0A18                                            l5554 09E2  
                                          l5570 0A50                                            l5634 0D50  
                                          l5626 0D20                                            l5618 0CD4  
                                          l3794 21F8                                            l3786 21E2  
                                          l3970 1AD8                                            l5482 0BAC  
                                          l5474 0B56                                            l5466 0AD6  
                                          l5546 0822                                            l5538 0800  
                                          l5730 035A                                            l5722 030E  
                                          l5714 02C6                                            l5706 0270  
                                          l5650 009A                                            l5642 0040  
                                          l3882 0FF2                                            l3874 0FCC  
                                          l3946 1B4C                                            l3954 1B64  
                                          l5802 084E                                            l5396 0608  
                                          l5388 05B8                                            l5580 0AA2  
                                          l5572 0A5C                                            l5564 0A30  
                                          l5556 09EE                                            l5548 0988  
                                          l5628 0D22                                            l3796 21FA  
                                          l3788 21EA                                            l3980 1B12  
                                          l3972 1AE0                                            l5476 0B62  
                                          l5468 0AEE                                            l5484 0BBC  
                                          l5740 039C                                            l5724 0326  
                                          l5732 035C                                            l5716 02D2  
                                          l5660 0106                                            l5652 00AA  
                                          l5644 0074                                            l5708 0278  
                                          l5636 0012                                            l3892 1032  
                                          l3884 100C                                            l3876 0FD2  
                                          l3868 0F9E                                            l5820 08D6  
                                          l5812 08A2                                            l5804 0868  
                                          l5398 0618                                            l5590 0ACC  
                                          l5582 0AAA                                            l5574 0A76  
                                          l5566 0A38                                            l5558 0A08  
                                          l3798 21FC                                            l3982 1B1A  
                                          l3974 1AE8                                            l3966 1ABE  
                                          l3990 1E20                                            l5486 0BC8  
                                          l5494 0C00                                            l5478 0B7C  
                                          l5750 03F0                                            l5742 03A8  
                                          l5726 033E                                            l5718 02E2  
                                          l5734 0374                                            l5670 014E  
                                          l5662 0120                                            l5654 00CA  
                                          l5646 007C                                            l5638 001E  
                                          l3894 104C                                            l3886 1012  
                                          l3878 0FEC                                            l5822 08F0  
                                          l5814 08B2                                            l5806 0882  
                                          l5584 0AB2                                            l5576 0A7E  
                                          l5568 0A40                                            l3984 1B1C  
                                          l3976 1AF6                                            l3968 1AC6  
                                          l3992 1E28                                            l5496 0C08  
                                          l5488 0BE2                                            l5760 045C  
                                          l5752 0400                                            l5744 03C2  
                                          l5736 0386                                            l5728 0358  
                                          l5680 01A4                                            l5672 0152  
                                          l5664 0122                                            l5656 00D6  
                                          l5648 008E                                            l3896 1052  
                                          l3888 102C                                            l5592 226A  
                                          l5824 090A                                            l5816 08C2  
                                          l5832 093C                                            l5808 088E  
                                          l5578 0A8A                                            l3986 1B22  
                                          l3978 1AFC                                            l3994 1E30  
                                          l5498 0C10                                            l5770 04A4  
                                          l5762 0476                                            l5754 0420  
                                          l5746 03DC                                            l5738 038A  
                                          l5690 01F4                                            l5682 01AC  
                                          l5674 0164                                            l5658 00EE  
                                          l5666 0124                                            l3898 106C  
                                          l5594 2284                                            l5826 0924  
                                          l5818 08CA                                            l5834 0968  
                                          l5588 0AC2                                            l3996 1E3E  
                                          l3988 1E0E                                            l5772 04A8  
                                          l5764 0478                                            l5756 042C  
                                          l5748 03E4                                            l5692 020C  
                                          l5684 01B8                                            l5676 0170  
                                          l5668 013C                                            l5596 229A  
                                          l5828 0934                                            l5598 0C22  
                                          l3998 1E54                                            l5758 0444  
                                          l5766 047A                                            l5774 04AC  
                                          l5694 0224                                            l5686 01C8  
                                          l5678 018A                                            l5768 0492  
                                          l5696 023E                                            l5688 01E8  
                                          l5698 0240                                            l5796 082C  
                                          l5798 0830                         ??_Data_EEPROM_WriteByte 0028  
                                          STR_1 FFFA                                            STR_4 FE90  
                                          STR_5 FF50                                            STR_6 FEE2  
                                          STR_7 FFDE                                            STR_8 FFB2  
                                          STR_9 FFEC                                            u2200 1FE4  
                                          u3000 14AE                                            u2201 1FE0  
                                          u3001 14AA                                            u3010 14DA  
                                          u3011 14D6                                            _LATA 0F89  
                                          _LATB 0F8A                                            _LATC 0F8B  
                                          u4000 173A                                            u2400 1A08  
                                          _LATD 0F8C                                            u4001 1736  
                                          _LATE 0F8D                                            u4010 176C  
                                          u2410 1A34                                            u2330 0D6A  
                                          u4011 1768                                            u2331 0D66  
                                          u4020 23D8                                            u4100 0608  
                                          u2420 1A44                                            u2340 0D8A  
                                          u3060 1CF0                                            u4021 23D4  
                                          u4101 0604                                            u2421 1A40  
                                          u2341 0D86                                            u3061 1CEC  
                                          u4110 0618                                            u4030 04D6  
                                          u2510 13CA                                            u2190 1F98  
                                          u2430 2652                                            u4111 0614  
                                          u4031 04D2                                            u2511 13C6  
                                          u2407 19FE                                            u2191 1F94  
                                          u2431 264E                                            u4120 065A  
                                          u4040 0520                                            u2520 13EA  
                                          u4200 0CA8                                            u2440 2632  
                                          u3080 21AC                                            u4121 0656  
                                          u4041 051C                                            u2521 13E6  
                                          u2417 1A2A                                            u4201 0CA4  
                                          u2441 262E                                            u3081 21A8  
                                          u4050 053E                                            u4130 2260  
                                          u2610 1BB2                                            u4210 0D4C  
                                          u2370 0E4E                                            u2354 0DB0  
                                          u2450 2612                                            u4051 053A  
                                          u4131 225C                                            u2611 1BAE  
                                          u4211 0D48                                            u2371 0E48  
                                          u2355 0DAC                                            u2451 260E  
                                          u3075 1D3A                                            u4060 0584  
                                          u4140 236E                                            u4300 04A4  
                                          u4220 0040                                            u2700 0FAE  
                                          u2380 0E50                                            u2364 0E06  
                                          u4061 057E                                            u4141 236A  
                                          u4301 04A0                                            u4221 003C  
                                          u2701 0FAA                                            u2365 0E02  
                                          u3077 1D3C                                            u4150 242C  
                                          u4070 0586                                            u2534 143A  
                                          u2390 19DE                                            u2630 1C1C  
                                          u2550 249C                                            u4230 00AA  
                                          u2710 0FCC                                            u4151 2428  
                                          u2535 1436                                            u2391 19DA  
                                          u2631 1C18                                            u2551 2498  
                                          u4231 00A6                                            u2711 0FC8  
                                          u4080 05E8                                            u4160 2082  
                                          u2544 148E                                            u2560 246E  
                                          u2800 1AD8                                            u4240 014E  
                                          u2720 0FEC                                            u4081 05E4  
                                          u4161 207E                                            u2545 148A  
                                          u2625 1BFC                                            u2561 246A  
                                          u2801 1AD4                                            u4241 014A  
                                          u2721 0FE8                                            u4090 05F8  
                                          u2650 2218                                            u2810 1AF6  
                                          u4170 0AEE                                            u4250 01C8  
                                          u2730 100C                                            u2570 1F48  
                                          u4330 089E                                            u4091 05F4  
                                          u2627 1BFE                                            u2651 2214  
                                          u2811 1AF2                                            u4171 0AEA  
                                          u4251 01C4                                            u2731 1008  
                                          u2571 1F44                                            u4331 089A  
                                          u1940 10C4                                            u2820 1B12  
                                          u4180 06EE                                            u4260 026C  
                                          u2740 102C                                            u2580 1F68  
                                          u2900 2580                                            u4340 08B2  
                                          u1941 10C0                                            u2645 1C66  
                                          u2821 1B0E                                            u4181 06EA  
                                          u4261 0268                                            u2741 1028  
                                          u2581 1F64                                            u2901 257C  
                                          u4341 08AE                                            u1950 10E4  
                                          u2670 22B8                                            u4190 09E2  
                                          u2830 1E20                                            u4270 02E2  
                                          u2750 104C                                            u2910 1EEC  
                                          u4350 08C2                                            u1951 10E0  
                                          u2671 22B4                                            u2647 1C68  
                                          u4191 09DE                          __end_of_Enter_password 0D56  
                                          u2831 1E1C                                            u4271 02DE  
                                          u2751 1048                                            u2911 1EE8  
                                          u4407 1510                                            u4351 08BE  
                                          u2840 1E3E                                            u4280 0386  
                                          u2680 1D56                                            u2760 106C  
                                          u2920 1F10                                            u2665 2222  
                                          u2841 1E3A                                            u4281 0382  
                                          u2681 1D52                                            u2761 1068  
                                          u2921 1F0C                                            u4417 1526  
                                          u2666 2224                                            u2850 1E54  
                                          u4290 0400                                            u2690 1DBA  
                                          u2770 2670                                            u2930 1F32  
                                          u2851 1E50                                            u4291 03FC  
                                          u4507 0332                                            u4427 0026  
                                          u2691 1DB6                                            u2771 266C  
                                          u2931 1F2E                                            u3900 160C  
                                          u1964 110A                                            u2940 12E6  
                                          u2780 17AE                                            u3901 1608  
                                          u1965 1106                                            u2941 12E2  
                                          u4517 0368                                            u4437 0084  
                                          u2781 17AA                                            u3910 1632  
                                          u1974 1160                                            u2950 12F6  
                                          u2790 1B42                                            u3911 162E  
                                          u1975 115C                                            u2951 12F2  
                                          u4607 0D2E                                            u4527 0392  
                                          u4447 00FA                                            u2791 1B3E  
                                          u4367 0916                                            u3920 1656  
                                          u2960 1322                                            u3921 1652  
                                          u2961 131E                                            u4617 0A22  
                                          u4537 0450                                            u4457 0130  
                                          u4377 0974                                            u3930 1670  
                                          u2970 1354                                            u3931 166C  
                                          u2971 1350                                            u4627 0A94  
                                          u4547 0486                                            u4467 015A  
                                          u4387 228E                                            u3860 1592  
                                          u3940 168A                                            u2980 13A2  
                                          u3861 158E                                            u3941 1686  
                                          u2981 139E                                            u4637 25CA  
                                          u4557 0798                                            u4477 0218  
                                          u4397 14F6                                            u3870 15AC  
                                          u3950 16A8                                            u2990 13B4  
                                          u3871 15A8                                            u3951 16A4  
                                          u2991 13B0                                            u4567 0BA0  
                                          u4487 024E                                            u3880 15D2  
                                          u3960 16BE                                            u3881 15CE  
                                          u3961 16BA                                            u4577 0C36  
                                          u4497 02BC                                            u3890 15F0  
                                          u3970 16E2                                            u3891 15EC  
                                          u3971 16DE                                            u4587 0C84  
                          __end_ofi2_motor_stop 2544                                            u3980 1704  
                                          u3981 1700                                            u4597 0CF8  
                                          u3990 1714                                            u3991 1710  
                                          i2l48 2542                            _lcd_4bit_send_string 19CE  
                                          abs@a 002A                                            _dbuf 0080  
                                          _main 082C                                            _prec 00A2  
                                          fsr0h 0FEA                                            fsr1h 0FE2  
                                          indf0 0FEF                                            fsr2h 0FDA  
                                          fsr0l 0FE9                                            indf1 0FE7  
                                          indf2 0FDF                                            fsr1l 0FE1  
                                          fsr2l 0FD9                                            btemp 005C  
                        __end_of_led_initialize 1D46                    keypad_get_value@rows_counter 0032  
                     ?_INT2_SetInterruptHandler 0024                                            prodh 0FF4  
                                          prodl 0FF3                                            start 000E  
                               __end_of_App_ISR 19CE                                   ?_led_turn_off 002C  
                          _RB7_InterruptHandler 00A8                                    ___param_bank 0000  
                         _lcd_4bit_send_command 1F88                                           ??_abs 002C  
              i2lcd_4bit_send_string_pos@column 0013                  lcd_4bit_send_string_pos@column 00E4  
                         lcd_4bit_intialize@lcd 0030                           lcd_4bit_intialize@ret 0032  
                              __end_of_INT0_ISR 2516                               ?_motor_move_right 002C  
                              __end_of_INT1_ISR 24E8                                __end_of_INT2_ISR 245E  
                     ?_Interrupt_INTx_Edge_Init 0024                                           ?_main 0100  
                       __end_of_set_cursor_4bit 18BC                                 __end_of___awdiv 1644  
                                         _EEADR 0FA9                                           STR_10 FEBA  
                                         STR_11 FFF4                                           STR_20 FFF4  
                                         STR_12 FFFD                                           STR_21 FFFD  
                                         STR_13 FF1A                                           STR_14 FFF4  
                                         STR_22 FF82                                           STR_30 FF2C  
                                         STR_15 FFFD                                           STR_23 FFF4  
                                         STR_31 FF3E                                           STR_24 FFFD  
                                         STR_32 FEF6                                           STR_16 FEA6  
                                         STR_17 FFF4                                           STR_25 FF72  
                                         STR_33 FF08                                           STR_18 FFFD  
                                         STR_34 FFD0                                           STR_26 FFA2  
                                         STR_27 FFC2                                           STR_35 FF92  
                                         STR_19 FECE                                           STR_36 FF2C  
                                         STR_28 FFD0                                 __end_of___awmod 16F4  
                                         STR_29 FF62                              ??_motor_move_right 002D  
                               ___awdiv@divisor 0026                                 __end_of___lwdiv 1B32  
                               __end_of___lwmod 1E72                                           i2l123 214E  
                                         i2l212 219A                                           i2l141 23C8  
                                         i2l118 2102                                           i2l215 25FE  
                                         i2l136 1ABC                                           i2l261 1C8A  
                                         i2l238 1944                                           i2l352 12C4  
                                         i2l265 1CDE                                           i2l455 2514  
                                         i2l463 245C                                           i2l459 24E6  
                                         i2l467 268E                                           i2l599 0F6A  
                                         i2l794 19CC                                 ___awdiv@counter 0028  
                                  vfpfcnvrt@fmt 002F                                           _PORTA 0F80  
                                         _PORTB 0F81                                           _PORTC 0F82  
                                         _PORTD 0F83                                           _PORTE 0F84  
                     ?_Interrupt_INTx_ClearFlag 0024                                           _TRISA 0F92  
                                         _TRISB 0F93                                           _TRISC 0F94  
                                         _TRISD 0F95                                           _TRISE 0F96  
                      __end_of_keypad_get_value 13B6                       i2_send_4bit_enable_signal 25DE  
                                         _flags 0041                         gpio_pin_Write_logic@ret 002B  
                                         _fputc 16F4                                           _motor 0057  
                                         _width 00A0                                           _putch 2690  
                           _SetInterruptHandler 179E                           ?_lcd_4bit_send_string 0030  
                 keypad_get_value@rows_counter2 0031                        _INT1_SetInterruptHandler 2620  
                               ?_Enter_password 0001                                           pclath 0FFA  
                                         pclatu 0FFB                                           tablat 0FF5  
                                         ttemp5 005D                                           ttemp6 0060  
                                         ttemp7 0064                                           status 0FD8  
                              ??i2_led_turn_off 0009                                     i2_send_4bit 2150  
                                         wtemp8 005D                                 __end_of_sprintf 2322  
                               ?_led_initialize 002B                          _Interrupt_INTx_Disable 1D46  
                  __end_of_Data_EEPROM_ReadByte 22E6                                  ??_led_turn_off 002D  
                      __end_of_keypad_intialize 1F34                          i2_gpio_pin_Write_logic 11C0  
                               __initialization 1E72                             _gpio_pin_Read_logic 13B6  
                                  __end_of_main 0988                            ?_SetInterruptHandler 0026  
                       keypad_get_value@col_val 0030                                   _lat_registers 00C0  
                                        ??_main 0105                              set_cursor_4bit@lcd 0030  
                                 __activetblptr 0003                              set_cursor_4bit@row 0031  
                                 _entered_value 00A6                            i2_lcd_4bit_send_data 2104  
                              led_turn_on@F3065 0049                                       ??_RB4_ISR 0001  
                          ?_gpio_pin_Read_logic 0024                        __end_of_password_handler 0C22  
                        send_4bit@_data_command 002D                                          ?_fputc 0024  
                                        _EEADRH 0FAA                                          _EEDATA 0FA8  
                                        _EECON2 0FA7                                ___awdiv@dividend 0024  
                                        ?_putch 0001                                          i2l4012 2394  
                                        i2l4004 2516                                          i2l4014 23A4  
                                        i2l4030 1CC2                                          i2l4022 1C76  
                                        i2l4006 2526                                          i2l4016 23A8  
                                        i2l4032 1CD2                                          i2l4024 1C86  
                                        i2l4008 252A                                          i2l4018 23B8  
                                        i2l4026 1C8E                                          i2l4028 1CC0  
                                        i2l3360 124A                                          i2l3352 11C0  
                                        i2l3354 11D0                    Interrupt_INTx_Enable@int_obj 0024  
                                        i2l3364 129A                                          i2l3356 11F0  
                                        i2l3358 11F4                                          i2l3550 20B8  
                                        i2l3480 25EA                                          i2l3560 2114  
                                        i2l3552 20C8                                          i2l4360 1946  
                                        i2l4440 24FC                                          i2l3482 25F2  
                                        i2l3562 2118                                          i2l3554 20CC  
                                        i2l4370 198E                                          i2l4362 1952  
                                        i2l4442 24BA                                          i2l4450 2430  
                                        i2l3476 2150                                          i2l3660 1A46  
                                        i2l4372 1996                                          i2l4364 196A  
                                        i2l4436 24E8                                          i2l4444 24BC  
                                        i2l4452 2444                                          i2l3478 25DE  
                                        i2l3558 2104                                          i2l3662 1A56  
                                        i2l3670 18BC                                          i2l4374 199E  
                                        i2l4366 1982                                          i2l4438 24EA  
                                        i2l4446 24CE                                          i2l4454 268C  
                                        i2l3664 1A5A                                          i2l3672 18C2  
                                        i2l3680 190A                                          i2l4376 19AA  
                                        i2l4368 1986                                          i2l4448 242E  
                                        i2l3666 1A86                                          i2l6090 191E  
                                        i2l3674 18D4                                          i2l4378 19C0  
                                        i2l6092 12AE                                          i2l3668 1A8A  
                                        i2l3676 18E6                                          i2l3678 18F8  
                                        i2l4960 0EBC                                          i2l4970 0EEE  
                                        i2l4962 0ECA                                          i2l4980 0F2A  
                                        i2l4972 0EFC                                          i2l4964 0ECE  
                                        i2l4990 0F66                                          i2l4982 0F38  
                                        i2l4974 0F0A                                          i2l4966 0EDC  
                                        i2l4958 0EAE                                          i2l4984 0F3C  
                                        i2l4976 0F0E                                          i2l4968 0EEA  
                                        i2l4986 0F4A                                          i2l4978 0F1C  
                                        i2l4988 0F58                                       ??_App_ISR 0016  
                                 vfpfcnvrt@done 00E2                __end_of_lcd_4bit_send_string_pos 2394  
                        ?_lcd_4bit_send_command 002E                                    vfprintf@cfmt 0037  
                         ??_SetInterruptHandler 0027                                          ___wmul 2596  
                                     ??___awdiv 0028                                       ??___awmod 0028  
                                     ??___lwdiv 0028                                       ??___lwmod 0028  
                                        _keypad 00D4                                          _memset 23FE  
                                        _buzzer 005B                                          clear_0 1EB8  
                                        clear_1 1EC4                           led_initialize@pin_obj 002D  
                              ___awdiv@quotient 002A                                 ___awmod@divisor 0026  
                                        isa$std 0001                                 ___awmod@counter 0028  
                 __end_of_Interrupt_INTx_Enable 1BA2                           ?i2_lcd_4bit_send_data 000A  
                              ?_set_cursor_4bit 0030                                __end_of_password 0AD6  
       gpio_pin_direction_intialize@_pin_config 0024                                          fputc@c 0024  
                                  __pdataCOMRAM 0051                                    __mediumconst FE7E  
                         ??_gpio_pin_Read_logic 0026                                          tblptrh 0FF7  
                                        tblptrl 0FF6                                          tblptru 0FF8  
                                        putch@c 0001                                  _password_reset 0694  
                              __end_of_vfprintf 226A                          ??_lcd_4bit_send_string 0033  
                                     ??_sprintf 0039                                 _InterruptManger 0008  
                      ?_send_4bit_enable_signal 002C                           set_cursor_4bit@column 0032  
                                    __accesstop 0080                         __end_of__initialization 1ECA  
                      ??_convert_byte_to_string 0039                                       ?_INT0_ISR 0001  
                                     ?_INT1_ISR 0001                                       ?_INT2_ISR 0001  
                                 ___rparam_used 0001                               led_initialize@led 002B  
                         i2led_turn_off@pin_obj 000A                               i2led_turn_off@led 0008  
                       _Interrupt_INTx_Pin_Init 2660                         i2_lcd_4bit_send_command 20B8  
                                __pcstackCOMRAM 0001                                 _motor_intialize 2570  
                         lcd_4bit_send_data@lcd 002E                                    __pidataBANK0 2544  
                                 __end_of_fputc 179E                                   __end_of_putch 2692  
                                  i2_motor_stop 2516                        lcd_4bit_send_command@lcd 002E  
                  ??i2_lcd_4bit_send_string_pos 0016                          __end_of_password_reset 082C  
                          _Data_EEPROM_ReadByte 22A8                            __end_of_led_turn_off 1C76  
              __end_of_INT2_SetInterruptHandler 2620                     __end_of_Interrupt_INTx_Init 21E2  
                                       ??_fputc 0027                         lcd_4bit_send_string@lcd 0030  
                       lcd_4bit_send_string@str 0031                                         ??_putch 0024  
                                    __pbssBANK0 0080                   __end_of_Data_EEPROM_WriteByte 2226  
                         _INT0_InterruptHandler 003F                                      ??_INT0_ISR 0018  
                                    ??_INT1_ISR 0018                                      ??_INT2_ISR 0018  
              __end_of_Interrupt_INTx_Edge_Init 10B0                 keypad_intialize@columns_counter 002E  
                                 ?_Set_password 0001                __end_of_Interrupt_INTx_ClearFlag 1E0E  
                                       ?___wmul 0024                               led_turn_off@F3070 0048  
                               led_toggle@F3075 0047                                         ?_memset 0024  
                        ??i2_lcd_4bit_send_data 000C                      ??_INT1_SetInterruptHandler 0026  
                                       _RB4_ISR 268C                           ?_Data_EEPROM_ReadByte 0024  
                     ?_lcd_4bit_send_string_pos 00E2                         __end_of_InterruptManger 0F9E  
                  __end_of_gpio_pin_Write_logic 11C0                                 ?_password_reset 0001  
                              ??_Enter_password 00FE                               ?_keypad_get_value 002C  
                              ??_led_initialize 002C                              ??_keypad_get_value 002E  
                       ?_Interrupt_INTx_Disable 0024                                         _App_ISR 1946  
                                _tris_registers 00CA                               i2motor_stop@motor 0008  
          __end_of_keypad_value@ecu_keypad$F125 FE8F                    _keypad_value@ecu_keypad$F125 FE7F  
                       __end_of_motor_intialize 2596                                    ?i2_send_4bit 0008  
                       ?i2_gpio_pin_Write_logic 0001                       ??_Interrupt_INTx_Pin_Init 002C  
                     ??i2_lcd_4bit_send_command 000C                       ?_INT0_SetInterruptHandler 0024  
                 i2lcd_4bit_send_string_pos@lcd 0011                                  ??_Set_password 00FE  
                 i2lcd_4bit_send_string_pos@row 0012                   i2lcd_4bit_send_string_pos@str 0014  
                                       __Hparam 0000                                       ?_password 0001  
                                       __Lparam 0000                               ?_keypad_intialize 002B  
                            ??_keypad_intialize 002C                                         ___awdiv 1580  
                                       ___awmod 1644                                         ___lwdiv 1ABE  
                      ??i2_lcd_4bit_send_string 000F                                         ___lwmod 1E0E  
                                     ?_vfprintf 0033                      __end_of_gpio_pin_intialize 1F88  
                                       __pcinit 1E72                                         __ramtop 1000  
                                       __ptext0 082C                                         __ptext1 226A  
                                       __ptext2 2322                                         __ptext3 2570  
                                       __ptext4 1CE0                                         __ptext5 149E  
                                       __ptext6 1F34                                         __ptext7 1ED4  
                                       __ptext8 219C                                         __ptext9 179E  
                                 _intialization 2322                                         _red_led 0059  
                              ___awmod@dividend 0024                               __end_of_int_value FE90  
                             ?_password_handler 0001                  __end_of_Interrupt_INTx_Disable 1DAA  
                             __end_of_send_4bit 206C                         i2set_cursor_4bit@column 000E  
                                       _sprintf 22E6                                  __pintcode_body 0E7C  
                          end_of_initialization 1ECA                               ??_welcome_message 0035  
                      _INT2_SetInterruptHandler 2600                              ??_password_handler 0035  
                __end_ofi2_gpio_pin_Write_logic 12C6                                         fputc@fp 0026  
                                       memset@c 0025                                         memset@n 0027  
                                       memset@p 0029                                         int_func 0E7C  
                    __end_of_lcd_4bit_intialize 1580                          gpio_pin_Read_logic@ret 002A  
                       ??_lcd_4bit_send_command 0030                                      fp__App_ISR 0000  
                         gpio_pin_intialize@ret 002E                                      ??_password 0035  
                       i2lcd_4bit_send_data@lcd 000A                             led_turn_off@pin_obj 002E  
                    __end_of_lcd_4bit_send_data 2020                               __end_of_vfpfcnvrt 0694  
                                       postdec1 0FE5                                         postdec2 0FDD  
                      _Interrupt_INTx_Edge_Init 0F9E                                         postinc0 0FEE  
                                       postinc1 0FE6                                         postinc2 0FDE  
                              vfpfcnvrt@convarg 00E5                                      ??_vfprintf 0037  
                   i2gpio_pin_Write_logic@logic 0002                                      _motor_stop 245E  
                      _Interrupt_INTx_ClearFlag 1DAA              __end_ofi2_lcd_4bit_send_string_pos 23CA  
                    i2_lcd_4bit_send_string_pos 2394                                  ?_intialization 0001  
                         _INT1_InterruptHandler 003D                                       _PORTBbits 0F81  
                        _convert_byte_to_string 206C                          ??_Data_EEPROM_ReadByte 0027  
                 gpio_pin_intialize@_pin_config 002C            __end_of_gpio_pin_direction_intialize 0E7C  
                  _gpio_pin_direction_intialize 0D56                                ?_InterruptManger 0001  
                              ?_motor_intialize 002B                     __end_of_SetInterruptHandler 1832  
                                  _led_turn_off 1C0C                            _gpio_pin_Write_logic 10B0  
                        lcd_4bit_send_data@data 002F                     lcd_4bit_send_string_pos@lcd 00E2  
                   lcd_4bit_send_string_pos@row 00E3                     lcd_4bit_send_string_pos@str 00E5  
                         keypad_get_value@value 002D                                     vfpfcnvrt@ap 0030  
                                   vfpfcnvrt@cp 00E3                                     vfpfcnvrt@fp 002E  
                                __end_of___wmul 25BC                                   __pidataCOMRAM 2680  
                   __end_of_gpio_pin_Read_logic 149E                   Interrupt_INTx_Disable@int_obj 0024  
                                __end_of_memset 242E                            i2set_cursor_4bit@lcd 000C  
                          i2set_cursor_4bit@row 000D                        i2send_4bit@_data_command 0009  
                         _Interrupt_INTx_Enable 1B32                            __end_of_Set_password 04B2  
                           start_initialization 1E72                                   ??_led_turn_on 002D  
                          _RB4_InterruptHandler 00AE                                     __end_of_abs 23FE  
                 ?_gpio_pin_direction_intialize 0024                                _motor_move_right 248C  
                      Data_EEPROM_ReadByte@bAdd 0024                                 led_turn_off@led 002C  
                           keypad_intialize@ret 002C                           ?_gpio_pin_Write_logic 0024  
                                   vfprintf@fmt 0034                                        ??___wmul 0028  
                               ??_intialization 0033                                     __pdataBANK0 00B6  
                     convert_byte_to_string@str 00FC                                     ?_motor_stop 002C  
                                      ??_memset 0029                                ??_password_reset 0035  
                                 _password_flag 0045                                      memset@dest 0024  
                  lcd_4bit_send_command@command 002F                     convert_byte_to_string@value 00FD  
                                      ?_RB4_ISR 0001                                     __pbssCOMRAM 0039  
              __end_of_INT0_SetInterruptHandler 2660                                   __pcstackBANK0 00E2  
                                 __pcstackBANK1 0100                                    send_4bit@lcd 002C  
                        i2_lcd_4bit_send_string 1A46                               i2_set_cursor_4bit 18BC  
                                      ?_App_ISR 0001                             __end_of_led_turn_on 1C0C  
                         _INT2_InterruptHandler 00B0                              ?i2_set_cursor_4bit 000C  
               gpio_pin_direction_intialize@ret 002A                           _Data_EEPROM_WriteByte 21E2  
                              ___lwdiv@dividend 0024                             ??i2_set_cursor_4bit 000F  
                                     __pintcode 0008                                   __pmediumconst FE7E  
                     i2lcd_4bit_send_string@lcd 000C                                        ?___awdiv 0024  
                                      ?___awmod 0024                       i2lcd_4bit_send_string@str 000D  
                                      ?___lwdiv 0024                                        ?___lwmod 0024  
                                  _keypad_value 0050                                       _high_pass 004E  
                gpio_pin_Read_logic@_pin_config 0024                          ?_Interrupt_INTx_Enable 0024  
                               _welcome_message 226A                      ??_INT2_SetInterruptHandler 0026  
                                     _green_led 005A                                    _memory_value 00A4  
                     __end_ofi2_set_cursor_4bit 1946                                ___lwdiv@quotient 0028  
                                      ?_sprintf 00EA                              _gpio_pin_intialize 1F34  
                               motor_stop@motor 002C                 Interrupt_INTx_Edge_Init@int_obj 0024  
                                     _safe_flag 0042                                       _int_value FE8F  
                ??_gpio_pin_direction_intialize 0025                      keypad_intialize@keypad_obj 002B  
                    ??_Interrupt_INTx_Edge_Init 0025                                       _send_4bit 2020  
                                      _INT0_ISR 24E8                                        _INT1_ISR 24BA  
                                      _INT2_ISR 242E                                  ___wmul@product 0028  
                           ?_gpio_pin_intialize 002C                       ?_INT1_SetInterruptHandler 0024  
                             ??_set_cursor_4bit 0033                          ??_gpio_pin_Write_logic 0026  
                    ??_Interrupt_INTx_ClearFlag 0025                                        i2u200_44 1212  
                                      i2u200_45 120E                                     _lcd_counter 004B  
                                      i2u201_44 1268                                        i2u201_45 1264  
                 __end_of_lcd_4bit_send_command 1FD4                                        i2u231_40 20C8  
                                      i2u231_41 20C4                                        i2u232_40 2114  
                                      i2u232_41 2110                                        i2u320_48 2502  
                                      i2u321_40 24CE                                        i2u320_49 2514  
                                      i2u321_41 24CA                                        i2u250_40 1ABC  
                                      i2u250_41 1AB8                                        i2u322_48 24D4  
                                      i2u323_40 2444                                        i2u322_49 24E6  
                                      i2u323_41 2440                                        i2u324_48 244A  
                                      i2u324_49 245C                                        i2u247_40 1A56  
                                      i2u319_40 24FC                                        i2u247_41 1A52  
                                      i2u319_41 24F8                                        i2u248_40 1A80  
                                      i2u248_47 1A76                                        i2u249_40 1AAC  
                                      i2u249_47 1AA2                                        i2u371_40 0EBC  
                                      i2u371_41 0EB8                                        i2u380_40 0F4A  
                                      i2u372_40 0ECA                                        i2u380_41 0F46  
                                      i2u372_41 0EC6                                        i2u381_40 0F58  
                                      i2u373_40 0EDC                            _RB5_InterruptHandler 00AC  
                                      i2u381_41 0F54                                        i2u373_41 0ED8  
                                      i2u198_40 11D0                                        i2u286_40 2526  
                                      i2u382_40 0F66                                        i2u374_40 0EEA  
                                      i2u198_41 11CC                                        i2u286_41 2522  
                                      i2u382_41 0F62                                        i2u374_41 0EE6  
                            led_turn_on@pin_obj 002E                                        i2u199_40 11F0  
                                      i2u287_40 23A4                                        i2u375_40 0EFC  
                                      i2u199_41 11EC                                        i2u287_41 23A0  
                                      i2u375_41 0EF8                                        i2u288_40 1C86  
                                      i2u376_40 0F0A                                        i2u288_41 1C82  
                                      i2u376_41 0F06                                        i2u464_47 19B4  
                                      i2u377_40 0F1C                                        i2u377_41 0F18  
                                      i2u289_45 1CD0                                        i2u465_47 25EC  
                                      i2u289_47 1CD2                                        i2u378_40 0F2A  
                                      i2u378_41 0F26                                        i2u379_40 0F38  
                                      i2u379_41 0F34                      ?i2_send_4bit_enable_signal 0008  
                       _send_4bit_enable_signal 25BC                  Interrupt_INTx_Pin_Init@int_obj 002B  
                       ?_convert_byte_to_string 00FC                                  i2_led_turn_off 1C76  
                            _lcd_4bit_intialize 149E                                       _vfpfcnvrt 04B2  
                   ?i2_lcd_4bit_send_string_pos 0011                        _lcd_4bit_send_string_pos 235C  
                             ___wmul@multiplier 0024                            ??_gpio_pin_intialize 002D  
                            _lcd_4bit_send_data 1FD4                                   _set_password1 003B  
                                 _set_password2 0039                       Data_EEPROM_ReadByte@bData 0026  
                           ?_lcd_4bit_intialize 0030                                     _led_turn_on 1BA2  
                          motor_intialize@motor 002B                 keypad_get_value@columns_counter 0033  
                                    vfpfcnvrt@c 00E9                             ?_lcd_4bit_send_data 002E  
                                   _INTCON2bits 0FF1    Data_EEPROM_WriteByte@Global_Interrupt_Status 0028  
                                   _INTCON3bits 0FF0                                       copy_data0 1E86  
                                     copy_data1 1EA6                        ?_Interrupt_INTx_Pin_Init 002B  
                      ?i2_lcd_4bit_send_command 000A                        _INT0_SetInterruptHandler 2640  
                                    ?_send_4bit 002C                          ?_Data_EEPROM_WriteByte 0024  
                                    _EECON1bits 0FA6                            ??_lcd_4bit_intialize 0031  
                                led_turn_on@led 002C                                        __Hrparam 0000  
                                  _Set_password 0012                          __end_ofi2_led_turn_off 1CE0  
                                    vfprintf@ap 0036                                        __Lrparam 0000  
                                    vfprintf@fp 0033                  __end_of_convert_byte_to_string 20B8  
             __end_ofi2_send_4bit_enable_signal 2600                            ??_lcd_4bit_send_data 0030  
                       __end_of_welcome_message 22A8                        __end_of_motor_move_right 24BA  
                                 ?i2_motor_stop 0008                                      ?_vfpfcnvrt 002E  
                      gpio_pin_Read_logic@logic 0025                      Interrupt_INTx_Init@int_obj 002C  
               Interrupt_INTx_ClearFlag@int_obj 0024                                      sprintf@fmt 00EB  
                               ___lwdiv@divisor 0026                                 ___lwdiv@counter 002A  
                                      __ptext10 2600                                        __ptext11 2620  
                                      __ptext20 0694                                        __ptext12 2640  
                                      __ptext21 0AD6                                        __ptext13 2660  
                                      __ptext30 1C0C                                        __ptext22 1E0E  
                                      __ptext14 0D56                                        __ptext31 235C  
                                      __ptext23 1ABE                                        __ptext15 1B32  
                                      __ptext40 12C6                                        __ptext32 1832  
                                      __ptext24 21E2                                        __ptext16 0F9E  
                                      __ptext41 10B0                                        __ptext33 1F88  
                                      __ptext25 0C22                                        __ptext17 1D46  
                                      __ptext50 1644                                        __ptext42 13B6  
                                      __ptext34 19CE                                        __ptext26 0988  
                                      __ptext18 1DAA                                        __ptext51 1580  
                                      __ptext43 206C                                        __ptext35 1FD4  
                                      __ptext27 245E                                        __ptext19 0012  
                                      __ptext60 1C76                                        __ptext52 23FE  
                                      __ptext44 22E6                                        __ptext36 25BC  
                                      __ptext28 248C                                        __ptext61 2394  
                                      __ptext45 2226                                        __ptext37 2020  
                                      __ptext29 1BA2                                        __ptext62 18BC  
                                      __ptext54 268C                                        __ptext46 04B2  
                                      __ptext38 2596                                        __ptext63 20B8  
                                      __ptext55 242E                                        __ptext47 16F4  
                                      __ptext39 22A8                                        __ptext64 1A46  
                                      __ptext56 24BA                                        __ptext48 2690  
                                      __ptext65 2104                                        __ptext57 24E8  
                                      __ptext49 23CA                                        __ptext66 25DE  
                                      __ptext58 1946                                        __ptext67 2150  
                                      __ptext59 2516                                        __ptext68 11C0  
                                      __ptext69 0000                                        _int1_obj 00DC  
                                i2send_4bit@lcd 0008                       ??_send_4bit_enable_signal 002D  
                    SetInterruptHandler@int_obj 0026                                        _password 0988  
                                      _low_pass 004C                                _keypad_get_value 12C6  
                               ?i2_led_turn_off 0008                                        isa$xinst 0000  
                                      int$flags 005C                    keypad_intialize@rows_counter 002D  
                                ??i2_motor_stop 0009                    __end_of_lcd_4bit_send_string 1A46  
                                      _vfprintf 2226                                    ??_motor_stop 002D  
                                      main@argc 0100                                        main@argv 0102  
                      ??_Interrupt_INTx_Disable 0025                             _Interrupt_INTx_Init 219C  
                                    _INTCONbits 0FF2                                _keypad_intialize 1ED4  
               __end_of_Interrupt_INTx_Pin_Init 2680                 __end_ofi2_lcd_4bit_send_command 2104  
                      ??i2_gpio_pin_Write_logic 0003                         ?i2_lcd_4bit_send_string 000C  
                          _RB6_InterruptHandler 00AA                                        intlevel2 0000  
                                     sprintf@ap 00EF                  i2lcd_4bit_send_command@command 000B  
                                 ??i2_send_4bit 000A                                ___lwmod@dividend 0024  
                                   ??_send_4bit 002E                              __end_of_motor_stop 248C  
                          ?_Interrupt_INTx_Init 002C                        i2lcd_4bit_send_data@data 000B  
                    Data_EEPROM_WriteByte@bData 0026                                 _display_counter 0044  
                              _password_handler 0AD6                                _password_counter 0046  
                              ?_welcome_message 0001                 gpio_pin_Write_logic@_pin_config 0024  
             i2gpio_pin_Write_logic@_pin_config 0001                         ??_Interrupt_INTx_Enable 0025  
                                   ??_vfpfcnvrt 0031                    i2send_4bit_enable_signal@lcd 0008  
                         __end_of_intialization 235C                 __end_of_send_4bit_enable_signal 25DE  
                                      sprintf@f 00F0                                        sprintf@s 00EA  
                __end_ofi2_lcd_4bit_send_string 1ABE                                  _port_registers 00B6  
                               ___lwmod@divisor 0026                       Data_EEPROM_WriteByte@bAdd 0024  
                               ___lwmod@counter 0028                __end_of_INT1_SetInterruptHandler 2640  
                                _wrongs_counter 0043                           motor_move_right@motor 002C  
                               _set_cursor_4bit 1832                                   _display_value 00B2  
                  __end_ofi2_lcd_4bit_send_data 2150                                  _Enter_password 0C22  
                         ??_Interrupt_INTx_Init 002D                      ??_lcd_4bit_send_string_pos 0035  
                                _led_initialize 1CE0                               ??_InterruptManger 0018  
